
tools/system:     file format elf32-i386


Disassembly of section .text:

00000000 <main>:
struct drive_info { char dummy[32]; } drive_info;	// 用于存放硬盘参数表信息.

// 内核初始化主程序.初始化结束后将以任务0(idle任务即空闲任务)的身份运行.
// 英文注释含义是"这里确实是void,没错.在startup程序(head.s)中就是这样假设的".参见head.h程序代码.
int main(void)										/* This really IS void, no error here. */
{													/* The startup routine assumes (well, ...) this */
       0:	8d 4c 24 04          	lea    0x4(%esp),%ecx
       4:	83 e4 f0             	and    $0xfffffff0,%esp
       7:	ff 71 fc             	pushl  -0x4(%ecx)
       a:	55                   	push   %ebp
       b:	89 e5                	mov    %esp,%ebp
       d:	57                   	push   %edi
       e:	56                   	push   %esi
       f:	53                   	push   %ebx
      10:	51                   	push   %ecx
      11:	e8 16 6a 00 00       	call   6a2c <__x86.get_pc_thunk.bx>
      16:	81 c3 ea 0f 02 00    	add    $0x20fea,%ebx
      1c:	83 ec 5c             	sub    $0x5c,%esp
#ifdef EM
	// 开启仿真协处理器
	__asm__("movl %cr0,%eax \n\t" \
      1f:	0f 20 c0             	mov    %cr0,%eax
      22:	83 f0 06             	xor    $0x6,%eax
      25:	0f 22 c0             	mov    %eax,%cr0
	// 首先保存根文件系统设备和交换文件设备号,并根据setup.s程序中获取的信息设置控制台终端屏幕行,列数环境变量TERM,并用其设置初始init进程
	// 中执行etc/rc文件和shell程序使用的环境变量,以及复制内存0x90080处的硬盘表.
	// 其中ROOT_DEV已在前面包含进的include/linux/fs.h文件上被声明为extern_int
	// 而SWAP_DEV在include/linux/mm.h文件内也作了相同声明.这里mm.h文件并没有显式地列在本程序前部,因为前面包含进的include/linux/sched.h
	// 文件中已经含有它.
 	ROOT_DEV = ORIG_ROOT_DEV;										// ROOT_DEV定义在fs/super.c
      28:	0f b7 15 fc 01 09 00 	movzwl 0x901fc,%edx
      2f:	c7 c0 0c 50 02 00    	mov    $0x2500c,%eax
	i = vsprintf(str, fmt, args);
      35:	8d b3 20 16 00 00    	lea    0x1620(%ebx),%esi
 	ROOT_DEV = ORIG_ROOT_DEV;										// ROOT_DEV定义在fs/super.c
      3b:	89 10                	mov    %edx,(%eax)
 	SWAP_DEV = ORIG_SWAP_DEV;										// SWAP_DEV定义在mm/swap.c
      3d:	0f b7 15 fa 01 09 00 	movzwl 0x901fa,%edx
      44:	c7 c0 e4 40 02 00    	mov    $0x240e4,%eax
      4a:	89 10                	mov    %edx,(%eax)
      4c:	8d 83 a5 65 ff ff    	lea    -0x9a5b(%ebx),%eax
	i = vsprintf(str, fmt, args);
      52:	8d 55 c4             	lea    -0x3c(%ebp),%edx
      55:	52                   	push   %edx
      56:	50                   	push   %eax
      57:	56                   	push   %esi
      58:	89 45 c0             	mov    %eax,-0x40(%ebp)
      5b:	e8 e6 82 00 00       	call   8346 <vsprintf>
   	sprintf(term, "TERM=con%dx%d", CON_COLS, CON_ROWS);
	envp[1] = term;
	envp_rc[1] = term;
    drive_info = DRIVE_INFO;										// 复制内存0x90080处的硬盘参数表.
      60:	c7 c0 00 36 03 00    	mov    $0x33600,%eax
	// 接着根据机器物理内存容量设置高速缓冲区和主内存的位置和范围.
	// 高速缓存末端地址->buffer_memory_end;机器内存容量->memory_end;主内存开始地址->main_memory_start.
	// 设置物理内存大小
	memory_end = (1 << 20) + (EXT_MEM_K << 10);						// 内存大小=1MB + 扩展内存(k)*1024字节.
	memory_end &= 0xfffff000;										// 忽略不到4KB(1页)的内存数.
	if (memory_end > 16 * 1024 * 1024)								// 如果内存量超过16MB,则按16MB计.
      66:	83 c4 10             	add    $0x10,%esp
	envp[1] = term;
      69:	89 b3 24 00 00 00    	mov    %esi,0x24(%ebx)
	envp_rc[1] = term;
      6f:	89 b3 38 00 00 00    	mov    %esi,0x38(%ebx)
    drive_info = DRIVE_INFO;										// 复制内存0x90080处的硬盘参数表.
      75:	b9 08 00 00 00       	mov    $0x8,%ecx
      7a:	be 80 00 09 00       	mov    $0x90080,%esi
      7f:	89 c7                	mov    %eax,%edi
	memory_end = (1 << 20) + (EXT_MEM_K << 10);						// 内存大小=1MB + 扩展内存(k)*1024字节.
      81:	0f b7 05 02 00 09 00 	movzwl 0x90002,%eax
    drive_info = DRIVE_INFO;										// 复制内存0x90080处的硬盘参数表.
      88:	f3 a5                	rep movsl %ds:(%esi),%es:(%edi)
	memory_end = (1 << 20) + (EXT_MEM_K << 10);						// 内存大小=1MB + 扩展内存(k)*1024字节.
      8a:	c1 e0 0a             	shl    $0xa,%eax
      8d:	05 00 00 10 00       	add    $0x100000,%eax
	memory_end &= 0xfffff000;										// 忽略不到4KB(1页)的内存数.
      92:	25 00 f0 ff ff       	and    $0xfffff000,%eax
	if (memory_end > 16 * 1024 * 1024)								// 如果内存量超过16MB,则按16MB计.
      97:	3d 00 00 00 01       	cmp    $0x1000000,%eax
	memory_end &= 0xfffff000;										// 忽略不到4KB(1页)的内存数.
      9c:	89 83 48 16 00 00    	mov    %eax,0x1648(%ebx)
	if (memory_end > 16 * 1024 * 1024)								// 如果内存量超过16MB,则按16MB计.
      a2:	7e 0a                	jle    ae <nr_system_calls+0x5c>
		memory_end = 16 * 1024 * 1024;
      a4:	c7 83 48 16 00 00 00 	movl   $0x1000000,0x1648(%ebx)
      ab:	00 00 01 
	// 根据物理内存的大小设置高速缓冲去的末端大小
	if (memory_end > 12 * 1024 * 1024) 								// 如果内存>12MB,则设置缓冲区末端=4MB
      ae:	8b 83 48 16 00 00    	mov    0x1648(%ebx),%eax
      b4:	3d 00 00 c0 00       	cmp    $0xc00000,%eax
      b9:	7e 0c                	jle    c7 <nr_system_calls+0x75>
		buffer_memory_end = 4 * 1024 * 1024;
      bb:	c7 83 44 16 00 00 00 	movl   $0x400000,0x1644(%ebx)
      c2:	00 40 00 
      c5:	eb 1d                	jmp    e4 <nr_system_calls+0x92>
	else if (memory_end > 6 * 1024 * 1024)							// 否则若内存>6MB,则设置缓冲区末端=2MB
      c7:	3d 00 00 60 00       	cmp    $0x600000,%eax
      cc:	7e 0c                	jle    da <nr_system_calls+0x88>
		buffer_memory_end = 2 * 1024 * 1024;
      ce:	c7 83 44 16 00 00 00 	movl   $0x200000,0x1644(%ebx)
      d5:	00 20 00 
      d8:	eb 0a                	jmp    e4 <nr_system_calls+0x92>
	else
		buffer_memory_end = 1 * 1024 * 1024;						// 否则则设置缓冲区末端=1MB
      da:	c7 83 44 16 00 00 00 	movl   $0x100000,0x1644(%ebx)
      e1:	00 10 00 
	// 根据高速缓冲区的末端大小设置主内存区的起始地址
	main_memory_start = buffer_memory_end;							// 主内存起始位置 = 缓冲区末端
      e4:	8b 93 44 16 00 00    	mov    0x1644(%ebx),%edx
	// 参见kernel/blk_drv/ramdisk.c.
#ifdef RAMDISK
	main_memory_start += rd_init(main_memory_start, RAMDISK * 1024);
#endif
	// 以下是内核进行所有方面的初始化工作.
	mem_init(main_memory_start, memory_end);						// 主内存区初始化.(mm/memory.c)
      ea:	56                   	push   %esi
      eb:	56                   	push   %esi
      ec:	50                   	push   %eax
		time.tm_sec = CMOS_READ(0);				// 当前时间秒值(均是BCD码值)
      ed:	be 70 00 00 00       	mov    $0x70,%esi
	mem_init(main_memory_start, memory_end);						// 主内存区初始化.(mm/memory.c)
      f2:	52                   	push   %edx
	main_memory_start = buffer_memory_end;							// 主内存起始位置 = 缓冲区末端
      f3:	89 93 40 16 00 00    	mov    %edx,0x1640(%ebx)
	mem_init(main_memory_start, memory_end);						// 主内存区初始化.(mm/memory.c)
      f9:	e8 40 a6 00 00       	call   a73e <mem_init>
	trap_init();                                    				// 陷阱门(硬件中断向量)初始化.(kernel/traps.c)
      fe:	e8 07 78 00 00       	call   790a <trap_init>
	blk_dev_init();													// 块设备初始化.(blk_drv/ll_rw_blk.c)
     103:	e8 8d 09 01 00       	call   10a95 <blk_dev_init>
	chr_dev_init();													// 字符设备初始化.(chr_drv/tty_io.c)
     108:	e8 3e 2b 01 00       	call   12c4b <chr_dev_init>
 	tty_init();														// tty初始化(chr_drv/tty_io.c)
     10d:	e8 3a 2b 01 00       	call   12c4c <tty_init>
     112:	83 c4 10             	add    $0x10,%esp
		time.tm_sec = CMOS_READ(0);				// 当前时间秒值(均是BCD码值)
     115:	b8 80 00 00 00       	mov    $0x80,%eax
     11a:	89 f2                	mov    %esi,%edx
     11c:	ee                   	out    %al,(%dx)
     11d:	eb 00                	jmp    11f <startup+0x1f>
     11f:	eb 00                	jmp    121 <startup+0x21>
     121:	ba 71 00 00 00       	mov    $0x71,%edx
     126:	ec                   	in     (%dx),%al
     127:	eb 00                	jmp    129 <startup+0x29>
     129:	eb 00                	jmp    12b <startup+0x2b>
     12b:	88 45 b4             	mov    %al,-0x4c(%ebp)
     12e:	0f b6 c8             	movzbl %al,%ecx
		time.tm_min = CMOS_READ(2);				// 当前分钟值.
     131:	89 f2                	mov    %esi,%edx
     133:	b8 82 00 00 00       	mov    $0x82,%eax
     138:	ee                   	out    %al,(%dx)
     139:	eb 00                	jmp    13b <startup+0x3b>
     13b:	eb 00                	jmp    13d <startup+0x3d>
     13d:	ba 71 00 00 00       	mov    $0x71,%edx
     142:	ec                   	in     (%dx),%al
     143:	eb 00                	jmp    145 <startup+0x45>
     145:	eb 00                	jmp    147 <startup+0x47>
     147:	88 45 b0             	mov    %al,-0x50(%ebp)
		time.tm_hour = CMOS_READ(4);			// 当前小时值.
     14a:	89 f2                	mov    %esi,%edx
     14c:	b8 84 00 00 00       	mov    $0x84,%eax
     151:	ee                   	out    %al,(%dx)
     152:	eb 00                	jmp    154 <startup+0x54>
     154:	eb 00                	jmp    156 <startup+0x56>
     156:	ba 71 00 00 00       	mov    $0x71,%edx
     15b:	ec                   	in     (%dx),%al
     15c:	eb 00                	jmp    15e <startup+0x5e>
     15e:	eb 00                	jmp    160 <startup+0x60>
     160:	88 45 ac             	mov    %al,-0x54(%ebp)
		time.tm_mday = CMOS_READ(7);			// 一月中的当天日期.
     163:	89 f2                	mov    %esi,%edx
     165:	b8 87 00 00 00       	mov    $0x87,%eax
     16a:	ee                   	out    %al,(%dx)
     16b:	eb 00                	jmp    16d <startup+0x6d>
     16d:	eb 00                	jmp    16f <startup+0x6f>
     16f:	ba 71 00 00 00       	mov    $0x71,%edx
     174:	ec                   	in     (%dx),%al
     175:	eb 00                	jmp    177 <startup+0x77>
     177:	eb 00                	jmp    179 <startup+0x79>
     179:	88 45 a8             	mov    %al,-0x58(%ebp)
		time.tm_mon = CMOS_READ(8);				// 当前月份(1-12)
     17c:	89 f2                	mov    %esi,%edx
     17e:	b8 88 00 00 00       	mov    $0x88,%eax
     183:	ee                   	out    %al,(%dx)
     184:	eb 00                	jmp    186 <startup+0x86>
     186:	eb 00                	jmp    188 <startup+0x88>
     188:	ba 71 00 00 00       	mov    $0x71,%edx
     18d:	ec                   	in     (%dx),%al
     18e:	eb 00                	jmp    190 <startup+0x90>
     190:	eb 00                	jmp    192 <startup+0x92>
     192:	88 45 a4             	mov    %al,-0x5c(%ebp)
		time.tm_year = CMOS_READ(9);			// 当前年份.
     195:	89 f2                	mov    %esi,%edx
     197:	b8 89 00 00 00       	mov    $0x89,%eax
     19c:	ee                   	out    %al,(%dx)
     19d:	eb 00                	jmp    19f <startup+0x9f>
     19f:	eb 00                	jmp    1a1 <startup+0xa1>
     1a1:	ba 71 00 00 00       	mov    $0x71,%edx
     1a6:	ec                   	in     (%dx),%al
     1a7:	eb 00                	jmp    1a9 <startup+0xa9>
     1a9:	eb 00                	jmp    1ab <startup+0xab>
     1ab:	89 c7                	mov    %eax,%edi
	} while (time.tm_sec != CMOS_READ(0));
     1ad:	89 f2                	mov    %esi,%edx
     1af:	b8 80 00 00 00       	mov    $0x80,%eax
     1b4:	ee                   	out    %al,(%dx)
     1b5:	eb 00                	jmp    1b7 <startup+0xb7>
     1b7:	eb 00                	jmp    1b9 <startup+0xb9>
     1b9:	ba 71 00 00 00       	mov    $0x71,%edx
     1be:	ec                   	in     (%dx),%al
     1bf:	eb 00                	jmp    1c1 <startup+0xc1>
     1c1:	eb 00                	jmp    1c3 <startup+0xc3>
     1c3:	0f b6 c0             	movzbl %al,%eax
     1c6:	39 c1                	cmp    %eax,%ecx
     1c8:	0f 85 47 ff ff ff    	jne    115 <startup+0x15>
	BCD_TO_BIN(time.tm_sec);					// 转换成进进制数值.
     1ce:	89 c8                	mov    %ecx,%eax
     1d0:	8b 55 b4             	mov    -0x4c(%ebp),%edx
	startup_time = kernel_mktime(&time);		// 计算开机时间.kernel/mktime.c
     1d3:	83 ec 0c             	sub    $0xc,%esp
	BCD_TO_BIN(time.tm_sec);					// 转换成进进制数值.
     1d6:	c1 f8 04             	sar    $0x4,%eax
     1d9:	6b c0 0a             	imul   $0xa,%eax,%eax
     1dc:	83 e2 0f             	and    $0xf,%edx
     1df:	01 d0                	add    %edx,%eax
	BCD_TO_BIN(time.tm_min);
     1e1:	8b 55 b0             	mov    -0x50(%ebp),%edx
	BCD_TO_BIN(time.tm_sec);					// 转换成进进制数值.
     1e4:	89 45 c4             	mov    %eax,-0x3c(%ebp)
		time.tm_min = CMOS_READ(2);				// 当前分钟值.
     1e7:	0f b6 45 b0          	movzbl -0x50(%ebp),%eax
	BCD_TO_BIN(time.tm_min);
     1eb:	83 e2 0f             	and    $0xf,%edx
     1ee:	c1 f8 04             	sar    $0x4,%eax
     1f1:	6b c0 0a             	imul   $0xa,%eax,%eax
     1f4:	01 d0                	add    %edx,%eax
	BCD_TO_BIN(time.tm_hour);
     1f6:	8b 55 ac             	mov    -0x54(%ebp),%edx
	BCD_TO_BIN(time.tm_min);
     1f9:	89 45 c8             	mov    %eax,-0x38(%ebp)
		time.tm_hour = CMOS_READ(4);			// 当前小时值.
     1fc:	0f b6 45 ac          	movzbl -0x54(%ebp),%eax
	BCD_TO_BIN(time.tm_hour);
     200:	83 e2 0f             	and    $0xf,%edx
     203:	c1 f8 04             	sar    $0x4,%eax
     206:	6b c0 0a             	imul   $0xa,%eax,%eax
     209:	01 d0                	add    %edx,%eax
	BCD_TO_BIN(time.tm_mday);
     20b:	8b 55 a8             	mov    -0x58(%ebp),%edx
	BCD_TO_BIN(time.tm_hour);
     20e:	89 45 cc             	mov    %eax,-0x34(%ebp)
		time.tm_mday = CMOS_READ(7);			// 一月中的当天日期.
     211:	0f b6 45 a8          	movzbl -0x58(%ebp),%eax
	BCD_TO_BIN(time.tm_mday);
     215:	83 e2 0f             	and    $0xf,%edx
     218:	c1 f8 04             	sar    $0x4,%eax
     21b:	6b c0 0a             	imul   $0xa,%eax,%eax
     21e:	01 d0                	add    %edx,%eax
	BCD_TO_BIN(time.tm_mon);
     220:	8b 55 a4             	mov    -0x5c(%ebp),%edx
	BCD_TO_BIN(time.tm_mday);
     223:	89 45 d0             	mov    %eax,-0x30(%ebp)
		time.tm_year = CMOS_READ(9);			// 当前年份.
     226:	89 f8                	mov    %edi,%eax
	BCD_TO_BIN(time.tm_year);
     228:	83 e7 0f             	and    $0xf,%edi
		time.tm_year = CMOS_READ(9);			// 当前年份.
     22b:	0f b6 c0             	movzbl %al,%eax
	BCD_TO_BIN(time.tm_year);
     22e:	c1 f8 04             	sar    $0x4,%eax
	BCD_TO_BIN(time.tm_mon);
     231:	83 e2 0f             	and    $0xf,%edx
	BCD_TO_BIN(time.tm_year);
     234:	6b c0 0a             	imul   $0xa,%eax,%eax
     237:	01 c7                	add    %eax,%edi
		time.tm_mon = CMOS_READ(8);				// 当前月份(1-12)
     239:	0f b6 45 a4          	movzbl -0x5c(%ebp),%eax
	BCD_TO_BIN(time.tm_year);
     23d:	89 7d d8             	mov    %edi,-0x28(%ebp)
	BCD_TO_BIN(time.tm_mon);
     240:	c1 f8 04             	sar    $0x4,%eax
     243:	6b c0 0a             	imul   $0xa,%eax,%eax
	time.tm_mon--;								// tm_mon中月份范围是0~11.
     246:	8d 44 10 ff          	lea    -0x1(%eax,%edx,1),%eax
     24a:	89 45 d4             	mov    %eax,-0x2c(%ebp)
	startup_time = kernel_mktime(&time);		// 计算开机时间.kernel/mktime.c
     24d:	8d 45 c4             	lea    -0x3c(%ebp),%eax
     250:	50                   	push   %eax
     251:	e8 ab 9b 00 00       	call   9e01 <kernel_mktime>
     256:	c7 c2 68 2a 02 00    	mov    $0x22a68,%edx
     25c:	89 02                	mov    %eax,(%edx)
	time_init();													// 设置开机启动时间.
 	sched_init();													// 调度程序初始化(加载任务0的tr,ldtr)(kernel/sched.c)
     25e:	e8 bf 6f 00 00       	call   7222 <sched_init>
	buffer_init(buffer_memory_end);									// 缓冲管理初始化,建内存链表等.(fs/buffer.c)
     263:	58                   	pop    %eax
     264:	ff b3 44 16 00 00    	pushl  0x1644(%ebx)
     26a:	e8 10 c3 00 00       	call   c57f <buffer_init>
	hd_init();														// 硬盘初始化.	(blk_drv/hd.c)
     26f:	e8 d4 1b 01 00       	call   11e48 <hd_init>
	floppy_init();													// 软驱初始化.	(blk_drv/floppy.c)
     274:	e8 c6 11 01 00       	call   1143f <floppy_init>
	sti();															// 所有初始化工作都完了,于是开启中断.
     279:	fb                   	sti    
	// 打印内核初始化完毕
	Log(LOG_INFO_TYPE, "<<<<< Linux0.12 Kernel Init Finished, Ready Start Process0 >>>>>\n");
     27a:	5a                   	pop    %edx
     27b:	8d 83 b3 65 ff ff    	lea    -0x9a4d(%ebx),%eax
     281:	59                   	pop    %ecx
     282:	50                   	push   %eax
     283:	6a 00                	push   $0x0
     285:	e8 05 72 01 00       	call   1748f <Log>
	// 下面过程通过在堆栈中设置的参数,利用中断返回指令启动任务0执行.
	move_to_user_mode();											// 移到用户模式下执行.(include/asm/system.h)
     28a:	89 e0                	mov    %esp,%eax
     28c:	6a 17                	push   $0x17
     28e:	50                   	push   %eax
     28f:	9c                   	pushf  
     290:	6a 0f                	push   $0xf
     292:	68 98 02 00 00       	push   $0x298
     297:	cf                   	iret   
     298:	b8 17 00 00 00       	mov    $0x17,%eax
     29d:	8e d8                	mov    %eax,%ds
     29f:	8e c0                	mov    %eax,%es
     2a1:	8e e0                	mov    %eax,%fs
     2a3:	8e e8                	mov    %eax,%gs
	__asm__ volatile (
     2a5:	b8 02 00 00 00       	mov    $0x2,%eax
     2aa:	cd 80                	int    $0x80
	if (__res >= 0)  															/* 如果返回值>=0,则直接返回该值 */
     2ac:	83 c4 10             	add    $0x10,%esp
     2af:	85 c0                	test   %eax,%eax
     2b1:	79 0c                	jns    2bf <blocked+0xaf>
	errno = -__res;  															/* 否则置出错号,并返回-1 */
     2b3:	c7 c2 04 97 03 00    	mov    $0x39704,%edx
     2b9:	f7 d8                	neg    %eax
     2bb:	89 02                	mov    %eax,(%edx)
     2bd:	eb 07                	jmp    2c6 <blocked+0xb6>
	if (!fork_for_process0()) {										/* we count on this going ok */
     2bf:	75 05                	jne    2c6 <blocked+0xb6>
		init();														// 在新建的子进程(任务1即init进程)中执行.
     2c1:	e8 90 65 00 00       	call   6856 <init>
	 * 我们就回到这里,一直循环执行'pause()'.
	 */
	// pause()系统调用(kernel/sched.c)会把任务0转换成可中断等待状态,再执行调度函数.但是调度函数只要发现系统中没有其他任务可以运行时就会切换
	// 到任务0,是不信赖于任务0的状态.
	for(;;)
		__asm__("int $0x80"::"a" (__NR_pause):);					// 即执行系统调用pause().
     2c6:	b8 1d 00 00 00       	mov    $0x1d,%eax
     2cb:	cd 80                	int    $0x80
     2cd:	eb fc                	jmp    2cb <blocked+0xbb>
     2cf:	90                   	nop

000002d0 <pg_dir>:
     2d0:	b8 10 00 00 00       	mov    $0x10,%eax
     2d5:	8e d8                	mov    %eax,%ds
     2d7:	8e c0                	mov    %eax,%es
     2d9:	8e e0                	mov    %eax,%fs
     2db:	8e e8                	mov    %eax,%gs
     2dd:	0f b2 25 e0 10 02 00 	lss    0x210e0,%esp
     2e4:	e8 58 00 00 00       	call   341 <setup_idt>
     2e9:	e8 83 00 00 00       	call   371 <setup_gdt>
     2ee:	b8 10 00 00 00       	mov    $0x10,%eax
     2f3:	8e d8                	mov    %eax,%ds
     2f5:	8e c0                	mov    %eax,%es
     2f7:	8e e0                	mov    %eax,%fs
     2f9:	8e e8                	mov    %eax,%gs
     2fb:	0f b2 25 e0 10 02 00 	lss    0x210e0,%esp
     302:	31 c0                	xor    %eax,%eax
     304:	40                   	inc    %eax
     305:	a3 00 00 00 00       	mov    %eax,0x0
     30a:	39 05 00 00 10 00    	cmp    %eax,0x100000
     310:	74 f2                	je     304 <pg_dir+0x34>
     312:	0f 20 c0             	mov    %cr0,%eax
     315:	25 11 00 00 80       	and    $0x80000011,%eax
     31a:	83 c8 02             	or     $0x2,%eax
     31d:	0f 22 c0             	mov    %eax,%cr0
     320:	e8 05 00 00 00       	call   32a <check_x87>
     325:	e9 a6 53 00 00       	jmp    56d0 <after_page_tables>

0000032a <check_x87>:
     32a:	db e3                	fninit 
     32c:	9b df e0             	fstsw  %ax
     32f:	3c 00                	cmp    $0x0,%al
     331:	74 0b                	je     33e <check_x87+0x14>
     333:	0f 20 c0             	mov    %cr0,%eax
     336:	83 f0 06             	xor    $0x6,%eax
     339:	0f 22 c0             	mov    %eax,%cr0
     33c:	c3                   	ret    
     33d:	90                   	nop
     33e:	db e4                	fnsetpm(287 only) 
     340:	c3                   	ret    

00000341 <setup_idt>:
     341:	8d 15 f8 56 00 00    	lea    0x56f8,%edx
     347:	b8 00 00 08 00       	mov    $0x80000,%eax
     34c:	66 89 d0             	mov    %dx,%ax
     34f:	66 ba 00 8e          	mov    $0x8e00,%dx
     353:	8d 3d 88 57 00 00    	lea    0x5788,%edi
     359:	b9 00 01 00 00       	mov    $0x100,%ecx

0000035e <rp_sidt>:
     35e:	89 07                	mov    %eax,(%edi)
     360:	89 57 04             	mov    %edx,0x4(%edi)
     363:	83 c7 08             	add    $0x8,%edi
     366:	49                   	dec    %ecx
     367:	75 f5                	jne    35e <rp_sidt>
     369:	0f 01 1d 7a 57 00 00 	lidtl  0x577a
     370:	c3                   	ret    

00000371 <setup_gdt>:
     371:	0f 01 15 82 57 00 00 	lgdtl  0x5782
     378:	c3                   	ret    
	...

000012d0 <pg0>:
	...

000022d0 <pg1>:
	...

000032d0 <pg2>:
	...

000042d0 <pg3>:
	...

000052d0 <tmp_floppy_area>:
	...

000056d0 <after_page_tables>:
    56d0:	6a 00                	push   $0x0
    56d2:	6a 00                	push   $0x0
    56d4:	6a 00                	push   $0x0
    56d6:	68 e2 56 00 00       	push   $0x56e2
    56db:	68 00 00 00 00       	push   $0x0
    56e0:	eb 3c                	jmp    571e <setup_paging>

000056e2 <L6>:
    56e2:	eb fe                	jmp    56e2 <L6>

000056e4 <int_msg>:
    56e4:	55                   	push   %ebp
    56e5:	6e                   	outsb  %ds:(%esi),(%dx)
    56e6:	6b 6e 6f 77          	imul   $0x77,0x6f(%esi),%ebp
    56ea:	6e                   	outsb  %ds:(%esi),(%dx)
    56eb:	20 69 6e             	and    %ch,0x6e(%ecx)
    56ee:	74 65                	je     5755 <setup_paging+0x37>
    56f0:	72 72                	jb     5764 <setup_paging+0x46>
    56f2:	75 70                	jne    5764 <setup_paging+0x46>
    56f4:	74 0a                	je     5700 <ignore_int+0x8>
    56f6:	0d                   	.byte 0xd
	...

000056f8 <ignore_int>:
    56f8:	50                   	push   %eax
    56f9:	51                   	push   %ecx
    56fa:	52                   	push   %edx
    56fb:	1e                   	push   %ds
    56fc:	06                   	push   %es
    56fd:	0f a0                	push   %fs
    56ff:	b8 10 00 00 00       	mov    $0x10,%eax
    5704:	8e d8                	mov    %eax,%ds
    5706:	8e c0                	mov    %eax,%es
    5708:	8e e0                	mov    %eax,%fs
    570a:	68 e4 56 00 00       	push   $0x56e4
    570f:	e8 0d 2a 00 00       	call   8121 <printk>
    5714:	58                   	pop    %eax
    5715:	0f a1                	pop    %fs
    5717:	07                   	pop    %es
    5718:	1f                   	pop    %ds
    5719:	5a                   	pop    %edx
    571a:	59                   	pop    %ecx
    571b:	58                   	pop    %eax
    571c:	cf                   	iret   
    571d:	90                   	nop

0000571e <setup_paging>:
    571e:	b9 00 14 00 00       	mov    $0x1400,%ecx
    5723:	31 c0                	xor    %eax,%eax
    5725:	31 ff                	xor    %edi,%edi
    5727:	fc                   	cld    
    5728:	f3 ab                	rep stos %eax,%es:(%edi)
    572a:	c7 05 d0 02 00 00 d7 	movl   $0x12d7,0x2d0
    5731:	12 00 00 
    5734:	c7 05 d4 02 00 00 d7 	movl   $0x22d7,0x2d4
    573b:	22 00 00 
    573e:	c7 05 d8 02 00 00 d7 	movl   $0x32d7,0x2d8
    5745:	32 00 00 
    5748:	c7 05 dc 02 00 00 d7 	movl   $0x42d7,0x2dc
    574f:	42 00 00 
    5752:	bf cc 52 00 00       	mov    $0x52cc,%edi
    5757:	b8 07 f0 ff 00       	mov    $0xfff007,%eax
    575c:	fd                   	std    
    575d:	ab                   	stos   %eax,%es:(%edi)
    575e:	2d 00 10 00 00       	sub    $0x1000,%eax
    5763:	7d f8                	jge    575d <setup_paging+0x3f>
    5765:	fc                   	cld    
    5766:	31 c0                	xor    %eax,%eax
    5768:	0f 22 d8             	mov    %eax,%cr3
    576b:	0f 20 c0             	mov    %cr0,%eax
    576e:	0d 00 00 00 80       	or     $0x80000000,%eax
    5773:	0f 22 c0             	mov    %eax,%cr0
    5776:	c3                   	ret    
    5777:	90                   	nop
	...

0000577a <idt_descr>:
    577a:	ff 07                	incl   (%edi)
    577c:	88 57 00             	mov    %dl,0x0(%edi)
    577f:	00 00                	add    %al,(%eax)
	...

00005782 <gdt_descr>:
    5782:	ff 07                	incl   (%edi)
    5784:	88 5f 00             	mov    %bl,0x0(%edi)
	...

00005788 <idt>:
	...

00005f88 <gdt>:
	...
    5f90:	ff 0f                	decl   (%edi)
    5f92:	00 00                	add    %al,(%eax)
    5f94:	00 9a c0 00 ff 0f    	add    %bl,0xfff00c0(%edx)
    5f9a:	00 00                	add    %al,(%eax)
    5f9c:	00 92 c0 00 00 00    	add    %dl,0xc0(%edx)
	...

00006788 <fork>:
_syscall0(int, fork)
    6788:	e8 9b 02 00 00       	call   6a28 <__x86.get_pc_thunk.dx>
    678d:	81 c2 73 a8 01 00    	add    $0x1a873,%edx
    6793:	b8 02 00 00 00       	mov    $0x2,%eax
    6798:	cd 80                	int    $0x80
    679a:	85 c0                	test   %eax,%eax
    679c:	79 0d                	jns    67ab <fork+0x23>
    679e:	c7 c2 04 97 03 00    	mov    $0x39704,%edx
    67a4:	f7 d8                	neg    %eax
    67a6:	89 02                	mov    %eax,(%edx)
    67a8:	83 c8 ff             	or     $0xffffffff,%eax
    67ab:	c3                   	ret    

000067ac <pause>:
_syscall0(int, pause)
    67ac:	e8 77 02 00 00       	call   6a28 <__x86.get_pc_thunk.dx>
    67b1:	81 c2 4f a8 01 00    	add    $0x1a84f,%edx
    67b7:	b8 1d 00 00 00       	mov    $0x1d,%eax
    67bc:	cd 80                	int    $0x80
    67be:	85 c0                	test   %eax,%eax
    67c0:	79 0d                	jns    67cf <pause+0x23>
    67c2:	c7 c2 04 97 03 00    	mov    $0x39704,%edx
    67c8:	f7 d8                	neg    %eax
    67ca:	89 02                	mov    %eax,(%edx)
    67cc:	83 c8 ff             	or     $0xffffffff,%eax
    67cf:	c3                   	ret    

000067d0 <setup>:
_syscall1(int, setup, void *, BIOS)
    67d0:	53                   	push   %ebx
    67d1:	31 c0                	xor    %eax,%eax
    67d3:	8b 5c 24 08          	mov    0x8(%esp),%ebx
    67d7:	e8 4c 02 00 00       	call   6a28 <__x86.get_pc_thunk.dx>
    67dc:	81 c2 24 a8 01 00    	add    $0x1a824,%edx
    67e2:	cd 80                	int    $0x80
    67e4:	85 c0                	test   %eax,%eax
    67e6:	79 0d                	jns    67f5 <setup+0x25>
    67e8:	c7 c2 04 97 03 00    	mov    $0x39704,%edx
    67ee:	f7 d8                	neg    %eax
    67f0:	89 02                	mov    %eax,(%edx)
    67f2:	83 c8 ff             	or     $0xffffffff,%eax
    67f5:	5b                   	pop    %ebx
    67f6:	c3                   	ret    

000067f7 <sync>:
_syscall0(int, sync)
    67f7:	e8 2c 02 00 00       	call   6a28 <__x86.get_pc_thunk.dx>
    67fc:	81 c2 04 a8 01 00    	add    $0x1a804,%edx
    6802:	b8 24 00 00 00       	mov    $0x24,%eax
    6807:	cd 80                	int    $0x80
    6809:	85 c0                	test   %eax,%eax
    680b:	79 0d                	jns    681a <sync+0x23>
    680d:	c7 c2 04 97 03 00    	mov    $0x39704,%edx
    6813:	f7 d8                	neg    %eax
    6815:	89 02                	mov    %eax,(%edx)
    6817:	83 c8 ff             	or     $0xffffffff,%eax
    681a:	c3                   	ret    

0000681b <printf>:

// 下面函数产生格式化信息并输出到标准输出设备stdout(1),这里是指屏幕上显示.参数'*fmt'指定输出将采用的格式,参见标准C语言书籍.
// 该子程序正好是vsprintf如何使用的一个简单例子.该程序使用vsprintf()将格式化的字符串放入printbuf缓冲区,然后用write()将
// 缓冲区的内容输出到标准设备(1--stdout).vsprintf()函数的实现见kernel/vsprintf.c.
int printf(const char *fmt, ...)
{
    681b:	57                   	push   %edi
    681c:	56                   	push   %esi
    681d:	53                   	push   %ebx
	va_list args;
	int i;

	va_start(args, fmt);
	write(1, printbuf, i = vsprintf(printbuf, fmt, args));
    681e:	50                   	push   %eax
    681f:	e8 08 02 00 00       	call   6a2c <__x86.get_pc_thunk.bx>
    6824:	81 c3 dc a7 01 00    	add    $0x1a7dc,%ebx
    682a:	8d 44 24 18          	lea    0x18(%esp),%eax
    682e:	8d bb 60 16 00 00    	lea    0x1660(%ebx),%edi
    6834:	50                   	push   %eax
    6835:	ff 74 24 18          	pushl  0x18(%esp)
    6839:	57                   	push   %edi
    683a:	e8 07 1b 00 00       	call   8346 <vsprintf>
    683f:	83 c4 0c             	add    $0xc,%esp
    6842:	89 c6                	mov    %eax,%esi
    6844:	50                   	push   %eax
    6845:	57                   	push   %edi
    6846:	6a 01                	push   $0x1
    6848:	e8 27 0b 01 00       	call   17374 <write>
	va_end(args);
	return i;
    684d:	83 c4 10             	add    $0x10,%esp
}
    6850:	89 f0                	mov    %esi,%eax
    6852:	5b                   	pop    %ebx
    6853:	5e                   	pop    %esi
    6854:	5f                   	pop    %edi
    6855:	c3                   	ret    

00006856 <init>:

// 在main()中已经进行子系统初始化,包括内存管理,各种硬件设备和驱动程序.init()函数在任务0第1次创建的子进程(任务1)中.它首先对第一个将要执行
// 的程序(shell)的环境进行初始化,然后以登录shell方式加载程序并执行之.
void init(void)
{
    6856:	57                   	push   %edi
    6857:	56                   	push   %esi
    6858:	53                   	push   %ebx
    6859:	e8 ce 01 00 00       	call   6a2c <__x86.get_pc_thunk.bx>
    685e:	81 c3 a2 a7 01 00    	add    $0x1a7a2,%ebx
    6864:	83 ec 10             	sub    $0x10,%esp
	// 在块设备子目录kernel/blk_drv/hd.c.
	setup((void *) &drive_info);
	// 下面以读写访问方式打开设备"/dev/tty0",它对应终端控制台.由于这是第一次打开文件操作,因此产生的文件句柄号(文件描述符)肯定是0.该句柄是UNIX类操作
	// 系统默认的控制台标准输入句柄stdin.这里再把它以读和写的方式分别打开是为了复制产生标准输出(写)句柄stdout和标准出错输出句柄stderr.函数前面的"(void)"
	// 前缀用于表示强制函数无需返回值.
	(void) open("/dev/tty1", O_RDWR, 0);
    6867:	8d bb e0 64 ff ff    	lea    -0x9b20(%ebx),%edi
	setup((void *) &drive_info);
    686d:	ff b3 e4 ff ff ff    	pushl  -0x1c(%ebx)
    6873:	e8 58 ff ff ff       	call   67d0 <setup>
	(void) open("/dev/tty1", O_RDWR, 0);
    6878:	6a 00                	push   $0x0
    687a:	6a 02                	push   $0x2
    687c:	57                   	push   %edi
    687d:	e8 94 0a 01 00       	call   17316 <open>
	(void) dup(0);													// 复制句柄,产生句柄1号--stdout标准输出设备.
    6882:	c7 04 24 00 00 00 00 	movl   $0x0,(%esp)
    6889:	e8 1a 0b 01 00       	call   173a8 <dup>
	(void) dup(0);													// 复制句柄,产生句柄2号--stderr标准出错输出设备.
    688e:	c7 04 24 00 00 00 00 	movl   $0x0,(%esp)
    6895:	e8 0e 0b 01 00       	call   173a8 <dup>
	// 进程1执行的用户级代码的开始
	printf("<<<<< Process 1 console fd = %d >>>>>\n", fd);
    689a:	5e                   	pop    %esi
    689b:	58                   	pop    %eax
    689c:	8d 83 ea 64 ff ff    	lea    -0x9b16(%ebx),%eax
    68a2:	6a 00                	push   $0x0
    68a4:	50                   	push   %eax
    68a5:	e8 71 ff ff ff       	call   681b <printf>
	// 下面打印缓冲区块数和总字节数,每块1024字节,以及主内存区空闲内存字节数.
	printf("<<<<< %d buffers = %d bytes buffer space >>>>>\n\r", NR_BUFFERS,
    68aa:	c7 c0 00 50 02 00    	mov    $0x25000,%eax
    68b0:	83 c4 0c             	add    $0xc,%esp
    68b3:	8b 00                	mov    (%eax),%eax
    68b5:	89 c2                	mov    %eax,%edx
    68b7:	c1 e2 0a             	shl    $0xa,%edx
    68ba:	52                   	push   %edx
    68bb:	50                   	push   %eax
    68bc:	8d 83 11 65 ff ff    	lea    -0x9aef(%ebx),%eax
    68c2:	50                   	push   %eax
    68c3:	e8 53 ff ff ff       	call   681b <printf>
			NR_BUFFERS * BLOCK_SIZE);
	printf("<<<<< Free mem: %d bytes >>>>>\n\r", memory_end - main_memory_start);
    68c8:	58                   	pop    %eax
    68c9:	8b 83 48 16 00 00    	mov    0x1648(%ebx),%eax
    68cf:	2b 83 40 16 00 00    	sub    0x1640(%ebx),%eax
    68d5:	5a                   	pop    %edx
    68d6:	50                   	push   %eax
    68d7:	8d 83 42 65 ff ff    	lea    -0x9abe(%ebx),%eax
    68dd:	50                   	push   %eax
    68de:	e8 38 ff ff ff       	call   681b <printf>
	// 下面fork()用于创建一个子进程(任务2).对于被创建的子进程,fork()将返回0值,对于原进程(父进程)则返回子进程的进程号pid.所以第202--206行是子进程执行的内容.
	// 该子进程关闭了句柄0(stdin),以只读方式打开/etc/rc文件,并使用execve()函数将进程自身替换成/bin/sh程序(即shell程序),然后执行/bin/sh程序.所携带的参数
	// 和环境变量分别由argv_rc和envp_rc数组给出.关闭句柄0并立刻打开/etc/rc文件的作用是把标准输入stdin重定向到/etc/rc/文件.这样shell程序/bin/sh就可以运行
	// rc文件中设置的命令.由于这里sh的运行方式是非交互式的,因此在执行完rc文件中的命令后就会立刻退出,进程2也随之结束.并于execve()函数说明请参见fs/exec.c程序.
	// 函数_exit()退出时的出错码1 - 操作未许可;2 -- 文件或目录不存在.
	if (!(pid = fork())) {
    68e3:	e8 a0 fe ff ff       	call   6788 <fork>
    68e8:	83 c4 10             	add    $0x10,%esp
    68eb:	83 f8 00             	cmp    $0x0,%eax
    68ee:	75 5a                	jne    694a <init+0xf4>
		close(0);
    68f0:	83 ec 0c             	sub    $0xc,%esp
    68f3:	6a 00                	push   $0x0
    68f5:	e8 50 0a 01 00       	call   1734a <close>
		if (open("/etc/rc", O_RDONLY, 0))
    68fa:	8d 83 63 65 ff ff    	lea    -0x9a9d(%ebx),%eax
    6900:	83 c4 0c             	add    $0xc,%esp
    6903:	6a 00                	push   $0x0
    6905:	6a 00                	push   $0x0
    6907:	50                   	push   %eax
    6908:	e8 09 0a 01 00       	call   17316 <open>
    690d:	83 c4 10             	add    $0x10,%esp
    6910:	85 c0                	test   %eax,%eax
    6912:	74 0d                	je     6921 <init+0xcb>
			_exit(1);												// 若打开文件失败,则退出(lib/_exit.c).
    6914:	83 ec 0c             	sub    $0xc,%esp
    6917:	6a 01                	push   $0x1
    6919:	e8 ea 09 01 00       	call   17308 <_exit>
    691e:	83 c4 10             	add    $0x10,%esp
		execve("/bin/sh", argv_rc, envp_rc);						// 替换成/bin/sh程序并执行.
    6921:	8d 83 34 00 00 00    	lea    0x34(%ebx),%eax
    6927:	51                   	push   %ecx
    6928:	50                   	push   %eax
    6929:	8d 83 40 00 00 00    	lea    0x40(%ebx),%eax
    692f:	50                   	push   %eax
    6930:	8d 83 05 66 ff ff    	lea    -0x99fb(%ebx),%eax
    6936:	50                   	push   %eax
    6937:	e8 ba 0a 01 00       	call   173f6 <execve>
		_exit(2);													// 若execve()执行失败则退出.
    693c:	c7 04 24 02 00 00 00 	movl   $0x2,(%esp)
    6943:	e8 c0 09 01 00       	call   17308 <_exit>
    6948:	eb 33                	jmp    697d <init+0x127>
    694a:	89 c6                	mov    %eax,%esi
    }
	// 下面还是父进程（1）执行的语句。wait()等待子进程停止或终止，返回值应是子进程的进程号（pid)。这三句的作用是父进程等待子进程
	// 的结束。&i是存放返回状态信息的位置。如果wait()返回值不等于子进程号，则继续等待。
  	if (pid > 0)
    694c:	7e 14                	jle    6962 <init+0x10c>
		while (pid != wait(&i));
    694e:	83 ec 0c             	sub    $0xc,%esp
    6951:	8d 44 24 18          	lea    0x18(%esp),%eax
    6955:	50                   	push   %eax
    6956:	e8 03 0b 01 00       	call   1745e <wait>
    695b:	83 c4 10             	add    $0x10,%esp
    695e:	39 f0                	cmp    %esi,%eax
    6960:	75 ec                	jne    694e <init+0xf8>
	// 失败”信息并继续执行。对于所创建的子进程将关闭所有以前还遗留的句柄（stdin、stdout、stderr），新创建一个会话并设置进程组号，
	// 然后重新打开/dev/tty0作为stdin，并复制成stdout和stderr。再次执行系统解释程序/bin/sh。但这次执行所选用的参数和环境数组另
	// 选了一套。然后父进程再次运行wait()等等。如果子进程又停止了执行，则在标准输出上显示出错信息“子进程pid停止了运行，返回码是i”，
	// 然后继续重试下去...，形成“大”死循环。
	while (1) {
		if ((pid = fork()) < 0) {
    6962:	e8 21 fe ff ff       	call   6788 <fork>
    6967:	85 c0                	test   %eax,%eax
    6969:	89 c6                	mov    %eax,%esi
    696b:	79 15                	jns    6982 <init+0x12c>
			printf("Fork failed in init %c\r\n", ' ');
    696d:	8d 83 6b 65 ff ff    	lea    -0x9a95(%ebx),%eax
    6973:	52                   	push   %edx
    6974:	52                   	push   %edx
    6975:	6a 20                	push   $0x20
    6977:	50                   	push   %eax
    6978:	e8 9e fe ff ff       	call   681b <printf>
			continue;
    697d:	83 c4 10             	add    $0x10,%esp
    6980:	eb e0                	jmp    6962 <init+0x10c>
		}
		if (!pid) {                             					// 新的子进程。
    6982:	75 74                	jne    69f8 <init+0x1a2>
			close(0); close(1); close(2);
    6984:	83 ec 0c             	sub    $0xc,%esp
    6987:	6a 00                	push   $0x0
    6989:	e8 bc 09 01 00       	call   1734a <close>
    698e:	c7 04 24 01 00 00 00 	movl   $0x1,(%esp)
    6995:	e8 b0 09 01 00       	call   1734a <close>
    699a:	c7 04 24 02 00 00 00 	movl   $0x2,(%esp)
    69a1:	e8 a4 09 01 00       	call   1734a <close>
			setsid();                       						// 创建一新的会话期，见后面说明。
    69a6:	e8 27 0a 01 00       	call   173d2 <setsid>
			(void) open("/dev/tty1", O_RDWR, 0);
    69ab:	83 c4 0c             	add    $0xc,%esp
    69ae:	6a 00                	push   $0x0
    69b0:	6a 02                	push   $0x2
    69b2:	57                   	push   %edi
    69b3:	e8 5e 09 01 00       	call   17316 <open>
			(void) dup(0);
    69b8:	c7 04 24 00 00 00 00 	movl   $0x0,(%esp)
    69bf:	e8 e4 09 01 00       	call   173a8 <dup>
			(void) dup(0);
    69c4:	c7 04 24 00 00 00 00 	movl   $0x0,(%esp)
    69cb:	e8 d8 09 01 00       	call   173a8 <dup>
			_exit(execve("/bin/sh", argv, envp));
    69d0:	8d 83 20 00 00 00    	lea    0x20(%ebx),%eax
    69d6:	83 c4 0c             	add    $0xc,%esp
    69d9:	50                   	push   %eax
    69da:	8d 83 2c 00 00 00    	lea    0x2c(%ebx),%eax
    69e0:	50                   	push   %eax
    69e1:	8d 83 05 66 ff ff    	lea    -0x99fb(%ebx),%eax
    69e7:	50                   	push   %eax
    69e8:	e8 09 0a 01 00       	call   173f6 <execve>
    69ed:	89 04 24             	mov    %eax,(%esp)
    69f0:	e8 13 09 01 00       	call   17308 <_exit>
    69f5:	83 c4 10             	add    $0x10,%esp
		}
		while (1)
			if (pid == wait(&i))
    69f8:	83 ec 0c             	sub    $0xc,%esp
    69fb:	8d 44 24 18          	lea    0x18(%esp),%eax
    69ff:	50                   	push   %eax
    6a00:	e8 59 0a 01 00       	call   1745e <wait>
    6a05:	83 c4 10             	add    $0x10,%esp
    6a08:	39 f0                	cmp    %esi,%eax
    6a0a:	75 ec                	jne    69f8 <init+0x1a2>
				break;
		printf("\n\rchild %d died with code %04x\n\r", pid, i);
    6a0c:	50                   	push   %eax
    6a0d:	8d 83 84 65 ff ff    	lea    -0x9a7c(%ebx),%eax
    6a13:	ff 74 24 10          	pushl  0x10(%esp)
    6a17:	56                   	push   %esi
    6a18:	50                   	push   %eax
    6a19:	e8 fd fd ff ff       	call   681b <printf>
		sync();
    6a1e:	e8 d4 fd ff ff       	call   67f7 <sync>
    6a23:	e9 55 ff ff ff       	jmp    697d <init+0x127>

00006a28 <__x86.get_pc_thunk.dx>:
    6a28:	8b 14 24             	mov    (%esp),%edx
    6a2b:	c3                   	ret    

00006a2c <__x86.get_pc_thunk.bx>:
    6a2c:	8b 1c 24             	mov    (%esp),%ebx
    6a2f:	c3                   	ret    

00006a30 <sys_alarm>:
// 进程数据结构中报警定时值alarm的单位是系统滴答（1滴答为10毫秒），它是系统开机起到设置定时操作时系统滴答值jiffies和转换成滴答
// 单位的定时值之和，即'jiffies + HZ*定时秒值'。而参数给出的是以秒为单位的定时值，因此本函数的主要操作是进行两个单位的转换。
// 其中常数HZ = 100,是内核系统运行频率。定义在inlucde/sched.h上。
// 参数seconds是新的定时时间值，单位是秒。
int sys_alarm(long seconds)
{
    6a30:	57                   	push   %edi
    6a31:	56                   	push   %esi
    6a32:	31 c0                	xor    %eax,%eax
    6a34:	53                   	push   %ebx
    6a35:	8b 4c 24 10          	mov    0x10(%esp),%ecx
    6a39:	e8 ee ff ff ff       	call   6a2c <__x86.get_pc_thunk.bx>
    6a3e:	81 c3 c2 a5 01 00    	add    $0x1a5c2,%ebx
	int old = current->alarm;
    6a44:	8b b3 60 13 00 00    	mov    0x1360(%ebx),%esi
    6a4a:	8b 96 dc 02 00 00    	mov    0x2dc(%esi),%edx

	if (old)
    6a50:	85 d2                	test   %edx,%edx
    6a52:	74 13                	je     6a67 <sys_alarm+0x37>
		old = (old - jiffies) / HZ;
    6a54:	8b 83 6c 1a 00 00    	mov    0x1a6c(%ebx),%eax
    6a5a:	bf 64 00 00 00       	mov    $0x64,%edi
    6a5f:	29 c2                	sub    %eax,%edx
    6a61:	89 d0                	mov    %edx,%eax
    6a63:	31 d2                	xor    %edx,%edx
    6a65:	f7 f7                	div    %edi
	current->alarm = (seconds>0)?(jiffies+HZ*seconds):0;
    6a67:	31 d2                	xor    %edx,%edx
    6a69:	85 c9                	test   %ecx,%ecx
    6a6b:	7e 0b                	jle    6a78 <sys_alarm+0x48>
    6a6d:	8b 93 6c 1a 00 00    	mov    0x1a6c(%ebx),%edx
    6a73:	6b c9 64             	imul   $0x64,%ecx,%ecx
    6a76:	01 ca                	add    %ecx,%edx
    6a78:	89 96 dc 02 00 00    	mov    %edx,0x2dc(%esi)
	return (old);
}
    6a7e:	5b                   	pop    %ebx
    6a7f:	5e                   	pop    %esi
    6a80:	5f                   	pop    %edi
    6a81:	c3                   	ret    

00006a82 <sys_getpid>:

// 取当前进程号pid。
int sys_getpid(void)
{
    6a82:	e8 f3 33 00 00       	call   9e7a <__x86.get_pc_thunk.ax>
    6a87:	05 79 a5 01 00       	add    $0x1a579,%eax
	return current->pid;
    6a8c:	8b 80 60 13 00 00    	mov    0x1360(%eax),%eax
    6a92:	8b 80 2c 02 00 00    	mov    0x22c(%eax),%eax
}
    6a98:	c3                   	ret    

00006a99 <sys_getppid>:

// 取父进程号ppid。
int sys_getppid(void)
{
    6a99:	e8 dc 33 00 00       	call   9e7a <__x86.get_pc_thunk.ax>
    6a9e:	05 62 a5 01 00       	add    $0x1a562,%eax
	return current->p_pptr->pid;
    6aa3:	8b 80 60 13 00 00    	mov    0x1360(%eax),%eax
    6aa9:	8b 80 bc 02 00 00    	mov    0x2bc(%eax),%eax
    6aaf:	8b 80 2c 02 00 00    	mov    0x22c(%eax),%eax
}
    6ab5:	c3                   	ret    

00006ab6 <sys_getuid>:

// 取用户uid。
int sys_getuid(void)
{
    6ab6:	e8 bf 33 00 00       	call   9e7a <__x86.get_pc_thunk.ax>
    6abb:	05 45 a5 01 00       	add    $0x1a545,%eax
	return current->uid;
    6ac0:	8b 80 60 13 00 00    	mov    0x1360(%eax),%eax
    6ac6:	0f b7 80 cc 02 00 00 	movzwl 0x2cc(%eax),%eax
}
    6acd:	c3                   	ret    

00006ace <sys_geteuid>:

// 取有效的用户号euid。
int sys_geteuid(void)
{
    6ace:	e8 a7 33 00 00       	call   9e7a <__x86.get_pc_thunk.ax>
    6ad3:	05 2d a5 01 00       	add    $0x1a52d,%eax
	return current->euid;
    6ad8:	8b 80 60 13 00 00    	mov    0x1360(%eax),%eax
    6ade:	0f b7 80 ce 02 00 00 	movzwl 0x2ce(%eax),%eax
}
    6ae5:	c3                   	ret    

00006ae6 <sys_getgid>:

// 取组号gid。
int sys_getgid(void)
{
    6ae6:	e8 8f 33 00 00       	call   9e7a <__x86.get_pc_thunk.ax>
    6aeb:	05 15 a5 01 00       	add    $0x1a515,%eax
	return current->gid;
    6af0:	8b 80 60 13 00 00    	mov    0x1360(%eax),%eax
    6af6:	0f b7 80 d2 02 00 00 	movzwl 0x2d2(%eax),%eax
}
    6afd:	c3                   	ret    

00006afe <sys_getegid>:

// 取有效的组号egid。
int sys_getegid(void)
{
    6afe:	e8 77 33 00 00       	call   9e7a <__x86.get_pc_thunk.ax>
    6b03:	05 fd a4 01 00       	add    $0x1a4fd,%eax
	return current->egid;
    6b08:	8b 80 60 13 00 00    	mov    0x1360(%eax),%eax
    6b0e:	0f b7 80 d4 02 00 00 	movzwl 0x2d4(%eax),%eax
}
    6b15:	c3                   	ret    

00006b16 <sys_nice>:

// 系统调用功能 -- 降低对CPU的使用优先权（有人会用吗？）。
// 应该限制increment为大于0的值，否则可使优先仅增大！！
int sys_nice(long increment)
{
    6b16:	e8 5f 33 00 00       	call   9e7a <__x86.get_pc_thunk.ax>
    6b1b:	05 e5 a4 01 00       	add    $0x1a4e5,%eax
	if (current->priority-increment > 0)
    6b20:	8b 90 60 13 00 00    	mov    0x1360(%eax),%edx
    6b26:	8b 42 08             	mov    0x8(%edx),%eax
    6b29:	2b 44 24 04          	sub    0x4(%esp),%eax
    6b2d:	85 c0                	test   %eax,%eax
    6b2f:	7e 03                	jle    6b34 <sys_nice+0x1e>
		current->priority -= increment;
    6b31:	89 42 08             	mov    %eax,0x8(%edx)
	return 0;
}
    6b34:	31 c0                	xor    %eax,%eax
    6b36:	c3                   	ret    

00006b37 <show_task>:
{
    6b37:	56                   	push   %esi
    6b38:	53                   	push   %ebx
    6b39:	83 c8 ff             	or     $0xffffffff,%eax
    6b3c:	51                   	push   %ecx
    6b3d:	8b 74 24 14          	mov    0x14(%esp),%esi
    6b41:	e8 e6 fe ff ff       	call   6a2c <__x86.get_pc_thunk.bx>
    6b46:	81 c3 ba a4 01 00    	add    $0x1a4ba,%ebx
		p->state, p->p_pptr->pid, p->p_cptr ? p->p_cptr->pid : -1);
    6b4c:	8b 96 c0 02 00 00    	mov    0x2c0(%esi),%edx
	printk("%d: pid=%d, state=%d, father=%d, child=%d, ", nr, p->pid,
    6b52:	85 d2                	test   %edx,%edx
    6b54:	74 06                	je     6b5c <show_task+0x25>
    6b56:	8b 82 2c 02 00 00    	mov    0x22c(%edx),%eax
    6b5c:	52                   	push   %edx
    6b5d:	52                   	push   %edx
    6b5e:	50                   	push   %eax
    6b5f:	8b 86 bc 02 00 00    	mov    0x2bc(%esi),%eax
    6b65:	ff b0 2c 02 00 00    	pushl  0x22c(%eax)
    6b6b:	8d 83 50 66 ff ff    	lea    -0x99b0(%ebx),%eax
    6b71:	ff 36                	pushl  (%esi)
    6b73:	ff b6 2c 02 00 00    	pushl  0x22c(%esi)
    6b79:	ff 74 24 28          	pushl  0x28(%esp)
    6b7d:	50                   	push   %eax
    6b7e:	e8 9e 15 00 00       	call   8121 <printk>
    6b83:	83 c4 20             	add    $0x20,%esp
	i = 0;
    6b86:	31 c0                	xor    %eax,%eax
	while (i < j && !((char *)(p + 1))[i])				// 检测指定任务数据结构以后等于0的字节数.
    6b88:	80 bc 06 84 04 00 00 	cmpb   $0x0,0x484(%esi,%eax,1)
    6b8f:	00 
    6b90:	75 08                	jne    6b9a <show_task+0x63>
		i++;
    6b92:	40                   	inc    %eax
	while (i < j && !((char *)(p + 1))[i])				// 检测指定任务数据结构以后等于0的字节数.
    6b93:	3d 7c 0b 00 00       	cmp    $0xb7c,%eax
    6b98:	75 ee                	jne    6b88 <show_task+0x51>
	printk("%d/%d chars free in kstack\n\r", i, j);
    6b9a:	52                   	push   %edx
    6b9b:	68 7c 0b 00 00       	push   $0xb7c
    6ba0:	50                   	push   %eax
    6ba1:	8d 83 7c 66 ff ff    	lea    -0x9984(%ebx),%eax
    6ba7:	50                   	push   %eax
    6ba8:	e8 74 15 00 00       	call   8121 <printk>
	printk("   PC=%08X.", *(1019 + (unsigned long *) p));
    6bad:	59                   	pop    %ecx
    6bae:	58                   	pop    %eax
    6baf:	8d 83 99 66 ff ff    	lea    -0x9967(%ebx),%eax
    6bb5:	ff b6 ec 0f 00 00    	pushl  0xfec(%esi)
    6bbb:	50                   	push   %eax
    6bbc:	e8 60 15 00 00       	call   8121 <printk>
	if (p->p_ysptr || p->p_osptr)
    6bc1:	8b 86 c4 02 00 00    	mov    0x2c4(%esi),%eax
    6bc7:	83 c4 10             	add    $0x10,%esp
    6bca:	85 c0                	test   %eax,%eax
    6bcc:	75 09                	jne    6bd7 <show_task+0xa0>
    6bce:	83 be c8 02 00 00 00 	cmpl   $0x0,0x2c8(%esi)
    6bd5:	74 2b                	je     6c02 <show_task+0xcb>
			p->p_osptr ? p->p_osptr->pid : -1);
    6bd7:	8b 96 c8 02 00 00    	mov    0x2c8(%esi),%edx
		printk("   Younger sib=%d, older sib=%d\n\r",
    6bdd:	83 c9 ff             	or     $0xffffffff,%ecx
    6be0:	85 d2                	test   %edx,%edx
    6be2:	74 06                	je     6bea <show_task+0xb3>
    6be4:	8b 8a 2c 02 00 00    	mov    0x22c(%edx),%ecx
    6bea:	83 ca ff             	or     $0xffffffff,%edx
    6bed:	85 c0                	test   %eax,%eax
    6bef:	74 06                	je     6bf7 <show_task+0xc0>
    6bf1:	8b 90 2c 02 00 00    	mov    0x22c(%eax),%edx
    6bf7:	8d 83 a5 66 ff ff    	lea    -0x995b(%ebx),%eax
    6bfd:	56                   	push   %esi
    6bfe:	51                   	push   %ecx
    6bff:	52                   	push   %edx
    6c00:	eb 09                	jmp    6c0b <show_task+0xd4>
		printk("\n\r");
    6c02:	8d 83 42 70 ff ff    	lea    -0x8fbe(%ebx),%eax
    6c08:	83 ec 0c             	sub    $0xc,%esp
    6c0b:	50                   	push   %eax
    6c0c:	e8 10 15 00 00       	call   8121 <printk>
    6c11:	83 c4 10             	add    $0x10,%esp
}
    6c14:	58                   	pop    %eax
    6c15:	5b                   	pop    %ebx
    6c16:	5e                   	pop    %esi
    6c17:	c3                   	ret    

00006c18 <show_state>:
{
    6c18:	56                   	push   %esi
    6c19:	53                   	push   %ebx
	for (i = 0; i < NR_TASKS; i++)
    6c1a:	31 f6                	xor    %esi,%esi
    6c1c:	e8 0b fe ff ff       	call   6a2c <__x86.get_pc_thunk.bx>
    6c21:	81 c3 df a3 01 00    	add    $0x1a3df,%ebx
{
    6c27:	83 ec 10             	sub    $0x10,%esp
	printk("\rTask-info:\n\r");
    6c2a:	8d 83 c7 66 ff ff    	lea    -0x9939(%ebx),%eax
    6c30:	50                   	push   %eax
    6c31:	e8 eb 14 00 00       	call   8121 <printk>
    6c36:	83 c4 10             	add    $0x10,%esp
		if (task[i])
    6c39:	8b 84 b3 60 12 00 00 	mov    0x1260(%ebx,%esi,4),%eax
    6c40:	85 c0                	test   %eax,%eax
    6c42:	74 0c                	je     6c50 <show_state+0x38>
			show_task(i, task[i]);
    6c44:	52                   	push   %edx
    6c45:	52                   	push   %edx
    6c46:	50                   	push   %eax
    6c47:	56                   	push   %esi
    6c48:	e8 ea fe ff ff       	call   6b37 <show_task>
    6c4d:	83 c4 10             	add    $0x10,%esp
	for (i = 0; i < NR_TASKS; i++)
    6c50:	46                   	inc    %esi
    6c51:	83 fe 40             	cmp    $0x40,%esi
    6c54:	75 e3                	jne    6c39 <show_state+0x21>
}
    6c56:	58                   	pop    %eax
    6c57:	5b                   	pop    %ebx
    6c58:	5e                   	pop    %esi
    6c59:	c3                   	ret    

00006c5a <math_state_restore>:
{
    6c5a:	e8 1b 32 00 00       	call   9e7a <__x86.get_pc_thunk.ax>
    6c5f:	05 a1 a3 01 00       	add    $0x1a3a1,%eax
	if (last_task_used_math == current)
    6c64:	8b 88 60 13 00 00    	mov    0x1360(%eax),%ecx
    6c6a:	39 88 60 1a 00 00    	cmp    %ecx,0x1a60(%eax)
    6c70:	74 39                	je     6cab <math_state_restore+0x51>
	__asm__("fwait");
    6c72:	9b                   	fwait
	if (last_task_used_math) {
    6c73:	8b 90 60 1a 00 00    	mov    0x1a60(%eax),%edx
    6c79:	85 d2                	test   %edx,%edx
    6c7b:	74 06                	je     6c83 <math_state_restore+0x29>
		__asm__("fnsave %0"::"m" (last_task_used_math->tss.i387));
    6c7d:	dd b2 18 04 00 00    	fnsave 0x418(%edx)
	last_task_used_math = current;
    6c83:	8b 90 60 13 00 00    	mov    0x1360(%eax),%edx
	if (current->used_math) {
    6c89:	66 83 ba 28 03 00 00 	cmpw   $0x0,0x328(%edx)
    6c90:	00 
	last_task_used_math = current;
    6c91:	89 90 60 1a 00 00    	mov    %edx,0x1a60(%eax)
	if (current->used_math) {
    6c97:	74 07                	je     6ca0 <math_state_restore+0x46>
		__asm__("frstor %0"::"m" (current->tss.i387));
    6c99:	dd a2 18 04 00 00    	frstor 0x418(%edx)
    6c9f:	c3                   	ret    
		__asm__("fninit"::);					// 向协处理器发初始化命令.
    6ca0:	db e3                	fninit 
		current->used_math=1;					// 设置已使用协处理器标志.
    6ca2:	66 c7 82 28 03 00 00 	movw   $0x1,0x328(%edx)
    6ca9:	01 00 
}
    6cab:	c3                   	ret    

00006cac <schedule>:
{
    6cac:	e8 77 fd ff ff       	call   6a28 <__x86.get_pc_thunk.dx>
    6cb1:	81 c2 4f a3 01 00    	add    $0x1a34f,%edx
    6cb7:	55                   	push   %ebp
    6cb8:	57                   	push   %edi
    6cb9:	56                   	push   %esi
	for(p = &LAST_TASK ; p > &FIRST_TASK ; --p)
    6cba:	8d b2 5c 13 00 00    	lea    0x135c(%edx),%esi
{
    6cc0:	53                   	push   %ebx
	for(p = &LAST_TASK ; p > &FIRST_TASK ; --p)
    6cc1:	8d 8a 60 12 00 00    	lea    0x1260(%edx),%ecx
{
    6cc7:	83 ec 10             	sub    $0x10,%esp
    6cca:	89 f3                	mov    %esi,%ebx
		if (*p) {
    6ccc:	8b 06                	mov    (%esi),%eax
    6cce:	85 c0                	test   %eax,%eax
    6cd0:	74 6c                	je     6d3e <schedule+0x92>
			if ((*p)->timeout && (*p)->timeout < jiffies) {
    6cd2:	8b b8 d8 02 00 00    	mov    0x2d8(%eax),%edi
    6cd8:	85 ff                	test   %edi,%edi
    6cda:	74 1f                	je     6cfb <schedule+0x4f>
    6cdc:	8b aa 6c 1a 00 00    	mov    0x1a6c(%edx),%ebp
    6ce2:	39 ef                	cmp    %ebp,%edi
    6ce4:	73 15                	jae    6cfb <schedule+0x4f>
				if ((*p)->state == TASK_INTERRUPTIBLE)
    6ce6:	83 38 01             	cmpl   $0x1,(%eax)
				(*p)->timeout = 0;
    6ce9:	c7 80 d8 02 00 00 00 	movl   $0x0,0x2d8(%eax)
    6cf0:	00 00 00 
				if ((*p)->state == TASK_INTERRUPTIBLE)
    6cf3:	75 06                	jne    6cfb <schedule+0x4f>
					(*p)->state = TASK_RUNNING;
    6cf5:	c7 00 00 00 00 00    	movl   $0x0,(%eax)
			if ((*p)->alarm && (*p)->alarm < jiffies) {
    6cfb:	8b b8 dc 02 00 00    	mov    0x2dc(%eax),%edi
    6d01:	85 ff                	test   %edi,%edi
    6d03:	74 1b                	je     6d20 <schedule+0x74>
    6d05:	8b aa 6c 1a 00 00    	mov    0x1a6c(%edx),%ebp
    6d0b:	39 ef                	cmp    %ebp,%edi
    6d0d:	73 11                	jae    6d20 <schedule+0x74>
				(*p)->signal |= (1 << (SIGALRM - 1));
    6d0f:	81 48 0c 00 20 00 00 	orl    $0x2000,0xc(%eax)
				(*p)->alarm = 0;
    6d16:	c7 80 dc 02 00 00 00 	movl   $0x0,0x2dc(%eax)
    6d1d:	00 00 00 
			if (((*p)->signal & ~(_BLOCKABLE & (*p)->blocked)) && (*p)->state == TASK_INTERRUPTIBLE)
    6d20:	8b b8 10 02 00 00    	mov    0x210(%eax),%edi
    6d26:	81 e7 ff fe fb ff    	and    $0xfffbfeff,%edi
    6d2c:	f7 d7                	not    %edi
    6d2e:	85 78 0c             	test   %edi,0xc(%eax)
    6d31:	74 0b                	je     6d3e <schedule+0x92>
    6d33:	83 38 01             	cmpl   $0x1,(%eax)
    6d36:	75 06                	jne    6d3e <schedule+0x92>
				(*p)->state = TASK_RUNNING;
    6d38:	c7 00 00 00 00 00    	movl   $0x0,(%eax)
	for(p = &LAST_TASK ; p > &FIRST_TASK ; --p)
    6d3e:	83 ee 04             	sub    $0x4,%esi
    6d41:	39 ce                	cmp    %ecx,%esi
    6d43:	77 87                	ja     6ccc <schedule+0x20>
		c = -1;
    6d45:	83 cf ff             	or     $0xffffffff,%edi
		next = 0;
    6d48:	31 f6                	xor    %esi,%esi
		i = NR_TASKS;
    6d4a:	b8 40 00 00 00       	mov    $0x40,%eax
		while (--i) {
    6d4f:	48                   	dec    %eax
    6d50:	74 1e                	je     6d70 <schedule+0xc4>
			if (!*--p)
    6d52:	8b ac 82 60 12 00 00 	mov    0x1260(%edx,%eax,4),%ebp
    6d59:	85 ed                	test   %ebp,%ebp
    6d5b:	74 f2                	je     6d4f <schedule+0xa3>
			if ((*p)->state == TASK_RUNNING && (*p)->counter > c)
    6d5d:	83 7d 00 00          	cmpl   $0x0,0x0(%ebp)
    6d61:	75 ec                	jne    6d4f <schedule+0xa3>
    6d63:	8b 6d 04             	mov    0x4(%ebp),%ebp
    6d66:	39 fd                	cmp    %edi,%ebp
    6d68:	7e e5                	jle    6d4f <schedule+0xa3>
    6d6a:	89 ef                	mov    %ebp,%edi
    6d6c:	89 c6                	mov    %eax,%esi
    6d6e:	eb df                	jmp    6d4f <schedule+0xa3>
		if (c) break;
    6d70:	85 ff                	test   %edi,%edi
    6d72:	75 1c                	jne    6d90 <schedule+0xe4>
		for(p = &LAST_TASK ; p > &FIRST_TASK ; --p)
    6d74:	89 de                	mov    %ebx,%esi
			if (*p)
    6d76:	8b 3e                	mov    (%esi),%edi
    6d78:	85 ff                	test   %edi,%edi
    6d7a:	74 0b                	je     6d87 <schedule+0xdb>
				(*p)->counter = ((*p)->counter >> 1) + (*p)->priority;
    6d7c:	8b 47 04             	mov    0x4(%edi),%eax
    6d7f:	d1 f8                	sar    %eax
    6d81:	03 47 08             	add    0x8(%edi),%eax
    6d84:	89 47 04             	mov    %eax,0x4(%edi)
		for(p = &LAST_TASK ; p > &FIRST_TASK ; --p)
    6d87:	83 ee 04             	sub    $0x4,%esi
    6d8a:	39 ce                	cmp    %ecx,%esi
    6d8c:	77 e8                	ja     6d76 <schedule+0xca>
    6d8e:	eb b5                	jmp    6d45 <schedule+0x99>
	switch_to(next);					// 切换到任务号为next的任务,并运行之.
    6d90:	89 f2                	mov    %esi,%edx
    6d92:	8b 0c b1             	mov    (%ecx,%esi,4),%ecx
    6d95:	c1 e2 04             	shl    $0x4,%edx
    6d98:	83 c2 20             	add    $0x20,%edx
    6d9b:	39 0d 60 23 02 00    	cmp    %ecx,0x22360
    6da1:	74 19                	je     6dbc <schedule+0x110>
    6da3:	66 89 54 24 0c       	mov    %dx,0xc(%esp)
    6da8:	87 0d 60 23 02 00    	xchg   %ecx,0x22360
    6dae:	ff 6c 24 08          	ljmp   *0x8(%esp)
    6db2:	39 0d 60 2a 02 00    	cmp    %ecx,0x22a60
    6db8:	75 02                	jne    6dbc <schedule+0x110>
    6dba:	0f 06                	clts   
}
    6dbc:	83 c4 10             	add    $0x10,%esp
    6dbf:	5b                   	pop    %ebx
    6dc0:	5e                   	pop    %esi
    6dc1:	5f                   	pop    %edi
    6dc2:	5d                   	pop    %ebp
    6dc3:	c3                   	ret    

00006dc4 <sys_pause>:
{
    6dc4:	e8 b1 30 00 00       	call   9e7a <__x86.get_pc_thunk.ax>
    6dc9:	05 37 a2 01 00       	add    $0x1a237,%eax
	current->state = TASK_INTERRUPTIBLE;
    6dce:	8b 80 60 13 00 00    	mov    0x1360(%eax),%eax
    6dd4:	c7 00 01 00 00 00    	movl   $0x1,(%eax)
	schedule();
    6dda:	e8 cd fe ff ff       	call   6cac <schedule>
}
    6ddf:	31 c0                	xor    %eax,%eax
    6de1:	c3                   	ret    

00006de2 <__sleep_on>:
{
    6de2:	55                   	push   %ebp
    6de3:	57                   	push   %edi
    6de4:	56                   	push   %esi
    6de5:	53                   	push   %ebx
    6de6:	e8 41 fc ff ff       	call   6a2c <__x86.get_pc_thunk.bx>
    6deb:	81 c3 15 a2 01 00    	add    $0x1a215,%ebx
    6df1:	83 ec 0c             	sub    $0xc,%esp
	if (!p)
    6df4:	85 c0                	test   %eax,%eax
    6df6:	74 77                	je     6e6f <__sleep_on+0x8d>
    6df8:	89 c6                	mov    %eax,%esi
	if (current == &(init_task.task))
    6dfa:	8d 83 00 01 00 00    	lea    0x100(%ebx),%eax
    6e00:	39 83 60 13 00 00    	cmp    %eax,0x1360(%ebx)
    6e06:	89 d5                	mov    %edx,%ebp
    6e08:	75 12                	jne    6e1c <__sleep_on+0x3a>
		panic("task[0] trying to sleep");
    6e0a:	8d 83 d5 66 ff ff    	lea    -0x992b(%ebx),%eax
    6e10:	83 ec 0c             	sub    $0xc,%esp
    6e13:	50                   	push   %eax
    6e14:	e8 b9 12 00 00       	call   80d2 <panic>
    6e19:	83 c4 10             	add    $0x10,%esp
	*p = current;
    6e1c:	8b 83 60 13 00 00    	mov    0x1360(%ebx),%eax
	tmp = *p;
    6e22:	8b 3e                	mov    (%esi),%edi
	*p = current;
    6e24:	89 06                	mov    %eax,(%esi)
	current->state = state;
    6e26:	8b 83 60 13 00 00    	mov    0x1360(%ebx),%eax
    6e2c:	89 28                	mov    %ebp,(%eax)
repeat:	schedule();
    6e2e:	e8 79 fe ff ff       	call   6cac <schedule>
	if (*p && *p != current) {
    6e33:	8b 06                	mov    (%esi),%eax
    6e35:	85 c0                	test   %eax,%eax
    6e37:	74 18                	je     6e51 <__sleep_on+0x6f>
    6e39:	8b 93 60 13 00 00    	mov    0x1360(%ebx),%edx
    6e3f:	39 d0                	cmp    %edx,%eax
    6e41:	74 20                	je     6e63 <__sleep_on+0x81>
		(**p).state = 0;
    6e43:	c7 00 00 00 00 00    	movl   $0x0,(%eax)
		current->state = TASK_UNINTERRUPTIBLE;
    6e49:	c7 02 02 00 00 00    	movl   $0x2,(%edx)
		goto repeat;
    6e4f:	eb dd                	jmp    6e2e <__sleep_on+0x4c>
		printk("Warning: *P = NULL\n\r");
    6e51:	8d 83 ed 66 ff ff    	lea    -0x9913(%ebx),%eax
    6e57:	83 ec 0c             	sub    $0xc,%esp
    6e5a:	50                   	push   %eax
    6e5b:	e8 c1 12 00 00       	call   8121 <printk>
    6e60:	83 c4 10             	add    $0x10,%esp
	if (*p = tmp)
    6e63:	85 ff                	test   %edi,%edi
    6e65:	89 3e                	mov    %edi,(%esi)
    6e67:	74 06                	je     6e6f <__sleep_on+0x8d>
		tmp->state = 0;
    6e69:	c7 07 00 00 00 00    	movl   $0x0,(%edi)
}
    6e6f:	83 c4 0c             	add    $0xc,%esp
    6e72:	5b                   	pop    %ebx
    6e73:	5e                   	pop    %esi
    6e74:	5f                   	pop    %edi
    6e75:	5d                   	pop    %ebp
    6e76:	c3                   	ret    

00006e77 <interruptible_sleep_on>:
	__sleep_on(p, TASK_INTERRUPTIBLE);
    6e77:	8b 44 24 04          	mov    0x4(%esp),%eax
    6e7b:	ba 01 00 00 00       	mov    $0x1,%edx
    6e80:	e9 5d ff ff ff       	jmp    6de2 <__sleep_on>

00006e85 <sleep_on>:
	__sleep_on(p, TASK_UNINTERRUPTIBLE);
    6e85:	8b 44 24 04          	mov    0x4(%esp),%eax
    6e89:	ba 02 00 00 00       	mov    $0x2,%edx
    6e8e:	e9 4f ff ff ff       	jmp    6de2 <__sleep_on>

00006e93 <wake_up>:
{
    6e93:	56                   	push   %esi
    6e94:	53                   	push   %ebx
    6e95:	52                   	push   %edx
    6e96:	8b 74 24 10          	mov    0x10(%esp),%esi
    6e9a:	e8 8d fb ff ff       	call   6a2c <__x86.get_pc_thunk.bx>
    6e9f:	81 c3 61 a1 01 00    	add    $0x1a161,%ebx
	if (p && *p) {
    6ea5:	85 f6                	test   %esi,%esi
    6ea7:	74 3e                	je     6ee7 <wake_up+0x54>
    6ea9:	8b 06                	mov    (%esi),%eax
    6eab:	85 c0                	test   %eax,%eax
    6ead:	74 38                	je     6ee7 <wake_up+0x54>
		if ((**p).state == TASK_STOPPED)						// 处于停止状态.
    6eaf:	83 38 04             	cmpl   $0x4,(%eax)
    6eb2:	75 12                	jne    6ec6 <wake_up+0x33>
			printk("wake_up: TASK_STOPPED");
    6eb4:	8d 83 02 67 ff ff    	lea    -0x98fe(%ebx),%eax
    6eba:	83 ec 0c             	sub    $0xc,%esp
    6ebd:	50                   	push   %eax
    6ebe:	e8 5e 12 00 00       	call   8121 <printk>
    6ec3:	83 c4 10             	add    $0x10,%esp
		if ((**p).state == TASK_ZOMBIE)							// 处于僵死状态.
    6ec6:	8b 06                	mov    (%esi),%eax
    6ec8:	83 38 03             	cmpl   $0x3,(%eax)
    6ecb:	75 12                	jne    6edf <wake_up+0x4c>
			printk("wake_up: TASK_ZOMBIE");
    6ecd:	8d 83 18 67 ff ff    	lea    -0x98e8(%ebx),%eax
    6ed3:	83 ec 0c             	sub    $0xc,%esp
    6ed6:	50                   	push   %eax
    6ed7:	e8 45 12 00 00       	call   8121 <printk>
    6edc:	83 c4 10             	add    $0x10,%esp
		(**p).state=0;											// 置为就绪状态TASK_RUNNING.
    6edf:	8b 06                	mov    (%esi),%eax
    6ee1:	c7 00 00 00 00 00    	movl   $0x0,(%eax)
}
    6ee7:	58                   	pop    %eax
    6ee8:	5b                   	pop    %ebx
    6ee9:	5e                   	pop    %esi
    6eea:	c3                   	ret    

00006eeb <ticks_to_floppy_on>:
{
    6eeb:	57                   	push   %edi
    6eec:	56                   	push   %esi
	unsigned char mask = 0x10 << nr;
    6eed:	b8 10 00 00 00       	mov    $0x10,%eax
{
    6ef2:	53                   	push   %ebx
    6ef3:	8b 74 24 10          	mov    0x10(%esp),%esi
    6ef7:	e8 30 fb ff ff       	call   6a2c <__x86.get_pc_thunk.bx>
    6efc:	81 c3 04 a1 01 00    	add    $0x1a104,%ebx
	unsigned char mask = 0x10 << nr;
    6f02:	89 f1                	mov    %esi,%ecx
    6f04:	d3 e0                	shl    %cl,%eax
	if (nr > 3)
    6f06:	83 fe 03             	cmp    $0x3,%esi
	unsigned char mask = 0x10 << nr;
    6f09:	89 c7                	mov    %eax,%edi
	if (nr > 3)
    6f0b:	76 12                	jbe    6f1f <ticks_to_floppy_on+0x34>
		panic("floppy_on: nr>3");
    6f0d:	8d 83 2d 67 ff ff    	lea    -0x98d3(%ebx),%eax
    6f13:	83 ec 0c             	sub    $0xc,%esp
    6f16:	50                   	push   %eax
    6f17:	e8 b6 11 00 00       	call   80d2 <panic>
    6f1c:	83 c4 10             	add    $0x10,%esp
	moff_timer[nr] = 10000;							/* 100 s = very big :-) */	// 停转维持时间.
    6f1f:	c7 84 b3 80 1d 00 00 	movl   $0x2710,0x1d80(%ebx,%esi,4)
    6f26:	10 27 00 00 
	cli();											/* use floppy_off to turn it off */	// 关中断
    6f2a:	fa                   	cli    
	mask |= current_DOR;
    6f2b:	8a 8b 60 00 00 00    	mov    0x60(%ebx),%cl
	if (!selected) {
    6f31:	c7 c2 80 50 02 00    	mov    $0x25080,%edx
	mask |= current_DOR;
    6f37:	89 f8                	mov    %edi,%eax
    6f39:	09 c8                	or     %ecx,%eax
	if (!selected) {
    6f3b:	80 3a 00             	cmpb   $0x0,(%edx)
    6f3e:	75 05                	jne    6f45 <ticks_to_floppy_on+0x5a>
		mask &= 0xFC;
    6f40:	83 e0 fc             	and    $0xfffffffc,%eax
		mask |= nr;
    6f43:	09 f0                	or     %esi,%eax
	if (mask != current_DOR) {
    6f45:	38 c1                	cmp    %al,%cl
    6f47:	8d bb 90 1d 00 00    	lea    0x1d90(%ebx),%edi
    6f4d:	74 29                	je     6f78 <ticks_to_floppy_on+0x8d>
		outb(mask, FD_DOR);
    6f4f:	ba f2 03 00 00       	mov    $0x3f2,%edx
    6f54:	ee                   	out    %al,(%dx)
		if ((mask ^ current_DOR) & 0xf0)
    6f55:	31 c1                	xor    %eax,%ecx
    6f57:	80 e1 f0             	and    $0xf0,%cl
    6f5a:	74 09                	je     6f65 <ticks_to_floppy_on+0x7a>
			mon_timer[nr] = HZ / 2;
    6f5c:	c7 04 b7 32 00 00 00 	movl   $0x32,(%edi,%esi,4)
    6f63:	eb 0d                	jmp    6f72 <ticks_to_floppy_on+0x87>
		else if (mon_timer[nr] < 2)
    6f65:	83 3c b7 01          	cmpl   $0x1,(%edi,%esi,4)
    6f69:	7f 07                	jg     6f72 <ticks_to_floppy_on+0x87>
			mon_timer[nr] = 2;
    6f6b:	c7 04 b7 02 00 00 00 	movl   $0x2,(%edi,%esi,4)
		current_DOR = mask;
    6f72:	88 83 60 00 00 00    	mov    %al,0x60(%ebx)
	sti();											// 开中断.
    6f78:	fb                   	sti    
	return mon_timer[nr];							// 最后返回启动马达所需的时间值.
    6f79:	8b 04 b7             	mov    (%edi,%esi,4),%eax
}
    6f7c:	5b                   	pop    %ebx
    6f7d:	5e                   	pop    %esi
    6f7e:	5f                   	pop    %edi
    6f7f:	c3                   	ret    

00006f80 <floppy_on>:
{
    6f80:	56                   	push   %esi
    6f81:	53                   	push   %ebx
    6f82:	e8 f3 2e 00 00       	call   9e7a <__x86.get_pc_thunk.ax>
    6f87:	05 79 a0 01 00       	add    $0x1a079,%eax
    6f8c:	52                   	push   %edx
    6f8d:	8b 5c 24 10          	mov    0x10(%esp),%ebx
	cli();
    6f91:	fa                   	cli    
		sleep_on(nr + wait_motor);
    6f92:	8d b4 98 a0 1d 00 00 	lea    0x1da0(%eax,%ebx,4),%esi
	while (ticks_to_floppy_on(nr))
    6f99:	83 ec 0c             	sub    $0xc,%esp
    6f9c:	53                   	push   %ebx
    6f9d:	e8 49 ff ff ff       	call   6eeb <ticks_to_floppy_on>
    6fa2:	83 c4 10             	add    $0x10,%esp
    6fa5:	85 c0                	test   %eax,%eax
    6fa7:	74 0e                	je     6fb7 <floppy_on+0x37>
		sleep_on(nr + wait_motor);
    6fa9:	83 ec 0c             	sub    $0xc,%esp
    6fac:	56                   	push   %esi
    6fad:	e8 d3 fe ff ff       	call   6e85 <sleep_on>
    6fb2:	83 c4 10             	add    $0x10,%esp
    6fb5:	eb e2                	jmp    6f99 <floppy_on+0x19>
	sti();
    6fb7:	fb                   	sti    
}
    6fb8:	58                   	pop    %eax
    6fb9:	5b                   	pop    %ebx
    6fba:	5e                   	pop    %esi
    6fbb:	c3                   	ret    

00006fbc <floppy_off>:
	moff_timer[nr] = 3 * HZ;
    6fbc:	8b 54 24 04          	mov    0x4(%esp),%edx
    6fc0:	e8 b5 2e 00 00       	call   9e7a <__x86.get_pc_thunk.ax>
    6fc5:	05 3b a0 01 00       	add    $0x1a03b,%eax
    6fca:	c7 84 90 80 1d 00 00 	movl   $0x12c,0x1d80(%eax,%edx,4)
    6fd1:	2c 01 00 00 
}
    6fd5:	c3                   	ret    

00006fd6 <do_floppy_timer>:
{
    6fd6:	57                   	push   %edi
    6fd7:	56                   	push   %esi
	unsigned char mask = 0x10;
    6fd8:	bf 10 00 00 00       	mov    $0x10,%edi
    6fdd:	e8 a0 2e 00 00       	call   9e82 <__x86.get_pc_thunk.si>
    6fe2:	81 c6 1e a0 01 00    	add    $0x1a01e,%esi
{
    6fe8:	53                   	push   %ebx
    6fe9:	31 db                	xor    %ebx,%ebx
		if (!(mask & current_DOR))						// 如果不是DOR指定的马达则跳过.
    6feb:	8a 8e 60 00 00 00    	mov    0x60(%esi),%cl
    6ff1:	89 f8                	mov    %edi,%eax
    6ff3:	84 c1                	test   %al,%cl
    6ff5:	74 53                	je     704a <do_floppy_timer+0x74>
		if (mon_timer[i]) {								// 如果马达启动定时到则唤醒进程.
    6ff7:	8b 94 33 90 1d 00 00 	mov    0x1d90(%ebx,%esi,1),%edx
    6ffe:	85 d2                	test   %edx,%edx
    7000:	74 23                	je     7025 <do_floppy_timer+0x4f>
			if (!--mon_timer[i])
    7002:	8d 42 ff             	lea    -0x1(%edx),%eax
    7005:	85 c0                	test   %eax,%eax
    7007:	89 84 33 90 1d 00 00 	mov    %eax,0x1d90(%ebx,%esi,1)
    700e:	75 3a                	jne    704a <do_floppy_timer+0x74>
				wake_up(i + wait_motor);
    7010:	8d 84 1e a0 1d 00 00 	lea    0x1da0(%esi,%ebx,1),%eax
    7017:	83 ec 0c             	sub    $0xc,%esp
    701a:	50                   	push   %eax
    701b:	e8 73 fe ff ff       	call   6e93 <wake_up>
    7020:	83 c4 10             	add    $0x10,%esp
    7023:	eb 25                	jmp    704a <do_floppy_timer+0x74>
		} else if (!moff_timer[i]) {					// 如果马达停转定时到则复位相应马达启动位,并且更新数字输出寄存器.
    7025:	8b 94 33 80 1d 00 00 	mov    0x1d80(%ebx,%esi,1),%edx
    702c:	85 d2                	test   %edx,%edx
    702e:	75 12                	jne    7042 <do_floppy_timer+0x6c>
			current_DOR &= ~mask;
    7030:	f7 d0                	not    %eax
			outb(current_DOR, FD_DOR);
    7032:	ba f2 03 00 00       	mov    $0x3f2,%edx
			current_DOR &= ~mask;
    7037:	21 c8                	and    %ecx,%eax
    7039:	88 86 60 00 00 00    	mov    %al,0x60(%esi)
			outb(current_DOR, FD_DOR);
    703f:	ee                   	out    %al,(%dx)
    7040:	eb 08                	jmp    704a <do_floppy_timer+0x74>
			moff_timer[i]--;							// 否则马达停转计时递减.
    7042:	4a                   	dec    %edx
    7043:	89 94 33 80 1d 00 00 	mov    %edx,0x1d80(%ebx,%esi,1)
    704a:	83 c3 04             	add    $0x4,%ebx
	for (i = 0 ; i < 4 ; i++, mask <<= 1) {
    704d:	01 ff                	add    %edi,%edi
    704f:	83 fb 10             	cmp    $0x10,%ebx
    7052:	75 97                	jne    6feb <do_floppy_timer+0x15>
}
    7054:	5b                   	pop    %ebx
    7055:	5e                   	pop    %esi
    7056:	5f                   	pop    %edi
    7057:	c3                   	ret    

00007058 <add_timer>:
{
    7058:	55                   	push   %ebp
    7059:	57                   	push   %edi
    705a:	56                   	push   %esi
    705b:	53                   	push   %ebx
    705c:	e8 cb f9 ff ff       	call   6a2c <__x86.get_pc_thunk.bx>
    7061:	81 c3 9f 9f 01 00    	add    $0x19f9f,%ebx
    7067:	83 ec 0c             	sub    $0xc,%esp
    706a:	8b 6c 24 24          	mov    0x24(%esp),%ebp
    706e:	8b 7c 24 20          	mov    0x20(%esp),%edi
	if (!fn)
    7072:	85 ed                	test   %ebp,%ebp
    7074:	74 7c                	je     70f2 <add_timer+0x9a>
	cli();
    7076:	fa                   	cli    
	if (jiffies <= 0)
    7077:	85 ff                	test   %edi,%edi
    7079:	7f 04                	jg     707f <add_timer+0x27>
		(fn)();
    707b:	ff d5                	call   *%ebp
    707d:	eb 72                	jmp    70f1 <add_timer+0x99>
		for (p = timer_list ; p < timer_list + TIME_REQUESTS ; p++)
    707f:	8d b3 80 1a 00 00    	lea    0x1a80(%ebx),%esi
    7085:	8d 83 80 1d 00 00    	lea    0x1d80(%ebx),%eax
			if (!p->fn)
    708b:	83 7e 04 00          	cmpl   $0x0,0x4(%esi)
    708f:	74 09                	je     709a <add_timer+0x42>
		for (p = timer_list ; p < timer_list + TIME_REQUESTS ; p++)
    7091:	83 c6 0c             	add    $0xc,%esi
    7094:	39 c6                	cmp    %eax,%esi
    7096:	75 f3                	jne    708b <add_timer+0x33>
    7098:	eb 04                	jmp    709e <add_timer+0x46>
		if (p >= timer_list + TIME_REQUESTS)
    709a:	39 c6                	cmp    %eax,%esi
    709c:	72 12                	jb     70b0 <add_timer+0x58>
			panic("No more time requests free");
    709e:	8d 83 3d 67 ff ff    	lea    -0x98c3(%ebx),%eax
    70a4:	83 ec 0c             	sub    $0xc,%esp
    70a7:	50                   	push   %eax
    70a8:	e8 25 10 00 00       	call   80d2 <panic>
    70ad:	83 c4 10             	add    $0x10,%esp
		p->next = next_timer;
    70b0:	8b 83 74 1a 00 00    	mov    0x1a74(%ebx),%eax
		p->fn = fn;
    70b6:	89 6e 04             	mov    %ebp,0x4(%esi)
		p->jiffies = jiffies;
    70b9:	89 3e                	mov    %edi,(%esi)
		next_timer = p;
    70bb:	89 b3 74 1a 00 00    	mov    %esi,0x1a74(%ebx)
		p->next = next_timer;
    70c1:	89 46 08             	mov    %eax,0x8(%esi)
		while (p->next && p->next->jiffies < p->jiffies) {
    70c4:	8b 46 08             	mov    0x8(%esi),%eax
    70c7:	85 c0                	test   %eax,%eax
    70c9:	74 26                	je     70f1 <add_timer+0x99>
    70cb:	8b 08                	mov    (%eax),%ecx
    70cd:	8b 16                	mov    (%esi),%edx
    70cf:	39 d1                	cmp    %edx,%ecx
    70d1:	7d 1a                	jge    70ed <add_timer+0x95>
			p->jiffies -= p->next->jiffies;
    70d3:	29 ca                	sub    %ecx,%edx
			p->fn = p->next->fn;
    70d5:	8b 58 04             	mov    0x4(%eax),%ebx
			fn = p->fn;
    70d8:	8b 4e 04             	mov    0x4(%esi),%ecx
			p->jiffies -= p->next->jiffies;
    70db:	89 16                	mov    %edx,(%esi)
			p->fn = p->next->fn;
    70dd:	89 5e 04             	mov    %ebx,0x4(%esi)
			p->next->fn = fn;
    70e0:	89 48 04             	mov    %ecx,0x4(%eax)
			p->jiffies = p->next->jiffies;
    70e3:	8b 08                	mov    (%eax),%ecx
    70e5:	89 0e                	mov    %ecx,(%esi)
			p->next->jiffies = jiffies;
    70e7:	89 10                	mov    %edx,(%eax)
    70e9:	89 c6                	mov    %eax,%esi
    70eb:	eb d7                	jmp    70c4 <add_timer+0x6c>
			p->next->jiffies -= p->jiffies;
    70ed:	29 d1                	sub    %edx,%ecx
    70ef:	89 08                	mov    %ecx,(%eax)
	sti();
    70f1:	fb                   	sti    
}
    70f2:	83 c4 0c             	add    $0xc,%esp
    70f5:	5b                   	pop    %ebx
    70f6:	5e                   	pop    %esi
    70f7:	5f                   	pop    %edi
    70f8:	5d                   	pop    %ebp
    70f9:	c3                   	ret    

000070fa <do_timer>:
{
    70fa:	57                   	push   %edi
    70fb:	56                   	push   %esi
    70fc:	53                   	push   %ebx
    70fd:	8b 74 24 10          	mov    0x10(%esp),%esi
    7101:	e8 26 f9 ff ff       	call   6a2c <__x86.get_pc_thunk.bx>
    7106:	81 c3 fa 9e 01 00    	add    $0x19efa,%ebx
	if (blankcount || !blankinterval) {
    710c:	c7 c7 24 2d 03 00    	mov    $0x32d24,%edi
    7112:	8b 83 70 1a 00 00    	mov    0x1a70(%ebx),%eax
    7118:	83 3f 00             	cmpl   $0x0,(%edi)
    711b:	0f 85 d2 00 00 00    	jne    71f3 <do_timer+0xf9>
    7121:	c7 c2 28 2d 03 00    	mov    $0x32d28,%edx
    7127:	83 3a 00             	cmpl   $0x0,(%edx)
    712a:	0f 84 e8 00 00 00    	je     7218 <do_timer+0x11e>
	} else if (!blanked) {
    7130:	85 c0                	test   %eax,%eax
    7132:	75 0f                	jne    7143 <do_timer+0x49>
		blank_screen();
    7134:	e8 9a d2 00 00       	call   143d3 <blank_screen>
		blanked = 1;
    7139:	c7 83 70 1a 00 00 01 	movl   $0x1,0x1a70(%ebx)
    7140:	00 00 00 
	if (hd_timeout)
    7143:	c7 c2 f0 50 02 00    	mov    $0x250f0,%edx
    7149:	8b 02                	mov    (%edx),%eax
    714b:	85 c0                	test   %eax,%eax
    714d:	74 0c                	je     715b <do_timer+0x61>
		if (!--hd_timeout)
    714f:	48                   	dec    %eax
    7150:	85 c0                	test   %eax,%eax
    7152:	89 02                	mov    %eax,(%edx)
    7154:	75 05                	jne    715b <do_timer+0x61>
			hd_times_out();							// 硬盘访问超时处理(blk_drv/hd.c).
    7156:	e8 81 ac 00 00       	call   11ddc <hd_times_out>
	if (beepcount)									// 扬声器发声时间滴答数(chr_drv/console.c)
    715b:	c7 c2 20 2d 03 00    	mov    $0x32d20,%edx
    7161:	8b 02                	mov    (%edx),%eax
    7163:	85 c0                	test   %eax,%eax
    7165:	74 0c                	je     7173 <do_timer+0x79>
		if (!--beepcount)
    7167:	48                   	dec    %eax
    7168:	85 c0                	test   %eax,%eax
    716a:	89 02                	mov    %eax,(%edx)
    716c:	75 05                	jne    7173 <do_timer+0x79>
			sysbeepstop();
    716e:	e8 d1 d1 00 00       	call   14344 <sysbeepstop>
	if (cpl)
    7173:	85 f6                	test   %esi,%esi
    7175:	8b 83 60 13 00 00    	mov    0x1360(%ebx),%eax
    717b:	74 08                	je     7185 <do_timer+0x8b>
		current->utime++;
    717d:	ff 80 e0 02 00 00    	incl   0x2e0(%eax)
    7183:	eb 06                	jmp    718b <do_timer+0x91>
		current->stime++;
    7185:	ff 80 e4 02 00 00    	incl   0x2e4(%eax)
	if (next_timer) {
    718b:	8b 83 74 1a 00 00    	mov    0x1a74(%ebx),%eax
    7191:	85 c0                	test   %eax,%eax
    7193:	75 10                	jne    71a5 <do_timer+0xab>
	if (current_DOR & 0xf0)
    7195:	f6 83 60 00 00 00 f0 	testb  $0xf0,0x60(%ebx)
    719c:	74 2f                	je     71cd <do_timer+0xd3>
		do_floppy_timer();
    719e:	e8 33 fe ff ff       	call   6fd6 <do_floppy_timer>
    71a3:	eb 28                	jmp    71cd <do_timer+0xd3>
		next_timer->jiffies--;
    71a5:	ff 08                	decl   (%eax)
		while (next_timer && next_timer->jiffies <= 0) {
    71a7:	8b 83 74 1a 00 00    	mov    0x1a74(%ebx),%eax
    71ad:	85 c0                	test   %eax,%eax
    71af:	74 e4                	je     7195 <do_timer+0x9b>
    71b1:	83 38 00             	cmpl   $0x0,(%eax)
    71b4:	7f df                	jg     7195 <do_timer+0x9b>
			fn = next_timer->fn;
    71b6:	8b 50 04             	mov    0x4(%eax),%edx
			next_timer->fn = NULL;
    71b9:	c7 40 04 00 00 00 00 	movl   $0x0,0x4(%eax)
			next_timer = next_timer->next;
    71c0:	8b 40 08             	mov    0x8(%eax),%eax
    71c3:	89 83 74 1a 00 00    	mov    %eax,0x1a74(%ebx)
			(fn)();									// 调用定时处理函数.
    71c9:	ff d2                	call   *%edx
    71cb:	eb da                	jmp    71a7 <do_timer+0xad>
	if ((--current->counter) > 0) return;
    71cd:	8b 93 60 13 00 00    	mov    0x1360(%ebx),%edx
    71d3:	8b 42 04             	mov    0x4(%edx),%eax
    71d6:	48                   	dec    %eax
    71d7:	85 c0                	test   %eax,%eax
    71d9:	7e 05                	jle    71e0 <do_timer+0xe6>
    71db:	89 42 04             	mov    %eax,0x4(%edx)
    71de:	eb 3e                	jmp    721e <do_timer+0x124>
	if (!cpl) return;								// 对于内核态程序,不信赖counter值进行调试.
    71e0:	85 f6                	test   %esi,%esi
	current->counter = 0;
    71e2:	c7 42 04 00 00 00 00 	movl   $0x0,0x4(%edx)
	if (!cpl) return;								// 对于内核态程序,不信赖counter值进行调试.
    71e9:	74 33                	je     721e <do_timer+0x124>
}
    71eb:	5b                   	pop    %ebx
    71ec:	5e                   	pop    %esi
    71ed:	5f                   	pop    %edi
	schedule();
    71ee:	e9 b9 fa ff ff       	jmp    6cac <schedule>
		if (blanked)
    71f3:	85 c0                	test   %eax,%eax
    71f5:	74 1d                	je     7214 <do_timer+0x11a>
			unblank_screen();
    71f7:	e8 d8 d1 00 00       	call   143d4 <unblank_screen>
		if (blankcount)
    71fc:	8b 07                	mov    (%edi),%eax
    71fe:	85 c0                	test   %eax,%eax
    7200:	74 03                	je     7205 <do_timer+0x10b>
			blankcount--;
    7202:	48                   	dec    %eax
    7203:	89 07                	mov    %eax,(%edi)
		blanked = 0;
    7205:	c7 83 70 1a 00 00 00 	movl   $0x0,0x1a70(%ebx)
    720c:	00 00 00 
    720f:	e9 2f ff ff ff       	jmp    7143 <do_timer+0x49>
		if (blankcount)
    7214:	8b 07                	mov    (%edi),%eax
    7216:	eb ea                	jmp    7202 <do_timer+0x108>
		if (blanked)
    7218:	85 c0                	test   %eax,%eax
    721a:	74 e9                	je     7205 <do_timer+0x10b>
    721c:	eb d9                	jmp    71f7 <do_timer+0xfd>
}
    721e:	5b                   	pop    %ebx
    721f:	5e                   	pop    %esi
    7220:	5f                   	pop    %edi
    7221:	c3                   	ret    

00007222 <sched_init>:

// 内核调度程序的初始化子程序
void sched_init(void)
{
    7222:	e8 57 2c 00 00       	call   9e7e <__x86.get_pc_thunk.cx>
    7227:	81 c1 d9 9d 01 00    	add    $0x19dd9,%ecx
    722d:	56                   	push   %esi
    722e:	53                   	push   %ebx
		panic("Struct sigaction MUST be 16 bytes");
	// 在全局描述符表中设置初始任务(任务0)的任务状态段描述符和局部数据表描述符.
	// FIRST_TSS_ENTRY和FIRST_LDT_ENTRY的值分别是4和5,定义在include/linux/sched.h中.gdt是一个描述符表数组(include/linux/head.h),
	// 实际上对应程序head.s中的他已描述符表基址(gdt).因此gdt+FIRST_TSS_ENTRY即为gdt[FIRST_TSS_ENTRY](即是gdt[4]),即gdt数组第4项的地址
	// 参见include/asm/system.h
	set_tss_desc(gdt + FIRST_TSS_ENTRY, &(init_task.task.tss));
    722f:	c7 c2 88 5f 00 00    	mov    $0x5f88,%edx
    7235:	8d 81 b0 04 00 00    	lea    0x4b0(%ecx),%eax
    723b:	66 c7 42 20 68 00    	movw   $0x68,0x20(%edx)
    7241:	66 89 42 22          	mov    %ax,0x22(%edx)
    7245:	c1 c8 10             	ror    $0x10,%eax
    7248:	88 42 24             	mov    %al,0x24(%edx)
    724b:	c6 42 25 89          	movb   $0x89,0x25(%edx)
    724f:	c6 42 26 00          	movb   $0x0,0x26(%edx)
    7253:	88 62 27             	mov    %ah,0x27(%edx)
    7256:	c1 c8 10             	ror    $0x10,%eax
	set_ldt_desc(gdt + FIRST_LDT_ENTRY, &(init_task.task.ldt));
    7259:	8d 81 98 04 00 00    	lea    0x498(%ecx),%eax
    725f:	66 c7 42 28 68 00    	movw   $0x68,0x28(%edx)
    7265:	66 89 42 2a          	mov    %ax,0x2a(%edx)
    7269:	c1 c8 10             	ror    $0x10,%eax
    726c:	88 42 2c             	mov    %al,0x2c(%edx)
    726f:	c6 42 2d 82          	movb   $0x82,0x2d(%edx)
    7273:	c6 42 2e 00          	movb   $0x0,0x2e(%edx)
    7277:	88 62 2f             	mov    %ah,0x2f(%edx)
    727a:	c1 c8 10             	ror    $0x10,%eax
    727d:	31 c0                	xor    %eax,%eax
	// 清任务数组和描述符表项(注意i=1开始,所以初始任务的描述符还在).描述符项结构定义在文件include/linux/head.h中.
	p = gdt + 2 + FIRST_TSS_ENTRY;
	// 初始化除进程一以外的其他进程指针
	for(i = 1; i < NR_TASKS; i++) {
		task[i] = NULL;
    727f:	c7 84 08 64 12 00 00 	movl   $0x0,0x1264(%eax,%ecx,1)
    7286:	00 00 00 00 
    728a:	83 c0 04             	add    $0x4,%eax
		p->a = p->b = 0;
    728d:	c7 42 34 00 00 00 00 	movl   $0x0,0x34(%edx)
    7294:	c7 42 30 00 00 00 00 	movl   $0x0,0x30(%edx)
		p++;
		p->a = p->b = 0;
    729b:	c7 42 3c 00 00 00 00 	movl   $0x0,0x3c(%edx)
    72a2:	83 c2 10             	add    $0x10,%edx
    72a5:	c7 42 28 00 00 00 00 	movl   $0x0,0x28(%edx)
	for(i = 1; i < NR_TASKS; i++) {
    72ac:	3d fc 00 00 00       	cmp    $0xfc,%eax
    72b1:	75 cc                	jne    727f <sched_init+0x5d>
	}
	/* Clear NT, so that we won't have troubles with that later on */
	/* 清除标志寄存器中的位NT,这样以后就不会有麻烦 */
	// EFLAGS中的NT标志位用于控制任务的嵌套调用.当NT位置位时,那么当前中断任务执行IRET指令时就会引起任务切换.NT指出TSS中的back_link字段是否有效.
	// NT=0时无效.
	__asm__("pushfl ; andl $0xffffbfff,(%esp) ; popfl");
    72b3:	9c                   	pushf  
    72b4:	81 24 24 ff bf ff ff 	andl   $0xffffbfff,(%esp)
    72bb:	9d                   	popf   
	// 将任务0的TSS段选择符加载到任务寄存器tr.将局部描述符表段选择符加载到局部描述符表寄存器ldtr中.注意!!是将GDT中相应LDT描述符的选择符加载到ldtr.
	// 只明确加这一次,以后新任务LDT的加载,是CPU根据TSS中的LDT项自动加载.
	ltr(0);								// 定义在include/linux/sched.h
    72bc:	b8 20 00 00 00       	mov    $0x20,%eax
    72c1:	0f 00 d8             	ltr    %ax
	lldt(0);							// 其中参数(0)是任务号.
    72c4:	b8 28 00 00 00       	mov    $0x28,%eax
    72c9:	0f 00 d0             	lldt   %ax
	// 下面代码用于初始化8253定时器.通道0,选择工作方式3,二进制计数方式.通道0的输出引脚接在中断控制主芯片的IRQ0上,它每10毫秒发出一个IRQ0请求.
	// LATCH是初始定时计数值.
	outb_p(0x36, 0x43);					/* binary, mode 3, LSB/MSB, ch 0 */
    72cc:	b8 36 00 00 00       	mov    $0x36,%eax
    72d1:	ba 43 00 00 00       	mov    $0x43,%edx
    72d6:	ee                   	out    %al,(%dx)
    72d7:	eb 00                	jmp    72d9 <sched_init+0xb7>
    72d9:	eb 00                	jmp    72db <sched_init+0xb9>
	outb_p(LATCH & 0xff, 0x40);			/* LSB */	// 定时值低字节
    72db:	ba 40 00 00 00       	mov    $0x40,%edx
    72e0:	b8 9b 00 00 00       	mov    $0x9b,%eax
    72e5:	ee                   	out    %al,(%dx)
    72e6:	eb 00                	jmp    72e8 <sched_init+0xc6>
    72e8:	eb 00                	jmp    72ea <sched_init+0xc8>
	outb(LATCH >> 8, 0x40);				/* MSB */	// 定时值高字节
    72ea:	b8 2e 00 00 00       	mov    $0x2e,%eax
    72ef:	ee                   	out    %al,(%dx)
	// 设置时钟中断处理程序句柄(设置时钟中断门).修改中断控制器屏蔽码,允许时钟中断.
	// 然后设置系统调用中断门.这两个设置中断描述衔表IDT中描述符的宏定义在文件include/asm/system.h中.两者的区别参见system.h文件开始处的说明.
	set_intr_gate(0x20, &timer_interrupt);
    72f0:	be 00 00 08 00       	mov    $0x80000,%esi
    72f5:	c7 c3 88 57 00 00    	mov    $0x5788,%ebx
    72fb:	c7 c2 4c 74 00 00    	mov    $0x744c,%edx
    7301:	89 f0                	mov    %esi,%eax
    7303:	66 89 d0             	mov    %dx,%ax
    7306:	66 ba 00 8e          	mov    $0x8e00,%dx
    730a:	89 83 00 01 00 00    	mov    %eax,0x100(%ebx)
    7310:	89 93 04 01 00 00    	mov    %edx,0x104(%ebx)
	outb(inb_p(0x21) & ~0x01, 0x21);
    7316:	ba 21 00 00 00       	mov    $0x21,%edx
    731b:	ec                   	in     (%dx),%al
    731c:	eb 00                	jmp    731e <sched_init+0xfc>
    731e:	eb 00                	jmp    7320 <sched_init+0xfe>
    7320:	25 fe 00 00 00       	and    $0xfe,%eax
    7325:	ee                   	out    %al,(%dx)
	set_system_gate(0x80, &system_call);
    7326:	c7 c2 54 73 00 00    	mov    $0x7354,%edx
    732c:	89 f0                	mov    %esi,%eax
    732e:	66 89 d0             	mov    %dx,%ax
    7331:	66 ba 00 ef          	mov    $0xef00,%dx
    7335:	89 83 00 04 00 00    	mov    %eax,0x400(%ebx)
    733b:	89 93 04 04 00 00    	mov    %edx,0x404(%ebx)
}
    7341:	5b                   	pop    %ebx
    7342:	5e                   	pop    %esi
    7343:	c3                   	ret    

00007344 <bad_sys_call>:
    7344:	6a da                	push   $0xffffffda
    7346:	eb 50                	jmp    7398 <ret_from_sys_call>

00007348 <reschedule>:
    7348:	68 98 73 00 00       	push   $0x7398
    734d:	e9 5a f9 ff ff       	jmp    6cac <schedule>
    7352:	66 90                	xchg   %ax,%ax

00007354 <system_call>:
    7354:	1e                   	push   %ds
    7355:	06                   	push   %es
    7356:	0f a0                	push   %fs
    7358:	50                   	push   %eax
    7359:	52                   	push   %edx
    735a:	51                   	push   %ecx
    735b:	53                   	push   %ebx
    735c:	ba 10 00 00 00       	mov    $0x10,%edx
    7361:	8e da                	mov    %edx,%ds
    7363:	8e c2                	mov    %edx,%es
    7365:	ba 17 00 00 00       	mov    $0x17,%edx
    736a:	8e e2                	mov    %edx,%fs
    736c:	3b 05 64 10 02 00    	cmp    0x21064,%eax
    7372:	73 d0                	jae    7344 <bad_sys_call>
    7374:	8b 1c 85 00 21 02 00 	mov    0x22100(,%eax,4),%ebx
    737b:	83 fb 00             	cmp    $0x0,%ebx
    737e:	75 05                	jne    7385 <sys_call>
    7380:	e8 d4 1b 00 00       	call   8f59 <sys_default>

00007385 <sys_call>:
    7385:	ff d3                	call   *%ebx
    7387:	50                   	push   %eax
    7388:	a1 60 23 02 00       	mov    0x22360,%eax
    738d:	83 38 00             	cmpl   $0x0,(%eax)
    7390:	75 b6                	jne    7348 <reschedule>
    7392:	83 78 04 00          	cmpl   $0x0,0x4(%eax)
    7396:	74 b0                	je     7348 <reschedule>

00007398 <ret_from_sys_call>:
    7398:	a1 60 23 02 00       	mov    0x22360,%eax
    739d:	3b 05 60 22 02 00    	cmp    0x22260,%eax
    73a3:	74 34                	je     73d9 <ret_from_sys_call+0x41>
    73a5:	66 83 7c 24 24 0f    	cmpw   $0xf,0x24(%esp)
    73ab:	75 2c                	jne    73d9 <ret_from_sys_call+0x41>
    73ad:	66 83 7c 24 30 17    	cmpw   $0x17,0x30(%esp)
    73b3:	75 24                	jne    73d9 <ret_from_sys_call+0x41>
    73b5:	8b 58 0c             	mov    0xc(%eax),%ebx
    73b8:	8b 88 10 02 00 00    	mov    0x210(%eax),%ecx
    73be:	f7 d1                	not    %ecx
    73c0:	21 d9                	and    %ebx,%ecx
    73c2:	0f bc c9             	bsf    %ecx,%ecx
    73c5:	74 12                	je     73d9 <ret_from_sys_call+0x41>
    73c7:	0f b3 cb             	btr    %ecx,%ebx
    73ca:	89 58 0c             	mov    %ebx,0xc(%eax)
    73cd:	41                   	inc    %ecx
    73ce:	51                   	push   %ecx
    73cf:	e8 bd 28 00 00       	call   9c91 <do_signal>
    73d4:	59                   	pop    %ecx
    73d5:	85 c0                	test   %eax,%eax
    73d7:	75 af                	jne    7388 <sys_call+0x3>
    73d9:	58                   	pop    %eax
    73da:	5b                   	pop    %ebx
    73db:	59                   	pop    %ecx
    73dc:	5a                   	pop    %edx
    73dd:	83 c4 04             	add    $0x4,%esp
    73e0:	0f a1                	pop    %fs
    73e2:	07                   	pop    %es
    73e3:	1f                   	pop    %ds
    73e4:	cf                   	iret   
    73e5:	8d 76 00             	lea    0x0(%esi),%esi

000073e8 <coprocessor_error>:
    73e8:	1e                   	push   %ds
    73e9:	06                   	push   %es
    73ea:	0f a0                	push   %fs
    73ec:	6a ff                	push   $0xffffffff
    73ee:	52                   	push   %edx
    73ef:	51                   	push   %ecx
    73f0:	53                   	push   %ebx
    73f1:	50                   	push   %eax
    73f2:	b8 10 00 00 00       	mov    $0x10,%eax
    73f7:	8e d8                	mov    %eax,%ds
    73f9:	8e c0                	mov    %eax,%es
    73fb:	b8 17 00 00 00       	mov    $0x17,%eax
    7400:	8e e0                	mov    %eax,%fs
    7402:	68 98 73 00 00       	push   $0x7398
    7407:	e9 99 ef 00 00       	jmp    163a5 <math_error>

0000740c <device_not_available>:
    740c:	1e                   	push   %ds
    740d:	06                   	push   %es
    740e:	0f a0                	push   %fs
    7410:	6a ff                	push   $0xffffffff
    7412:	52                   	push   %edx
    7413:	51                   	push   %ecx
    7414:	53                   	push   %ebx
    7415:	50                   	push   %eax
    7416:	b8 10 00 00 00       	mov    $0x10,%eax
    741b:	8e d8                	mov    %eax,%ds
    741d:	8e c0                	mov    %eax,%es
    741f:	b8 17 00 00 00       	mov    $0x17,%eax
    7424:	8e e0                	mov    %eax,%fs
    7426:	68 98 73 00 00       	push   $0x7398
    742b:	0f 06                	clts   
    742d:	0f 20 c0             	mov    %cr0,%eax
    7430:	a9 04 00 00 00       	test   $0x4,%eax
    7435:	0f 84 1f f8 ff ff    	je     6c5a <math_state_restore>
    743b:	55                   	push   %ebp
    743c:	56                   	push   %esi
    743d:	57                   	push   %edi
    743e:	6a 00                	push   $0x0
    7440:	e8 40 e0 00 00       	call   15485 <math_emulate>
    7445:	83 c4 04             	add    $0x4,%esp
    7448:	5f                   	pop    %edi
    7449:	5e                   	pop    %esi
    744a:	5d                   	pop    %ebp
    744b:	c3                   	ret    

0000744c <timer_interrupt>:
    744c:	1e                   	push   %ds
    744d:	06                   	push   %es
    744e:	0f a0                	push   %fs
    7450:	6a ff                	push   $0xffffffff
    7452:	52                   	push   %edx
    7453:	51                   	push   %ecx
    7454:	53                   	push   %ebx
    7455:	50                   	push   %eax
    7456:	b8 10 00 00 00       	mov    $0x10,%eax
    745b:	8e d8                	mov    %eax,%ds
    745d:	8e c0                	mov    %eax,%es
    745f:	b8 17 00 00 00       	mov    $0x17,%eax
    7464:	8e e0                	mov    %eax,%fs
    7466:	ff 05 6c 2a 02 00    	incl   0x22a6c
    746c:	b0 20                	mov    $0x20,%al
    746e:	e6 20                	out    %al,$0x20
    7470:	8b 44 24 24          	mov    0x24(%esp),%eax
    7474:	83 e0 03             	and    $0x3,%eax
    7477:	50                   	push   %eax
    7478:	e8 7d fc ff ff       	call   70fa <do_timer>
    747d:	83 c4 04             	add    $0x4,%esp
    7480:	e9 13 ff ff ff       	jmp    7398 <ret_from_sys_call>
    7485:	8d 76 00             	lea    0x0(%esi),%esi

00007488 <sys_execve>:
    7488:	8d 44 24 20          	lea    0x20(%esp),%eax
    748c:	50                   	push   %eax
    748d:	e8 64 62 00 00       	call   d6f6 <do_execve>
    7492:	83 c4 04             	add    $0x4,%esp
    7495:	c3                   	ret    
    7496:	66 90                	xchg   %ax,%ax

00007498 <sys_fork>:
    7498:	e8 d5 0b 00 00       	call   8072 <find_empty_process>
    749d:	85 c0                	test   %eax,%eax
    749f:	78 0e                	js     74af <sys_fork+0x17>
    74a1:	0f a8                	push   %gs
    74a3:	56                   	push   %esi
    74a4:	57                   	push   %edi
    74a5:	55                   	push   %ebp
    74a6:	50                   	push   %eax
    74a7:	e8 b1 08 00 00       	call   7d5d <copy_process>
    74ac:	83 c4 14             	add    $0x14,%esp
    74af:	c3                   	ret    

000074b0 <hd_interrupt>:
    74b0:	50                   	push   %eax
    74b1:	51                   	push   %ecx
    74b2:	52                   	push   %edx
    74b3:	1e                   	push   %ds
    74b4:	06                   	push   %es
    74b5:	0f a0                	push   %fs
    74b7:	b8 10 00 00 00       	mov    $0x10,%eax
    74bc:	8e d8                	mov    %eax,%ds
    74be:	8e c0                	mov    %eax,%es
    74c0:	b8 17 00 00 00       	mov    $0x17,%eax
    74c5:	8e e0                	mov    %eax,%fs
    74c7:	b0 20                	mov    $0x20,%al
    74c9:	e6 a0                	out    %al,$0xa0
    74cb:	eb 00                	jmp    74cd <hd_interrupt+0x1d>
    74cd:	eb 00                	jmp    74cf <hd_interrupt+0x1f>
    74cf:	31 d2                	xor    %edx,%edx
    74d1:	89 15 f0 50 02 00    	mov    %edx,0x250f0
    74d7:	87 15 f4 50 02 00    	xchg   %edx,0x250f4
    74dd:	85 d2                	test   %edx,%edx
    74df:	75 05                	jne    74e6 <hd_interrupt+0x36>
    74e1:	ba ae 1d 01 00       	mov    $0x11dae,%edx
    74e6:	e6 20                	out    %al,$0x20
    74e8:	ff d2                	call   *%edx
    74ea:	0f a1                	pop    %fs
    74ec:	07                   	pop    %es
    74ed:	1f                   	pop    %ds
    74ee:	5a                   	pop    %edx
    74ef:	59                   	pop    %ecx
    74f0:	58                   	pop    %eax
    74f1:	cf                   	iret   

000074f2 <floppy_interrupt>:
    74f2:	50                   	push   %eax
    74f3:	51                   	push   %ecx
    74f4:	52                   	push   %edx
    74f5:	1e                   	push   %ds
    74f6:	06                   	push   %es
    74f7:	0f a0                	push   %fs
    74f9:	b8 10 00 00 00       	mov    $0x10,%eax
    74fe:	8e d8                	mov    %eax,%ds
    7500:	8e c0                	mov    %eax,%es
    7502:	b8 17 00 00 00       	mov    $0x17,%eax
    7507:	8e e0                	mov    %eax,%fs
    7509:	b0 20                	mov    $0x20,%al
    750b:	e6 20                	out    %al,$0x20
    750d:	31 c0                	xor    %eax,%eax
    750f:	87 05 84 50 02 00    	xchg   %eax,0x25084
    7515:	85 c0                	test   %eax,%eax
    7517:	75 05                	jne    751e <floppy_interrupt+0x2c>
    7519:	b8 f4 13 01 00       	mov    $0x113f4,%eax
    751e:	ff d0                	call   *%eax
    7520:	0f a1                	pop    %fs
    7522:	07                   	pop    %es
    7523:	1f                   	pop    %ds
    7524:	5a                   	pop    %edx
    7525:	59                   	pop    %ecx
    7526:	58                   	pop    %eax
    7527:	cf                   	iret   

00007528 <parallel_interrupt>:
    7528:	50                   	push   %eax
    7529:	b0 20                	mov    $0x20,%al
    752b:	e6 20                	out    %al,$0x20
    752d:	58                   	pop    %eax
    752e:	cf                   	iret   

0000752f <die>:
void alignment_check(void);					// int46(kernel/asm.s)

// 该子程序用来打印出错中断的名称,出错号,调用程序的EIP,EFLAGS,ESP,fs段寄存器值,段的基址,段的长度,进程号pid,任务号,10字节指令码.如果
// 堆栈在用户数据段,则还打印16字节堆栈内容.这些信息可用于程序调试.
static void die(char * str, long esp_ptr, long nr)
{
    752f:	55                   	push   %ebp
    7530:	57                   	push   %edi
	long * esp = (long *) esp_ptr;
	int i;

	printk("%s: %04x\n\r",str, nr & 0xffff);
    7531:	0f b7 c9             	movzwl %cx,%ecx
{
    7534:	56                   	push   %esi
    7535:	53                   	push   %ebx
    7536:	89 d6                	mov    %edx,%esi
    7538:	e8 ef f4 ff ff       	call   6a2c <__x86.get_pc_thunk.bx>
    753d:	81 c3 c3 9a 01 00    	add    $0x19ac3,%ebx
    7543:	83 ec 10             	sub    $0x10,%esp
	printk("%s: %04x\n\r",str, nr & 0xffff);
    7546:	51                   	push   %ecx
    7547:	50                   	push   %eax
    7548:	8d 83 58 67 ff ff    	lea    -0x98a8(%ebx),%eax
    754e:	50                   	push   %eax
    754f:	e8 cd 0b 00 00       	call   8121 <printk>
	// 下行打印语句显示当前调用进程的CS:EIP,EFLAGS和SS:ESP的值.
	// (1) EIP:\t%04x:%p\n	-- esp[1]是段选择符(cs),esp[0]是eip
	// (2) EFLAGS:\t%p	-- esp[2]是eflags
	// (2) ESP:\t%04x:%p\n	-- esp[4]是原ss,esp[3]是原esp
	printk("EIP:\t%04x:%p\nEFLAGS:\t%p\nESP:\t%04x:%p\n",
    7554:	59                   	pop    %ecx
    7555:	8d 83 63 67 ff ff    	lea    -0x989d(%ebx),%eax
    755b:	5f                   	pop    %edi
    755c:	ff 76 0c             	pushl  0xc(%esi)
    755f:	ff 76 10             	pushl  0x10(%esi)
    7562:	ff 76 08             	pushl  0x8(%esi)
    7565:	ff 36                	pushl  (%esi)
    7567:	ff 76 04             	pushl  0x4(%esi)
    756a:	50                   	push   %eax
    756b:	e8 b1 0b 00 00       	call   8121 <printk>
		esp[1], esp[0], esp[2], esp[4], esp[3]);
	printk("fs: %04x\n", _fs());
    7570:	83 c4 18             	add    $0x18,%esp
    7573:	66 8c e0             	mov    %fs,%ax
    7576:	0f b7 c0             	movzwl %ax,%eax
    7579:	50                   	push   %eax
    757a:	8d 83 89 67 ff ff    	lea    -0x9877(%ebx),%eax
    7580:	50                   	push   %eax
    7581:	e8 9b 0b 00 00       	call   8121 <printk>
	printk("base: %p, limit: %p\n", get_base(current->ldt[1]), get_limit(0x17));
    7586:	c7 c7 60 23 02 00    	mov    $0x22360,%edi
    758c:	83 c4 0c             	add    $0xc,%esp
    758f:	b8 17 00 00 00       	mov    $0x17,%eax
    7594:	0f 03 c0             	lsl    %ax,%eax
    7597:	40                   	inc    %eax
    7598:	8b 0f                	mov    (%edi),%ecx
    759a:	8a b1 a7 03 00 00    	mov    0x3a7(%ecx),%dh
    75a0:	8a 91 a4 03 00 00    	mov    0x3a4(%ecx),%dl
    75a6:	c1 e2 10             	shl    $0x10,%edx
    75a9:	66 8b 91 a2 03 00 00 	mov    0x3a2(%ecx),%dx
    75b0:	50                   	push   %eax
    75b1:	8d 83 93 67 ff ff    	lea    -0x986d(%ebx),%eax
    75b7:	52                   	push   %edx
    75b8:	50                   	push   %eax
    75b9:	e8 63 0b 00 00       	call   8121 <printk>
	if (esp[4] == 0x17) {						// 或原ss值为0x17(用户栈),则还打印出用户栈的4个长字值(16字节).
    75be:	83 c4 10             	add    $0x10,%esp
    75c1:	83 7e 10 17          	cmpl   $0x17,0x10(%esi)
    75c5:	75 52                	jne    7619 <die+0xea>
		printk("Stack: ");
    75c7:	8d 83 a8 67 ff ff    	lea    -0x9858(%ebx),%eax
    75cd:	83 ec 0c             	sub    $0xc,%esp
    75d0:	31 ed                	xor    %ebp,%ebp
    75d2:	50                   	push   %eax
    75d3:	e8 49 0b 00 00       	call   8121 <printk>
    75d8:	83 c4 10             	add    $0x10,%esp
		for (i = 0; i < 4; i++)
			printk("%p ", get_seg_long(0x17, i + (long *)esp[3]));
    75db:	8b 56 0c             	mov    0xc(%esi),%edx
    75de:	b8 17 00 00 00       	mov    $0x17,%eax
    75e3:	0f a0                	push   %fs
    75e5:	8e e0                	mov    %eax,%fs
    75e7:	64 8b 04 2a          	mov    %fs:(%edx,%ebp,1),%eax
    75eb:	0f a1                	pop    %fs
    75ed:	83 c5 04             	add    $0x4,%ebp
    75f0:	52                   	push   %edx
    75f1:	52                   	push   %edx
    75f2:	50                   	push   %eax
    75f3:	8d 83 b0 67 ff ff    	lea    -0x9850(%ebx),%eax
    75f9:	50                   	push   %eax
    75fa:	e8 22 0b 00 00       	call   8121 <printk>
		for (i = 0; i < 4; i++)
    75ff:	83 c4 10             	add    $0x10,%esp
    7602:	83 fd 10             	cmp    $0x10,%ebp
    7605:	75 d4                	jne    75db <die+0xac>
		printk("\n");
    7607:	8d 83 58 74 ff ff    	lea    -0x8ba8(%ebx),%eax
    760d:	83 ec 0c             	sub    $0xc,%esp
    7610:	50                   	push   %eax
    7611:	e8 0b 0b 00 00       	call   8121 <printk>
    7616:	83 c4 10             	add    $0x10,%esp
	}
	str(i);										// 取当前运行任务的任务号(include/linux/sched.h).
    7619:	31 c0                	xor    %eax,%eax
	printk("Pid: %d, process nr: %d\n\r", current->pid, 0xffff & i);
    761b:	51                   	push   %ecx
	str(i);										// 取当前运行任务的任务号(include/linux/sched.h).
    761c:	66 0f 00 c8          	str    %ax
    7620:	83 e8 20             	sub    $0x20,%eax
    7623:	c1 e8 04             	shr    $0x4,%eax
	printk("Pid: %d, process nr: %d\n\r", current->pid, 0xffff & i);
    7626:	0f b7 c0             	movzwl %ax,%eax
    7629:	50                   	push   %eax
    762a:	8b 07                	mov    (%edi),%eax
                        						// 进程号,任务号.
	for(i = 0; i < 10; i++)
    762c:	31 ff                	xor    %edi,%edi
	printk("Pid: %d, process nr: %d\n\r", current->pid, 0xffff & i);
    762e:	ff b0 2c 02 00 00    	pushl  0x22c(%eax)
    7634:	8d 83 b4 67 ff ff    	lea    -0x984c(%ebx),%eax
    763a:	50                   	push   %eax
    763b:	e8 e1 0a 00 00       	call   8121 <printk>
    7640:	83 c4 10             	add    $0x10,%esp
		printk("%02x ", 0xff & get_seg_byte(esp[1], (i+(char *)esp[0])));
    7643:	8b 16                	mov    (%esi),%edx
    7645:	8b 46 04             	mov    0x4(%esi),%eax
    7648:	0f a0                	push   %fs
    764a:	8e e0                	mov    %eax,%fs
    764c:	64 8a 04 3a          	mov    %fs:(%edx,%edi,1),%al
    7650:	0f a1                	pop    %fs
    7652:	0f b6 c0             	movzbl %al,%eax
	for(i = 0; i < 10; i++)
    7655:	47                   	inc    %edi
		printk("%02x ", 0xff & get_seg_byte(esp[1], (i+(char *)esp[0])));
    7656:	52                   	push   %edx
    7657:	52                   	push   %edx
    7658:	50                   	push   %eax
    7659:	8d 83 ce 67 ff ff    	lea    -0x9832(%ebx),%eax
    765f:	50                   	push   %eax
    7660:	e8 bc 0a 00 00       	call   8121 <printk>
	for(i = 0; i < 10; i++)
    7665:	83 c4 10             	add    $0x10,%esp
    7668:	83 ff 0a             	cmp    $0xa,%edi
    766b:	75 d6                	jne    7643 <die+0x114>
	printk("\n\r");
    766d:	8d 83 42 70 ff ff    	lea    -0x8fbe(%ebx),%eax
    7673:	83 ec 0c             	sub    $0xc,%esp
    7676:	50                   	push   %eax
    7677:	e8 a5 0a 00 00       	call   8121 <printk>
	do_exit(11);								/* play segment exception */
    767c:	c7 04 24 0b 00 00 00 	movl   $0xb,(%esp)
    7683:	e8 62 1f 00 00       	call   95ea <do_exit>
}
    7688:	83 c4 1c             	add    $0x1c,%esp
    768b:	5b                   	pop    %ebx
    768c:	5e                   	pop    %esi
    768d:	5f                   	pop    %edi
    768e:	5d                   	pop    %ebp
    768f:	c3                   	ret    

00007690 <do_double_fault>:

// 以下这些以do_开头的函数是asm.s中对应中断处理程序调用的C函数.
void do_double_fault(long esp, long error_code)
{
    7690:	e8 e5 27 00 00       	call   9e7a <__x86.get_pc_thunk.ax>
    7695:	05 6b 99 01 00       	add    $0x1996b,%eax
	die("double fault", esp, error_code);
    769a:	8b 4c 24 08          	mov    0x8(%esp),%ecx
    769e:	8b 54 24 04          	mov    0x4(%esp),%edx
    76a2:	8d 80 d4 67 ff ff    	lea    -0x982c(%eax),%eax
    76a8:	e9 82 fe ff ff       	jmp    752f <die>

000076ad <do_general_protection>:
}

void do_general_protection(long esp, long error_code)
{
    76ad:	e8 c8 27 00 00       	call   9e7a <__x86.get_pc_thunk.ax>
    76b2:	05 4e 99 01 00       	add    $0x1994e,%eax
	die("general protection", esp, error_code);
    76b7:	8b 4c 24 08          	mov    0x8(%esp),%ecx
    76bb:	8b 54 24 04          	mov    0x4(%esp),%edx
    76bf:	8d 80 e1 67 ff ff    	lea    -0x981f(%eax),%eax
    76c5:	e9 65 fe ff ff       	jmp    752f <die>

000076ca <do_alignment_check>:
}

void do_alignment_check(long esp, long error_code)
{
    76ca:	e8 ab 27 00 00       	call   9e7a <__x86.get_pc_thunk.ax>
    76cf:	05 31 99 01 00       	add    $0x19931,%eax
    die("alignment check", esp, error_code);
    76d4:	8b 4c 24 08          	mov    0x8(%esp),%ecx
    76d8:	8b 54 24 04          	mov    0x4(%esp),%edx
    76dc:	8d 80 f4 67 ff ff    	lea    -0x980c(%eax),%eax
    76e2:	e9 48 fe ff ff       	jmp    752f <die>

000076e7 <do_divide_error>:
}

void do_divide_error(long esp, long error_code)
{
    76e7:	e8 8e 27 00 00       	call   9e7a <__x86.get_pc_thunk.ax>
    76ec:	05 14 99 01 00       	add    $0x19914,%eax
	die("divide error", esp, error_code);
    76f1:	8b 4c 24 08          	mov    0x8(%esp),%ecx
    76f5:	8b 54 24 04          	mov    0x4(%esp),%edx
    76f9:	8d 80 04 68 ff ff    	lea    -0x97fc(%eax),%eax
    76ff:	e9 2b fe ff ff       	jmp    752f <die>

00007704 <do_int3>:
// 参数是进入中断后被顺序压入堆栈的寄存器值.参见asm.s程序.
void do_int3(long * esp, long error_code,
		long fs, long es, long ds,
		long ebp, long esi, long edi,
		long edx, long ecx, long ebx, long eax)
{
    7704:	57                   	push   %edi
    7705:	56                   	push   %esi
	int tr;

	__asm__("str %%ax":"=a" (tr):"0" (0));		// 取任务寄存器值->tr
    7706:	31 ff                	xor    %edi,%edi
{
    7708:	53                   	push   %ebx
	__asm__("str %%ax":"=a" (tr):"0" (0));		// 取任务寄存器值->tr
    7709:	89 f8                	mov    %edi,%eax
{
    770b:	8b 74 24 10          	mov    0x10(%esp),%esi
    770f:	e8 18 f3 ff ff       	call   6a2c <__x86.get_pc_thunk.bx>
    7714:	81 c3 ec 98 01 00    	add    $0x198ec,%ebx
	__asm__("str %%ax":"=a" (tr):"0" (0));		// 取任务寄存器值->tr
    771a:	66 0f 00 c8          	str    %ax
    771e:	89 c7                	mov    %eax,%edi
	printk("eax\t\tebx\t\tecx\t\tedx\n\r%8x\t%8x\t%8x\t%8x\n\r",
    7720:	8d 83 11 68 ff ff    	lea    -0x97ef(%ebx),%eax
    7726:	83 ec 0c             	sub    $0xc,%esp
    7729:	ff 74 24 3c          	pushl  0x3c(%esp)
    772d:	ff 74 24 44          	pushl  0x44(%esp)
    7731:	ff 74 24 4c          	pushl  0x4c(%esp)
    7735:	ff 74 24 54          	pushl  0x54(%esp)
    7739:	50                   	push   %eax
    773a:	e8 e2 09 00 00       	call   8121 <printk>
		eax, ebx, ecx, edx);
	printk("esi\t\tedi\t\tebp\t\tesp\n\r%8x\t%8x\t%8x\t%8x\n\r",
    773f:	8d 83 37 68 ff ff    	lea    -0x97c9(%ebx),%eax
    7745:	83 c4 14             	add    $0x14,%esp
    7748:	56                   	push   %esi
    7749:	ff 74 24 34          	pushl  0x34(%esp)
    774d:	ff 74 24 40          	pushl  0x40(%esp)
    7751:	ff 74 24 40          	pushl  0x40(%esp)
    7755:	50                   	push   %eax
    7756:	e8 c6 09 00 00       	call   8121 <printk>
		esi, edi, ebp, (long) esp);
	printk("\n\rds\tes\tfs\ttr\n\r%4x\t%4x\t%4x\t%4x\n\r",
    775b:	8d 83 5d 68 ff ff    	lea    -0x97a3(%ebx),%eax
    7761:	83 c4 14             	add    $0x14,%esp
    7764:	57                   	push   %edi
    7765:	ff 74 24 28          	pushl  0x28(%esp)
    7769:	ff 74 24 30          	pushl  0x30(%esp)
    776d:	ff 74 24 38          	pushl  0x38(%esp)
    7771:	50                   	push   %eax
    7772:	e8 aa 09 00 00       	call   8121 <printk>
		ds, es, fs, tr);
	printk("EIP: %8x   CS: %4x  EFLAGS: %8x\n\r", esp[0], esp[1], esp[2]);
    7777:	8d 83 7e 68 ff ff    	lea    -0x9782(%ebx),%eax
    777d:	83 c4 20             	add    $0x20,%esp
    7780:	ff 76 08             	pushl  0x8(%esi)
    7783:	ff 76 04             	pushl  0x4(%esi)
    7786:	ff 36                	pushl  (%esi)
    7788:	50                   	push   %eax
    7789:	e8 93 09 00 00       	call   8121 <printk>
}
    778e:	83 c4 10             	add    $0x10,%esp
    7791:	5b                   	pop    %ebx
    7792:	5e                   	pop    %esi
    7793:	5f                   	pop    %edi
    7794:	c3                   	ret    

00007795 <do_nmi>:

void do_nmi(long esp, long error_code)
{
    7795:	e8 e0 26 00 00       	call   9e7a <__x86.get_pc_thunk.ax>
    779a:	05 66 98 01 00       	add    $0x19866,%eax
	die("nmi", esp, error_code);
    779f:	8b 4c 24 08          	mov    0x8(%esp),%ecx
    77a3:	8b 54 24 04          	mov    0x4(%esp),%edx
    77a7:	8d 80 a0 68 ff ff    	lea    -0x9760(%eax),%eax
    77ad:	e9 7d fd ff ff       	jmp    752f <die>

000077b2 <do_debug>:
}

void do_debug(long esp, long error_code)
{
    77b2:	e8 c3 26 00 00       	call   9e7a <__x86.get_pc_thunk.ax>
    77b7:	05 49 98 01 00       	add    $0x19849,%eax
	die("debug", esp, error_code);
    77bc:	8b 4c 24 08          	mov    0x8(%esp),%ecx
    77c0:	8b 54 24 04          	mov    0x4(%esp),%edx
    77c4:	8d 80 a4 68 ff ff    	lea    -0x975c(%eax),%eax
    77ca:	e9 60 fd ff ff       	jmp    752f <die>

000077cf <do_overflow>:
}

void do_overflow(long esp, long error_code)
{
    77cf:	e8 a6 26 00 00       	call   9e7a <__x86.get_pc_thunk.ax>
    77d4:	05 2c 98 01 00       	add    $0x1982c,%eax
	die("overflow", esp, error_code);
    77d9:	8b 4c 24 08          	mov    0x8(%esp),%ecx
    77dd:	8b 54 24 04          	mov    0x4(%esp),%edx
    77e1:	8d 80 aa 68 ff ff    	lea    -0x9756(%eax),%eax
    77e7:	e9 43 fd ff ff       	jmp    752f <die>

000077ec <do_bounds>:
}

void do_bounds(long esp, long error_code)
{
    77ec:	e8 89 26 00 00       	call   9e7a <__x86.get_pc_thunk.ax>
    77f1:	05 0f 98 01 00       	add    $0x1980f,%eax
	die("bounds", esp, error_code);
    77f6:	8b 4c 24 08          	mov    0x8(%esp),%ecx
    77fa:	8b 54 24 04          	mov    0x4(%esp),%edx
    77fe:	8d 80 b3 68 ff ff    	lea    -0x974d(%eax),%eax
    7804:	e9 26 fd ff ff       	jmp    752f <die>

00007809 <do_invalid_op>:
}

void do_invalid_op(long esp, long error_code)
{
    7809:	e8 6c 26 00 00       	call   9e7a <__x86.get_pc_thunk.ax>
    780e:	05 f2 97 01 00       	add    $0x197f2,%eax
	die("invalid operand", esp, error_code);
    7813:	8b 4c 24 08          	mov    0x8(%esp),%ecx
    7817:	8b 54 24 04          	mov    0x4(%esp),%edx
    781b:	8d 80 ba 68 ff ff    	lea    -0x9746(%eax),%eax
    7821:	e9 09 fd ff ff       	jmp    752f <die>

00007826 <do_device_not_available>:
}

void do_device_not_available(long esp, long error_code)
{
    7826:	e8 4f 26 00 00       	call   9e7a <__x86.get_pc_thunk.ax>
    782b:	05 d5 97 01 00       	add    $0x197d5,%eax
	die("device not available", esp, error_code);
    7830:	8b 4c 24 08          	mov    0x8(%esp),%ecx
    7834:	8b 54 24 04          	mov    0x4(%esp),%edx
    7838:	8d 80 ca 68 ff ff    	lea    -0x9736(%eax),%eax
    783e:	e9 ec fc ff ff       	jmp    752f <die>

00007843 <do_coprocessor_segment_overrun>:
}

void do_coprocessor_segment_overrun(long esp, long error_code)
{
    7843:	e8 32 26 00 00       	call   9e7a <__x86.get_pc_thunk.ax>
    7848:	05 b8 97 01 00       	add    $0x197b8,%eax
	die("coprocessor segment overrun", esp, error_code);
    784d:	8b 4c 24 08          	mov    0x8(%esp),%ecx
    7851:	8b 54 24 04          	mov    0x4(%esp),%edx
    7855:	8d 80 df 68 ff ff    	lea    -0x9721(%eax),%eax
    785b:	e9 cf fc ff ff       	jmp    752f <die>

00007860 <do_invalid_TSS>:
}

void do_invalid_TSS(long esp, long error_code)
{
    7860:	e8 15 26 00 00       	call   9e7a <__x86.get_pc_thunk.ax>
    7865:	05 9b 97 01 00       	add    $0x1979b,%eax
	die("invalid TSS", esp, error_code);
    786a:	8b 4c 24 08          	mov    0x8(%esp),%ecx
    786e:	8b 54 24 04          	mov    0x4(%esp),%edx
    7872:	8d 80 fb 68 ff ff    	lea    -0x9705(%eax),%eax
    7878:	e9 b2 fc ff ff       	jmp    752f <die>

0000787d <do_segment_not_present>:
}

void do_segment_not_present(long esp, long error_code)
{
    787d:	e8 f8 25 00 00       	call   9e7a <__x86.get_pc_thunk.ax>
    7882:	05 7e 97 01 00       	add    $0x1977e,%eax
	die("segment not present", esp, error_code);
    7887:	8b 4c 24 08          	mov    0x8(%esp),%ecx
    788b:	8b 54 24 04          	mov    0x4(%esp),%edx
    788f:	8d 80 07 69 ff ff    	lea    -0x96f9(%eax),%eax
    7895:	e9 95 fc ff ff       	jmp    752f <die>

0000789a <do_stack_segment>:
}

void do_stack_segment(long esp, long error_code)
{
    789a:	e8 db 25 00 00       	call   9e7a <__x86.get_pc_thunk.ax>
    789f:	05 61 97 01 00       	add    $0x19761,%eax
	die("stack segment", esp, error_code);
    78a4:	8b 4c 24 08          	mov    0x8(%esp),%ecx
    78a8:	8b 54 24 04          	mov    0x4(%esp),%edx
    78ac:	8d 80 1b 69 ff ff    	lea    -0x96e5(%eax),%eax
    78b2:	e9 78 fc ff ff       	jmp    752f <die>

000078b7 <do_coprocessor_error>:
}

void do_coprocessor_error(long esp, long error_code)
{
    78b7:	e8 be 25 00 00       	call   9e7a <__x86.get_pc_thunk.ax>
    78bc:	05 44 97 01 00       	add    $0x19744,%eax
    78c1:	56                   	push   %esi
    78c2:	53                   	push   %ebx
	if (last_task_used_math != current)
    78c3:	c7 c6 60 2a 02 00    	mov    $0x22a60,%esi
    78c9:	c7 c3 60 23 02 00    	mov    $0x22360,%ebx
{
    78cf:	8b 54 24 0c          	mov    0xc(%esp),%edx
    78d3:	8b 4c 24 10          	mov    0x10(%esp),%ecx
	if (last_task_used_math != current)
    78d7:	8b 1b                	mov    (%ebx),%ebx
    78d9:	39 1e                	cmp    %ebx,(%esi)
    78db:	75 0d                	jne    78ea <do_coprocessor_error+0x33>
		return;
	die("coprocessor error", esp, error_code);
}
    78dd:	5b                   	pop    %ebx
    78de:	5e                   	pop    %esi
	die("coprocessor error", esp, error_code);
    78df:	8d 80 29 69 ff ff    	lea    -0x96d7(%eax),%eax
    78e5:	e9 45 fc ff ff       	jmp    752f <die>
}
    78ea:	5b                   	pop    %ebx
    78eb:	5e                   	pop    %esi
    78ec:	c3                   	ret    

000078ed <do_reserved>:

void do_reserved(long esp, long error_code)
{
    78ed:	e8 88 25 00 00       	call   9e7a <__x86.get_pc_thunk.ax>
    78f2:	05 0e 97 01 00       	add    $0x1970e,%eax
	die("reserved (15,17-47) error", esp, error_code);
    78f7:	8b 4c 24 08          	mov    0x8(%esp),%ecx
    78fb:	8b 54 24 04          	mov    0x4(%esp),%edx
    78ff:	8d 80 3b 69 ff ff    	lea    -0x96c5(%eax),%eax
    7905:	e9 25 fc ff ff       	jmp    752f <die>

0000790a <trap_init>:
// 下面是异常(陷阱)中断程序初始化子程序.设置它们的中断调用门(中断向量).
// set_trap_gate()与set_system_gate()都使用了中断描述符表IDT中的陷阱门(Trap Gate),它们之间的主要区别在于前者设置的特权级为0,
// 后者是3.因此断点陷阱中断int3,溢出中断overflow和边界出错中断bounds可以由任何程序调用.这两个函数均是嵌入式汇编宏程序,参见
// include/asm/system.h
void trap_init(void)
{
    790a:	55                   	push   %ebp
    790b:	57                   	push   %edi
	int i;

	set_trap_gate(0, &divide_error);							// 设置除操作出错的中断向量值.
    790c:	b8 00 00 08 00       	mov    $0x80000,%eax
{
    7911:	56                   	push   %esi
    7912:	53                   	push   %ebx
    7913:	e8 14 f1 ff ff       	call   6a2c <__x86.get_pc_thunk.bx>
    7918:	81 c3 e8 96 01 00    	add    $0x196e8,%ebx
	set_trap_gate(0, &divide_error);							// 设置除操作出错的中断向量值.
    791e:	c7 c1 88 57 00 00    	mov    $0x5788,%ecx
    7924:	c7 c2 0f 7b 00 00    	mov    $0x7b0f,%edx
    792a:	66 89 d0             	mov    %dx,%ax
    792d:	66 ba 00 8f          	mov    $0x8f00,%dx
    7931:	89 01                	mov    %eax,(%ecx)
    7933:	89 51 04             	mov    %edx,0x4(%ecx)
	set_trap_gate(1, &debug);
    7936:	c7 c2 44 7b 00 00    	mov    $0x7b44,%edx
    793c:	66 89 d0             	mov    %dx,%ax
    793f:	66 ba 00 8f          	mov    $0x8f00,%dx
    7943:	89 41 08             	mov    %eax,0x8(%ecx)
    7946:	89 51 0c             	mov    %edx,0xc(%ecx)
	set_trap_gate(2, &nmi);
    7949:	c7 c2 4b 7b 00 00    	mov    $0x7b4b,%edx
    794f:	66 89 d0             	mov    %dx,%ax
    7952:	66 ba 00 8f          	mov    $0x8f00,%dx
    7956:	89 41 10             	mov    %eax,0x10(%ecx)
    7959:	89 51 14             	mov    %edx,0x14(%ecx)
	set_system_gate(3, &int3);									/* int3-5 can be called from all */
    795c:	c7 c2 52 7b 00 00    	mov    $0x7b52,%edx
    7962:	66 89 d0             	mov    %dx,%ax
    7965:	66 ba 00 ef          	mov    $0xef00,%dx
    7969:	89 41 18             	mov    %eax,0x18(%ecx)
    796c:	89 51 1c             	mov    %edx,0x1c(%ecx)
	set_system_gate(4, &overflow);
    796f:	c7 c2 59 7b 00 00    	mov    $0x7b59,%edx
    7975:	66 89 d0             	mov    %dx,%ax
    7978:	66 ba 00 ef          	mov    $0xef00,%dx
    797c:	89 41 20             	mov    %eax,0x20(%ecx)
    797f:	89 51 24             	mov    %edx,0x24(%ecx)
	set_system_gate(5, &bounds);
    7982:	c7 c2 60 7b 00 00    	mov    $0x7b60,%edx
    7988:	66 89 d0             	mov    %dx,%ax
    798b:	66 ba 00 ef          	mov    $0xef00,%dx
    798f:	89 41 28             	mov    %eax,0x28(%ecx)
    7992:	89 51 2c             	mov    %edx,0x2c(%ecx)
	set_trap_gate(6, &invalid_op);
    7995:	c7 c2 67 7b 00 00    	mov    $0x7b67,%edx
    799b:	66 89 d0             	mov    %dx,%ax
    799e:	66 ba 00 8f          	mov    $0x8f00,%dx
    79a2:	89 41 30             	mov    %eax,0x30(%ecx)
    79a5:	89 51 34             	mov    %edx,0x34(%ecx)
	set_trap_gate(7, &device_not_available);					// 函数未实现
    79a8:	c7 c2 0c 74 00 00    	mov    $0x740c,%edx
    79ae:	66 89 d0             	mov    %dx,%ax
    79b1:	66 ba 00 8f          	mov    $0x8f00,%dx
    79b5:	89 41 38             	mov    %eax,0x38(%ecx)
    79b8:	89 51 3c             	mov    %edx,0x3c(%ecx)
	set_trap_gate(8, &double_fault);
    79bb:	c7 c2 91 7b 00 00    	mov    $0x7b91,%edx
    79c1:	66 89 d0             	mov    %dx,%ax
    79c4:	66 ba 00 8f          	mov    $0x8f00,%dx
    79c8:	89 41 40             	mov    %eax,0x40(%ecx)
    79cb:	89 51 44             	mov    %edx,0x44(%ecx)
	set_trap_gate(9, &coprocessor_segment_overrun);
    79ce:	c7 c2 6e 7b 00 00    	mov    $0x7b6e,%edx
    79d4:	66 89 d0             	mov    %dx,%ax
    79d7:	66 ba 00 8f          	mov    $0x8f00,%dx
    79db:	89 41 48             	mov    %eax,0x48(%ecx)
    79de:	89 51 4c             	mov    %edx,0x4c(%ecx)
	set_trap_gate(10, &invalid_TSS);
    79e1:	c7 c2 c8 7b 00 00    	mov    $0x7bc8,%edx
    79e7:	66 89 d0             	mov    %dx,%ax
    79ea:	66 ba 00 8f          	mov    $0x8f00,%dx
    79ee:	89 41 50             	mov    %eax,0x50(%ecx)
    79f1:	89 51 54             	mov    %edx,0x54(%ecx)
	set_trap_gate(11, &segment_not_present);
    79f4:	c7 c2 cf 7b 00 00    	mov    $0x7bcf,%edx
    79fa:	66 89 d0             	mov    %dx,%ax
    79fd:	66 ba 00 8f          	mov    $0x8f00,%dx
    7a01:	89 41 58             	mov    %eax,0x58(%ecx)
    7a04:	89 51 5c             	mov    %edx,0x5c(%ecx)
	set_trap_gate(12, &stack_segment);
    7a07:	c7 c2 d6 7b 00 00    	mov    $0x7bd6,%edx
    7a0d:	66 89 d0             	mov    %dx,%ax
    7a10:	66 ba 00 8f          	mov    $0x8f00,%dx
    7a14:	89 41 60             	mov    %eax,0x60(%ecx)
    7a17:	89 51 64             	mov    %edx,0x64(%ecx)
	set_trap_gate(13, &general_protection);
    7a1a:	c7 c2 dd 7b 00 00    	mov    $0x7bdd,%edx
    7a20:	66 89 d0             	mov    %dx,%ax
    7a23:	66 ba 00 8f          	mov    $0x8f00,%dx
    7a27:	89 41 68             	mov    %eax,0x68(%ecx)
    7a2a:	89 51 6c             	mov    %edx,0x6c(%ecx)
	set_trap_gate(14, &page_fault);
    7a2d:	c7 c2 ac ad 00 00    	mov    $0xadac,%edx
    7a33:	66 89 d0             	mov    %dx,%ax
    7a36:	66 ba 00 8f          	mov    $0x8f00,%dx
    7a3a:	89 41 70             	mov    %eax,0x70(%ecx)
    7a3d:	89 51 74             	mov    %edx,0x74(%ecx)
	set_trap_gate(15, &reserved);
    7a40:	c7 c7 75 7b 00 00    	mov    $0x7b75,%edi
    7a46:	89 fa                	mov    %edi,%edx
    7a48:	66 89 d0             	mov    %dx,%ax
    7a4b:	66 ba 00 8f          	mov    $0x8f00,%dx
    7a4f:	89 41 78             	mov    %eax,0x78(%ecx)
    7a52:	89 51 7c             	mov    %edx,0x7c(%ecx)
	set_trap_gate(16, &coprocessor_error);						// 函数未实现
    7a55:	c7 c2 e8 73 00 00    	mov    $0x73e8,%edx
    7a5b:	66 89 d0             	mov    %dx,%ax
    7a5e:	66 ba 00 8f          	mov    $0x8f00,%dx
    7a62:	89 81 80 00 00 00    	mov    %eax,0x80(%ecx)
    7a68:	89 91 84 00 00 00    	mov    %edx,0x84(%ecx)
	set_trap_gate(17, &alignment_check);
    7a6e:	c7 c2 e4 7b 00 00    	mov    $0x7be4,%edx
    7a74:	66 89 d0             	mov    %dx,%ax
    7a77:	66 ba 00 8f          	mov    $0x8f00,%dx
    7a7b:	89 81 88 00 00 00    	mov    %eax,0x88(%ecx)
    7a81:	89 91 8c 00 00 00    	mov    %edx,0x8c(%ecx)
    7a87:	31 f6                	xor    %esi,%esi
	// 下面把int17-47的陷阱门先均设置为reserved,以后各硬件初始化时会重新设置自己的陷阱门.
	for (i = 18; i < 48; i++)
		set_trap_gate(i, &reserved);
    7a89:	bd 00 00 08 00       	mov    $0x80000,%ebp
    7a8e:	89 fa                	mov    %edi,%edx
    7a90:	89 e8                	mov    %ebp,%eax
    7a92:	66 89 d0             	mov    %dx,%ax
    7a95:	66 ba 00 8f          	mov    $0x8f00,%dx
    7a99:	89 84 31 90 00 00 00 	mov    %eax,0x90(%ecx,%esi,1)
    7aa0:	89 94 31 94 00 00 00 	mov    %edx,0x94(%ecx,%esi,1)
    7aa7:	83 c6 08             	add    $0x8,%esi
	for (i = 18; i < 48; i++)
    7aaa:	81 fe f0 00 00 00    	cmp    $0xf0,%esi
    7ab0:	75 dc                	jne    7a8e <trap_init+0x184>
	// 设置协处理器中断0x2d(45)陷阱门描述符,并允许其产生中断请求.设置并行口中断描述符.
	set_trap_gate(45, &irq13);
    7ab2:	c7 c2 7c 7b 00 00    	mov    $0x7b7c,%edx
    7ab8:	66 89 d0             	mov    %dx,%ax
    7abb:	66 ba 00 8f          	mov    $0x8f00,%dx
    7abf:	89 81 68 01 00 00    	mov    %eax,0x168(%ecx)
    7ac5:	89 91 6c 01 00 00    	mov    %edx,0x16c(%ecx)
	outb_p(inb_p(0x21)&0xfb, 0x21);								// 允许8259A主芯片的IRQ2中断请求(连接从芯片)
    7acb:	ba 21 00 00 00       	mov    $0x21,%edx
    7ad0:	ec                   	in     (%dx),%al
    7ad1:	eb 00                	jmp    7ad3 <trap_init+0x1c9>
    7ad3:	eb 00                	jmp    7ad5 <trap_init+0x1cb>
    7ad5:	25 fb 00 00 00       	and    $0xfb,%eax
    7ada:	ee                   	out    %al,(%dx)
    7adb:	eb 00                	jmp    7add <trap_init+0x1d3>
    7add:	eb 00                	jmp    7adf <trap_init+0x1d5>
	outb(inb_p(0xA1)&0xdf, 0xA1);								// 允许8259A从芯片的IRQ13中断请求(协处理器中断)
    7adf:	ba a1 00 00 00       	mov    $0xa1,%edx
    7ae4:	ec                   	in     (%dx),%al
    7ae5:	eb 00                	jmp    7ae7 <trap_init+0x1dd>
    7ae7:	eb 00                	jmp    7ae9 <trap_init+0x1df>
    7ae9:	25 df 00 00 00       	and    $0xdf,%eax
    7aee:	ee                   	out    %al,(%dx)
	set_trap_gate(39, &parallel_interrupt);						// 设置并行口1的中断0x27陷阱门描述符.
    7aef:	c7 c2 28 75 00 00    	mov    $0x7528,%edx
    7af5:	89 e8                	mov    %ebp,%eax
    7af7:	66 89 d0             	mov    %dx,%ax
    7afa:	66 ba 00 8f          	mov    $0x8f00,%dx
    7afe:	89 81 38 01 00 00    	mov    %eax,0x138(%ecx)
    7b04:	89 91 3c 01 00 00    	mov    %edx,0x13c(%ecx)
}
    7b0a:	5b                   	pop    %ebx
    7b0b:	5e                   	pop    %esi
    7b0c:	5f                   	pop    %edi
    7b0d:	5d                   	pop    %ebp
    7b0e:	c3                   	ret    

00007b0f <divide_error>:
    7b0f:	68 e7 76 00 00       	push   $0x76e7

00007b14 <no_error_code>:
    7b14:	87 04 24             	xchg   %eax,(%esp)
    7b17:	53                   	push   %ebx
    7b18:	51                   	push   %ecx
    7b19:	52                   	push   %edx
    7b1a:	57                   	push   %edi
    7b1b:	56                   	push   %esi
    7b1c:	55                   	push   %ebp
    7b1d:	1e                   	push   %ds
    7b1e:	06                   	push   %es
    7b1f:	0f a0                	push   %fs
    7b21:	6a 00                	push   $0x0
    7b23:	8d 54 24 2c          	lea    0x2c(%esp),%edx
    7b27:	52                   	push   %edx
    7b28:	ba 10 00 00 00       	mov    $0x10,%edx
    7b2d:	8e da                	mov    %edx,%ds
    7b2f:	8e c2                	mov    %edx,%es
    7b31:	8e e2                	mov    %edx,%fs
    7b33:	ff d0                	call   *%eax
    7b35:	83 c4 08             	add    $0x8,%esp
    7b38:	0f a1                	pop    %fs
    7b3a:	07                   	pop    %es
    7b3b:	1f                   	pop    %ds
    7b3c:	5d                   	pop    %ebp
    7b3d:	5e                   	pop    %esi
    7b3e:	5f                   	pop    %edi
    7b3f:	5a                   	pop    %edx
    7b40:	59                   	pop    %ecx
    7b41:	5b                   	pop    %ebx
    7b42:	58                   	pop    %eax
    7b43:	cf                   	iret   

00007b44 <debug>:
    7b44:	68 04 77 00 00       	push   $0x7704
    7b49:	eb c9                	jmp    7b14 <no_error_code>

00007b4b <nmi>:
    7b4b:	68 95 77 00 00       	push   $0x7795
    7b50:	eb c2                	jmp    7b14 <no_error_code>

00007b52 <int3>:
    7b52:	68 04 77 00 00       	push   $0x7704
    7b57:	eb bb                	jmp    7b14 <no_error_code>

00007b59 <overflow>:
    7b59:	68 cf 77 00 00       	push   $0x77cf
    7b5e:	eb b4                	jmp    7b14 <no_error_code>

00007b60 <bounds>:
    7b60:	68 ec 77 00 00       	push   $0x77ec
    7b65:	eb ad                	jmp    7b14 <no_error_code>

00007b67 <invalid_op>:
    7b67:	68 09 78 00 00       	push   $0x7809
    7b6c:	eb a6                	jmp    7b14 <no_error_code>

00007b6e <coprocessor_segment_overrun>:
    7b6e:	68 43 78 00 00       	push   $0x7843
    7b73:	eb 9f                	jmp    7b14 <no_error_code>

00007b75 <reserved>:
    7b75:	68 ed 78 00 00       	push   $0x78ed
    7b7a:	eb 98                	jmp    7b14 <no_error_code>

00007b7c <irq13>:
    7b7c:	50                   	push   %eax
    7b7d:	30 c0                	xor    %al,%al
    7b7f:	e6 f0                	out    %al,$0xf0
    7b81:	b0 20                	mov    $0x20,%al
    7b83:	e6 20                	out    %al,$0x20
    7b85:	eb 00                	jmp    7b87 <irq13+0xb>
    7b87:	eb 00                	jmp    7b89 <irq13+0xd>
    7b89:	e6 a0                	out    %al,$0xa0
    7b8b:	58                   	pop    %eax
    7b8c:	e9 57 f8 ff ff       	jmp    73e8 <coprocessor_error>

00007b91 <double_fault>:
    7b91:	68 90 76 00 00       	push   $0x7690

00007b96 <error_code>:
    7b96:	87 44 24 04          	xchg   %eax,0x4(%esp)
    7b9a:	87 1c 24             	xchg   %ebx,(%esp)
    7b9d:	51                   	push   %ecx
    7b9e:	52                   	push   %edx
    7b9f:	57                   	push   %edi
    7ba0:	56                   	push   %esi
    7ba1:	55                   	push   %ebp
    7ba2:	1e                   	push   %ds
    7ba3:	06                   	push   %es
    7ba4:	0f a0                	push   %fs
    7ba6:	50                   	push   %eax
    7ba7:	8d 44 24 2c          	lea    0x2c(%esp),%eax
    7bab:	50                   	push   %eax
    7bac:	b8 10 00 00 00       	mov    $0x10,%eax
    7bb1:	8e d8                	mov    %eax,%ds
    7bb3:	8e c0                	mov    %eax,%es
    7bb5:	8e e0                	mov    %eax,%fs
    7bb7:	ff d3                	call   *%ebx
    7bb9:	83 c4 08             	add    $0x8,%esp
    7bbc:	0f a1                	pop    %fs
    7bbe:	07                   	pop    %es
    7bbf:	1f                   	pop    %ds
    7bc0:	5d                   	pop    %ebp
    7bc1:	5e                   	pop    %esi
    7bc2:	5f                   	pop    %edi
    7bc3:	5a                   	pop    %edx
    7bc4:	59                   	pop    %ecx
    7bc5:	5b                   	pop    %ebx
    7bc6:	58                   	pop    %eax
    7bc7:	cf                   	iret   

00007bc8 <invalid_TSS>:
    7bc8:	68 60 78 00 00       	push   $0x7860
    7bcd:	eb c7                	jmp    7b96 <error_code>

00007bcf <segment_not_present>:
    7bcf:	68 7d 78 00 00       	push   $0x787d
    7bd4:	eb c0                	jmp    7b96 <error_code>

00007bd6 <stack_segment>:
    7bd6:	68 9a 78 00 00       	push   $0x789a
    7bdb:	eb b9                	jmp    7b96 <error_code>

00007bdd <general_protection>:
    7bdd:	68 ad 76 00 00       	push   $0x76ad
    7be2:	eb b2                	jmp    7b96 <error_code>

00007be4 <alignment_check>:
    7be4:	68 ca 76 00 00       	push   $0x76ca
    7be9:	eb ab                	jmp    7b96 <error_code>

00007beb <verify_area>:
// 可以通过设置该标志来达到使用本函数同样的目的.该函数对当前进程逻辑地址从addr到addr + size这一段范围以页为单位执行写操作前
// 的检测操作.由于检测判断是以页面为单位进行操作,因此程序首先需要找出addr所在页面开始地址start,然后start加上进程数据段基址,
// 使这个start变换成CPU 4GB线性空间中的地址.最后循环调用write_verify()对指定大小的内存空间进行写前验证.若页面是只读的,
// 则执行共享检验和复制页面操作(写时复制).
void verify_area(void * addr, int size)
{
    7beb:	55                   	push   %ebp
    7bec:	57                   	push   %edi
    7bed:	56                   	push   %esi
    7bee:	53                   	push   %ebx
    7bef:	e8 38 ee ff ff       	call   6a2c <__x86.get_pc_thunk.bx>
    7bf4:	81 c3 0c 94 01 00    	add    $0x1940c,%ebx
    7bfa:	83 ec 0c             	sub    $0xc,%esp
    7bfd:	8b 74 24 20          	mov    0x20(%esp),%esi
	start = (unsigned long) addr;
	size += start & 0xfff;
	start &= 0xfffff000;					// 此时start是当前进程空间中的逻辑地址.
	// 下面把start加上进程数据段在线性地址空间中的起始基址,变成系统整个线性空间中的地址位置.对于Linux0.1x内核,其数据段和代码段在
	// 线性地址空间中的基址和限长均相同.然后循环进行写页面验证.若页面不可写,则复制页面.(mm/memory.c)
	start += get_base(current->ldt[2]);
    7c01:	c7 c0 60 23 02 00    	mov    $0x22360,%eax
	size += start & 0xfff;
    7c07:	89 f5                	mov    %esi,%ebp
	start &= 0xfffff000;					// 此时start是当前进程空间中的逻辑地址.
    7c09:	81 e6 00 f0 ff ff    	and    $0xfffff000,%esi
	start += get_base(current->ldt[2]);
    7c0f:	8b 00                	mov    (%eax),%eax
	size += start & 0xfff;
    7c11:	81 e5 ff 0f 00 00    	and    $0xfff,%ebp
    7c17:	03 6c 24 24          	add    0x24(%esp),%ebp
	start += get_base(current->ldt[2]);
    7c1b:	8a b0 af 03 00 00    	mov    0x3af(%eax),%dh
    7c21:	8a 90 ac 03 00 00    	mov    0x3ac(%eax),%dl
    7c27:	c1 e2 10             	shl    $0x10,%edx
    7c2a:	66 8b 90 aa 03 00 00 	mov    0x3aa(%eax),%dx
    7c31:	01 d6                	add    %edx,%esi
	size += start & 0xfff;
    7c33:	89 ef                	mov    %ebp,%edi
    7c35:	8d 44 35 00          	lea    0x0(%ebp,%esi,1),%eax
    7c39:	29 f8                	sub    %edi,%eax
	while (size > 0) {
    7c3b:	85 ff                	test   %edi,%edi
    7c3d:	7e 14                	jle    7c53 <verify_area+0x68>
		size -= 4096;
		write_verify(start);				// include/linux/sched.h
    7c3f:	83 ec 0c             	sub    $0xc,%esp
		size -= 4096;
    7c42:	81 ef 00 10 00 00    	sub    $0x1000,%edi
		write_verify(start);				// include/linux/sched.h
    7c48:	50                   	push   %eax
    7c49:	e8 7f 27 00 00       	call   a3cd <write_verify>
    7c4e:	83 c4 10             	add    $0x10,%esp
    7c51:	eb e2                	jmp    7c35 <verify_area+0x4a>
		start += 4096;
	}
}
    7c53:	83 c4 0c             	add    $0xc,%esp
    7c56:	5b                   	pop    %ebx
    7c57:	5e                   	pop    %esi
    7c58:	5f                   	pop    %edi
    7c59:	5d                   	pop    %ebp
    7c5a:	c3                   	ret    

00007c5b <copy_mem>:
// 复制内存页表.
// 参数nr是新任务号;p是新任务数据结构指针.该函数为新任务在线性地址空间中设置代码段和数据段基址,限长,并复制页表.由于Linux系统采用写时
// 复制(copy on write)技术,因此这里仅为新进程设置自己的页目录表项和页表项,而没有实际为新进程分配物理内存页面.此时新进程与其父进程
// 共享所有内存页面.操作成功返回0,否则返回出错号.
int copy_mem(int nr, struct task_struct * p)
{
    7c5b:	55                   	push   %ebp
    7c5c:	57                   	push   %edi

	// 首先取当前进程局部描述符表中代码段描述符和数据段描述符项中的段限长(字节数).
	// 0x0f是代码段选择符;0x17是数据段选择符.然后取当前进程代码段和数据段的线性地址空间中的基地址.由于Linux0.12内核还不支持代码和数据段分立的情况,
	// 因此这里需要检查代码段和数据段基址是否都相同,并且要求数据段的长度至少不小于代码段的长度,否则内核显示出错信息,并停止运行.
	// get_limit()和get_base()定义在include/linux/sched.h.
	code_limit = get_limit(0x0f);
    7c5d:	bf 0f 00 00 00       	mov    $0xf,%edi
{
    7c62:	56                   	push   %esi
    7c63:	53                   	push   %ebx
	data_limit = get_limit(0x17);
    7c64:	be 17 00 00 00       	mov    $0x17,%esi
    7c69:	e8 be ed ff ff       	call   6a2c <__x86.get_pc_thunk.bx>
    7c6e:	81 c3 92 93 01 00    	add    $0x19392,%ebx
{
    7c74:	83 ec 1c             	sub    $0x1c,%esp
	old_code_base = get_base(current->ldt[1]);
    7c77:	c7 c2 60 23 02 00    	mov    $0x22360,%edx
{
    7c7d:	8b 44 24 34          	mov    0x34(%esp),%eax
	code_limit = get_limit(0x0f);
    7c81:	0f 03 ff             	lsl    %di,%edi
    7c84:	47                   	inc    %edi
	data_limit = get_limit(0x17);
    7c85:	0f 03 f6             	lsl    %si,%esi
    7c88:	46                   	inc    %esi
	old_code_base = get_base(current->ldt[1]);
    7c89:	8b 2a                	mov    (%edx),%ebp
    7c8b:	8a b5 a7 03 00 00    	mov    0x3a7(%ebp),%dh
    7c91:	8a 95 a4 03 00 00    	mov    0x3a4(%ebp),%dl
    7c97:	c1 e2 10             	shl    $0x10,%edx
    7c9a:	66 8b 95 a2 03 00 00 	mov    0x3a2(%ebp),%dx
    7ca1:	89 d1                	mov    %edx,%ecx
	old_data_base = get_base(current->ldt[2]);
    7ca3:	8a b5 af 03 00 00    	mov    0x3af(%ebp),%dh
    7ca9:	8a 95 ac 03 00 00    	mov    0x3ac(%ebp),%dl
    7caf:	c1 e2 10             	shl    $0x10,%edx
    7cb2:	66 8b 95 aa 03 00 00 	mov    0x3aa(%ebp),%dx
	if (old_data_base != old_code_base)
    7cb9:	39 d1                	cmp    %edx,%ecx
	old_data_base = get_base(current->ldt[2]);
    7cbb:	89 d5                	mov    %edx,%ebp
	if (old_data_base != old_code_base)
    7cbd:	74 1a                	je     7cd9 <copy_mem+0x7e>
		panic("We don't support separate I&D");
    7cbf:	8d 93 55 69 ff ff    	lea    -0x96ab(%ebx),%edx
    7cc5:	89 44 24 0c          	mov    %eax,0xc(%esp)
    7cc9:	83 ec 0c             	sub    $0xc,%esp
    7ccc:	52                   	push   %edx
    7ccd:	e8 00 04 00 00       	call   80d2 <panic>
    7cd2:	83 c4 10             	add    $0x10,%esp
    7cd5:	8b 44 24 0c          	mov    0xc(%esp),%eax
	if (data_limit < code_limit)
    7cd9:	39 f7                	cmp    %esi,%edi
    7cdb:	76 1a                	jbe    7cf7 <copy_mem+0x9c>
		panic("Bad data_limit");
    7cdd:	8d 93 73 69 ff ff    	lea    -0x968d(%ebx),%edx
    7ce3:	89 44 24 0c          	mov    %eax,0xc(%esp)
    7ce7:	83 ec 0c             	sub    $0xc,%esp
    7cea:	52                   	push   %edx
    7ceb:	e8 e2 03 00 00       	call   80d2 <panic>
    7cf0:	83 c4 10             	add    $0x10,%esp
    7cf3:	8b 44 24 0c          	mov    0xc(%esp),%eax
	// 然后设置创建中的新进程在线性地址空间中的基地址等于(64MB*其任务号),并用该值设置新进程局部描述符表中段描述符中的基地址.接着设置新进程的页目录
	// 表项和页表项,即复制当前进程(父进程)的页目录表项和页表项.此时子进程共享父进程的内存页面.
	// 正常情况下copy_page_tables()返回0,否则表示出错,则释放刚申请的页表项.
	new_data_base = new_code_base = nr * TASK_SIZE;
    7cf7:	8b 7c 24 30          	mov    0x30(%esp),%edi
    7cfb:	c1 e7 1a             	shl    $0x1a,%edi
	p->start_code = new_code_base;
    7cfe:	89 b8 18 02 00 00    	mov    %edi,0x218(%eax)
	set_base(p->ldt[1], new_code_base);
    7d04:	89 fa                	mov    %edi,%edx
    7d06:	66 89 90 a2 03 00 00 	mov    %dx,0x3a2(%eax)
    7d0d:	c1 ca 10             	ror    $0x10,%edx
    7d10:	88 90 a4 03 00 00    	mov    %dl,0x3a4(%eax)
    7d16:	88 b0 a7 03 00 00    	mov    %dh,0x3a7(%eax)
	set_base(p->ldt[2], new_data_base);
    7d1c:	89 fa                	mov    %edi,%edx
    7d1e:	66 89 90 aa 03 00 00 	mov    %dx,0x3aa(%eax)
    7d25:	c1 ca 10             	ror    $0x10,%edx
    7d28:	88 90 ac 03 00 00    	mov    %dl,0x3ac(%eax)
    7d2e:	88 b0 af 03 00 00    	mov    %dh,0x3af(%eax)
	if (copy_page_tables(old_data_base, new_data_base, data_limit)) {
    7d34:	52                   	push   %edx
    7d35:	56                   	push   %esi
    7d36:	57                   	push   %edi
    7d37:	55                   	push   %ebp
    7d38:	e8 54 23 00 00       	call   a091 <copy_page_tables>
    7d3d:	83 c4 10             	add    $0x10,%esp
    7d40:	85 c0                	test   %eax,%eax
    7d42:	74 11                	je     7d55 <copy_mem+0xfa>
		free_page_tables(new_data_base, data_limit);
    7d44:	50                   	push   %eax
    7d45:	50                   	push   %eax
    7d46:	56                   	push   %esi
    7d47:	57                   	push   %edi
    7d48:	e8 6e 22 00 00       	call   9fbb <free_page_tables>
		return -ENOMEM;
    7d4d:	83 c4 10             	add    $0x10,%esp
    7d50:	b8 f4 ff ff ff       	mov    $0xfffffff4,%eax
	}
	return 0;
}
    7d55:	83 c4 1c             	add    $0x1c,%esp
    7d58:	5b                   	pop    %ebx
    7d59:	5e                   	pop    %esi
    7d5a:	5f                   	pop    %edi
    7d5b:	5d                   	pop    %ebp
    7d5c:	c3                   	ret    

00007d5d <copy_process>:
// 其中参数nr是调用find_empty_process()分配的任务数组项号.
int copy_process(int nr, long ebp, long edi, long esi, long gs, long none,
		long ebx, long ecx, long edx, long orig_eax,
		long fs, long es, long ds,
		long eip, long cs, long eflags, long esp, long ss)
{
    7d5d:	55                   	push   %ebp
    7d5e:	57                   	push   %edi
    7d5f:	56                   	push   %esi
    7d60:	53                   	push   %ebx
    7d61:	e8 c6 ec ff ff       	call   6a2c <__x86.get_pc_thunk.bx>
    7d66:	81 c3 9a 92 01 00    	add    $0x1929a,%ebx
    7d6c:	83 ec 1c             	sub    $0x1c,%esp
	int i;
	struct file *f;

	// 首先为新任务数据结构分配内存.如果内存分配出错,则返回出错码并退出.然后将新任务结构指针放入任务数组的nr项中.其中nr为任务号,由前面
	// find_empty_process()返回.接着把当前进程任务结构复制到刚申请到的内存页面p开始处.
	p = (struct task_struct *) get_free_page();
    7d6f:	e8 91 2d 00 00       	call   ab05 <get_free_page>
    7d74:	89 c5                	mov    %eax,%ebp
	if (!p)
		return -EAGAIN;
    7d76:	b8 f5 ff ff ff       	mov    $0xfffffff5,%eax
	if (!p)
    7d7b:	85 ed                	test   %ebp,%ebp
    7d7d:	0f 84 e7 02 00 00    	je     806a <copy_process+0x30d>
	task[nr] = p;
    7d83:	8b 44 24 30          	mov    0x30(%esp),%eax
    7d87:	c7 c2 60 22 02 00    	mov    $0x22260,%edx
	*p = *current;							/* NOTE! this doesn't copy the supervisor stack */	/* 注意!这样不会复制超级用户堆栈(只复制进程结构) */
    7d8d:	b9 21 01 00 00       	mov    $0x121,%ecx
    7d92:	89 ef                	mov    %ebp,%edi
	task[nr] = p;
    7d94:	89 2c 82             	mov    %ebp,(%edx,%eax,4)
	*p = *current;							/* NOTE! this doesn't copy the supervisor stack */	/* 注意!这样不会复制超级用户堆栈(只复制进程结构) */
    7d97:	c7 c0 60 23 02 00    	mov    $0x22360,%eax
    7d9d:	89 44 24 08          	mov    %eax,0x8(%esp)
    7da1:	8b 00                	mov    (%eax),%eax
    7da3:	89 c6                	mov    %eax,%esi
    7da5:	f3 a5                	rep movsl %ds:(%esi),%es:(%edi)
	//	memcpy(p, current, sizeof(struct task_struct));
	// 随后对复制来的进程结构内容进行一些修改,作为新进程的任务结构.先将新进程的状态置为不可中断等待状态,以防止内核调试其执行.然后设置新进程
	// 的进程号pid,并初始化进程运行时间片值等于其priorty值(一般为16个嘀嗒).接着复位新进程的信号位图,报警定时值,会话(session)领导标志
	// leader,进程及其子进程在内核和用户态运行时间统计值,还设置进程开始运行的系统时间start_time.
	p->state = TASK_UNINTERRUPTIBLE;
	p->pid = last_pid;						// 新进程号.也由find_empty_process()得到.
    7da7:	8b 8b b0 1d 00 00    	mov    0x1db0(%ebx),%ecx
	p->state = TASK_UNINTERRUPTIBLE;
    7dad:	c7 45 00 02 00 00 00 	movl   $0x2,0x0(%ebp)
	p->counter = p->priority;				// 运行时间片值(嘀嗒数).
	p->signal = 0;							// 信号位图.
    7db4:	c7 45 0c 00 00 00 00 	movl   $0x0,0xc(%ebp)
	p->alarm = 0;							// 报警定时值(嘀嗒数).
    7dbb:	c7 85 dc 02 00 00 00 	movl   $0x0,0x2dc(%ebp)
    7dc2:	00 00 00 
	p->leader = 0;							/* process leadership doesn't inherit */	/* 进程的领导权是不能继承的 */
    7dc5:	c7 85 38 02 00 00 00 	movl   $0x0,0x238(%ebp)
    7dcc:	00 00 00 
	p->utime = p->stime = 0;				// 用户态时间和核心态运行时间.
    7dcf:	c7 85 e4 02 00 00 00 	movl   $0x0,0x2e4(%ebp)
    7dd6:	00 00 00 
	p->pid = last_pid;						// 新进程号.也由find_empty_process()得到.
    7dd9:	89 8d 2c 02 00 00    	mov    %ecx,0x22c(%ebp)
	p->counter = p->priority;				// 运行时间片值(嘀嗒数).
    7ddf:	8b 4d 08             	mov    0x8(%ebp),%ecx
	p->utime = p->stime = 0;				// 用户态时间和核心态运行时间.
    7de2:	c7 85 e0 02 00 00 00 	movl   $0x0,0x2e0(%ebp)
    7de9:	00 00 00 
	p->cutime = p->cstime = 0;				// 子进程用户态和核心态运行时间.
    7dec:	c7 85 ec 02 00 00 00 	movl   $0x0,0x2ec(%ebp)
    7df3:	00 00 00 
    7df6:	c7 85 e8 02 00 00 00 	movl   $0x0,0x2e8(%ebp)
    7dfd:	00 00 00 
	p->start_time = jiffies;				// 进程开始运行时间(当前时间滴答数).
	// 再修改任务状态段TSS数据.由于系统给任务结构p分配了1页新内存,所以(PAGE_SIZE + (long) p)让esp0正好指向该页顶端.ss0:esp0用作程序在内核
	// 态执行时的栈.另外,在第3章中我们已经知道,每个任务在GDT表中都有两个段描述符,一个是任务的TSS段描述符,另一个是任务的LDT表段描述符.下面语句就是
	// 把GDT中本任务LDT段描述符的选择符保存在本任务的TSS段.当CPU执行切换任务时,会自动从TSS中把LDT段描述符的选择符加载到ldtr寄存器中.
	p->tss.back_link = 0;
    7e00:	c7 85 b0 03 00 00 00 	movl   $0x0,0x3b0(%ebp)
    7e07:	00 00 00 
	p->counter = p->priority;				// 运行时间片值(嘀嗒数).
    7e0a:	89 4d 04             	mov    %ecx,0x4(%ebp)
	p->start_time = jiffies;				// 进程开始运行时间(当前时间滴答数).
    7e0d:	c7 c1 6c 2a 02 00    	mov    $0x22a6c,%ecx
	p->tss.esp0 = PAGE_SIZE + (long) p;		// 任务内核态栈指针.
	p->tss.ss0 = 0x10;              		// 内核态栈的段选择符(与内核数据段相同).
    7e13:	c7 85 b8 03 00 00 10 	movl   $0x10,0x3b8(%ebp)
    7e1a:	00 00 00 
	p->tss.eip = eip;						// 指令代码指针.
	p->tss.eflags = eflags;					// 标志寄存器.
	p->tss.eax = 0;							// 这是当fork()返回时新进程会返回0的原因所在.
    7e1d:	c7 85 d8 03 00 00 00 	movl   $0x0,0x3d8(%ebp)
    7e24:	00 00 00 
	p->start_time = jiffies;				// 进程开始运行时间(当前时间滴答数).
    7e27:	8b 09                	mov    (%ecx),%ecx
    7e29:	89 8d f0 02 00 00    	mov    %ecx,0x2f0(%ebp)
	p->tss.esp0 = PAGE_SIZE + (long) p;		// 任务内核态栈指针.
    7e2f:	8d 8d 00 10 00 00    	lea    0x1000(%ebp),%ecx
    7e35:	89 8d b4 03 00 00    	mov    %ecx,0x3b4(%ebp)
	p->tss.eip = eip;						// 指令代码指针.
    7e3b:	8b 4c 24 64          	mov    0x64(%esp),%ecx
    7e3f:	89 8d d0 03 00 00    	mov    %ecx,0x3d0(%ebp)
	p->tss.eflags = eflags;					// 标志寄存器.
    7e45:	8b 4c 24 6c          	mov    0x6c(%esp),%ecx
    7e49:	89 8d d4 03 00 00    	mov    %ecx,0x3d4(%ebp)
	p->tss.ecx = ecx;
    7e4f:	8b 4c 24 4c          	mov    0x4c(%esp),%ecx
    7e53:	89 8d dc 03 00 00    	mov    %ecx,0x3dc(%ebp)
	p->tss.edx = edx;
    7e59:	8b 4c 24 50          	mov    0x50(%esp),%ecx
	p->tss.ss = ss & 0xffff;
	p->tss.ds = ds & 0xffff;
	p->tss.fs = fs & 0xffff;
	p->tss.gs = gs & 0xffff;
	p->tss.ldt = _LDT(nr);					// 任务局部表描述符的选择符(LDT描述符在GET中).
	p->tss.trace_bitmap = 0x80000000;		// (高16位有效).
    7e5d:	c7 85 14 04 00 00 00 	movl   $0x80000000,0x414(%ebp)
    7e64:	00 00 80 
	p->tss.edx = edx;
    7e67:	89 8d e0 03 00 00    	mov    %ecx,0x3e0(%ebp)
	p->tss.ebx = ebx;
    7e6d:	8b 4c 24 48          	mov    0x48(%esp),%ecx
    7e71:	89 8d e4 03 00 00    	mov    %ecx,0x3e4(%ebp)
	p->tss.esp = esp;
    7e77:	8b 4c 24 70          	mov    0x70(%esp),%ecx
    7e7b:	89 8d e8 03 00 00    	mov    %ecx,0x3e8(%ebp)
	p->tss.ebp = ebp;
    7e81:	8b 4c 24 34          	mov    0x34(%esp),%ecx
    7e85:	89 8d ec 03 00 00    	mov    %ecx,0x3ec(%ebp)
	p->tss.esi = esi;
    7e8b:	8b 4c 24 3c          	mov    0x3c(%esp),%ecx
    7e8f:	89 8d f0 03 00 00    	mov    %ecx,0x3f0(%ebp)
	p->tss.edi = edi;
    7e95:	8b 4c 24 38          	mov    0x38(%esp),%ecx
    7e99:	89 8d f4 03 00 00    	mov    %ecx,0x3f4(%ebp)
	p->tss.es = es & 0xffff;				// 段寄存器仅16位有效.
    7e9f:	0f b7 4c 24 5c       	movzwl 0x5c(%esp),%ecx
    7ea4:	89 8d f8 03 00 00    	mov    %ecx,0x3f8(%ebp)
	p->tss.cs = cs & 0xffff;
    7eaa:	0f b7 4c 24 68       	movzwl 0x68(%esp),%ecx
    7eaf:	89 8d fc 03 00 00    	mov    %ecx,0x3fc(%ebp)
	p->tss.ss = ss & 0xffff;
    7eb5:	0f b7 4c 24 74       	movzwl 0x74(%esp),%ecx
    7eba:	89 8d 00 04 00 00    	mov    %ecx,0x400(%ebp)
	p->tss.ds = ds & 0xffff;
    7ec0:	0f b7 4c 24 60       	movzwl 0x60(%esp),%ecx
    7ec5:	89 8d 04 04 00 00    	mov    %ecx,0x404(%ebp)
	p->tss.fs = fs & 0xffff;
    7ecb:	0f b7 4c 24 58       	movzwl 0x58(%esp),%ecx
    7ed0:	89 8d 08 04 00 00    	mov    %ecx,0x408(%ebp)
	p->tss.gs = gs & 0xffff;
    7ed6:	0f b7 4c 24 40       	movzwl 0x40(%esp),%ecx
    7edb:	89 8d 0c 04 00 00    	mov    %ecx,0x40c(%ebp)
	p->tss.ldt = _LDT(nr);					// 任务局部表描述符的选择符(LDT描述符在GET中).
    7ee1:	8b 4c 24 30          	mov    0x30(%esp),%ecx
    7ee5:	c1 e1 04             	shl    $0x4,%ecx
    7ee8:	83 c1 28             	add    $0x28,%ecx
    7eeb:	89 8d 10 04 00 00    	mov    %ecx,0x410(%ebp)
	// 如果当前任务使用了协处理器,就保存其上下文.汇编指令clts用于清除控制寄存器CR0中的任务已交换(TS)标志.每当发生任务切换,CPU都会设置该标志.该标志用于管理
	// 数学协处理器:如果该标志置位,那么每个ESC指令都会被捕获(异常7).如果协处理器存在标志MP也同时置位的话,那么WAIT指令也会捕获.因此,如果任务切换发生在一个
	// ESC指令开始执行之后,则协处理器中的内容就可能需要在执行新的ESC指令之前保存起来.捕获处理句柄会保存协处理器的内容并复位TS标志.指令fnsave用于把协处理器的
	// 所有状态保存到目的操作数指定的内存区域中(tss.i387).
	if (last_task_used_math == current)
    7ef1:	c7 c1 60 2a 02 00    	mov    $0x22a60,%ecx
    7ef7:	3b 01                	cmp    (%ecx),%eax
    7ef9:	75 0e                	jne    7f09 <copy_process+0x1ac>
		__asm__("clts ; fnsave %0 ; frstor %0"::"m" (p->tss.i387));
    7efb:	0f 06                	clts   
    7efd:	dd b5 18 04 00 00    	fnsave 0x418(%ebp)
    7f03:	dd a5 18 04 00 00    	frstor 0x418(%ebp)
    7f09:	89 54 24 0c          	mov    %edx,0xc(%esp)
	// 接下来复制进程页表.即在线性地址空间设置新任务代码段和数据段描述符中的基址和限长,并复制页表.如果出错(返回值不是0),则复位任务数组中相应项并
	// 释放为该新任务分配的用于任务结构的内存页.
	if (copy_mem(nr, p)) {					// 返回不为0示出错.
    7f0d:	50                   	push   %eax
    7f0e:	50                   	push   %eax
    7f0f:	55                   	push   %ebp
    7f10:	ff 74 24 3c          	pushl  0x3c(%esp)
    7f14:	e8 42 fd ff ff       	call   7c5b <copy_mem>
    7f19:	83 c4 10             	add    $0x10,%esp
    7f1c:	85 c0                	test   %eax,%eax
    7f1e:	8b 54 24 0c          	mov    0xc(%esp),%edx
    7f22:	74 27                	je     7f4b <copy_process+0x1ee>
		task[nr] = NULL;
    7f24:	8b 44 24 30          	mov    0x30(%esp),%eax
		free_page((long) p);
    7f28:	83 ec 0c             	sub    $0xc,%esp
		task[nr] = NULL;
    7f2b:	c7 04 82 00 00 00 00 	movl   $0x0,(%edx,%eax,4)
		free_page((long) p);
    7f32:	55                   	push   %ebp
    7f33:	e8 1b 20 00 00       	call   9f53 <free_page>
		return -EAGAIN;
    7f38:	83 c4 10             	add    $0x10,%esp
    7f3b:	b8 f5 ff ff ff       	mov    $0xfffffff5,%eax
    7f40:	e9 25 01 00 00       	jmp    806a <copy_process+0x30d>
	}
	// 如果父进程中有文件是打开的,则将对应文件的打开次数增1.因为这里创建的子进程会与父进程共享这些打开的文件.将当前进程(父进程)的pwd,root和
	// executable引用次数均增1.与上面同样的道理,子进程也引用了这些i节点.
	for (i = 0; i < NR_OPEN; i++)
    7f45:	40                   	inc    %eax
    7f46:	83 f8 14             	cmp    $0x14,%eax
    7f49:	74 11                	je     7f5c <copy_process+0x1ff>
		if (f = p->filp[i])
    7f4b:	8b 94 85 48 03 00 00 	mov    0x348(%ebp,%eax,4),%edx
    7f52:	85 d2                	test   %edx,%edx
    7f54:	74 ef                	je     7f45 <copy_process+0x1e8>
			f->f_count++;
    7f56:	66 ff 42 04          	incw   0x4(%edx)
    7f5a:	eb e9                	jmp    7f45 <copy_process+0x1e8>
	if (current->pwd)
    7f5c:	8b 44 24 08          	mov    0x8(%esp),%eax
    7f60:	8b 30                	mov    (%eax),%esi
    7f62:	8b 86 34 03 00 00    	mov    0x334(%esi),%eax
    7f68:	85 c0                	test   %eax,%eax
    7f6a:	74 04                	je     7f70 <copy_process+0x213>
		current->pwd->i_count++;
    7f6c:	66 ff 40 34          	incw   0x34(%eax)
	if (current->root)
    7f70:	8b 86 38 03 00 00    	mov    0x338(%esi),%eax
    7f76:	85 c0                	test   %eax,%eax
    7f78:	74 04                	je     7f7e <copy_process+0x221>
		current->root->i_count++;
    7f7a:	66 ff 40 34          	incw   0x34(%eax)
	if (current->executable)
    7f7e:	8b 86 3c 03 00 00    	mov    0x33c(%esi),%eax
    7f84:	85 c0                	test   %eax,%eax
    7f86:	74 04                	je     7f8c <copy_process+0x22f>
		current->executable->i_count++;
    7f88:	66 ff 40 34          	incw   0x34(%eax)
	if (current->library)
    7f8c:	8b 86 40 03 00 00    	mov    0x340(%esi),%eax
    7f92:	85 c0                	test   %eax,%eax
    7f94:	74 04                	je     7f9a <copy_process+0x23d>
		current->library->i_count++;
    7f96:	66 ff 40 34          	incw   0x34(%eax)
	// 设置等于父进程的最新子进程指针.若当前进程确实还有其他子进程,则让比邻老兄进程的最年轻进程指针p_yspter指向新进程.最后把当前进程的最新子进程指针指向这个新进程.
	// 然后把新进程设置成就绪态.最后返回新进程号.
	// 另外,set_tss_desc()和set_ldt_desc()定义在include/asm/system.h文件中."gdt+(nr<<1)+FIRST_TSS_ENTRY"是任务nr的TSS描述符项在全局表中的地址.
	// 因为每个任务占用GDT表中2项,因此上式中要包括'(nr<<1)'.
	// 请注意,在任务切换时,任务寄存器tr会由CPU自动加载.
	set_tss_desc(gdt + (nr << 1) + FIRST_TSS_ENTRY, &(p->tss));
    7f9a:	8b 7c 24 30          	mov    0x30(%esp),%edi
    7f9e:	8d 85 b0 03 00 00    	lea    0x3b0(%ebp),%eax
    7fa4:	c7 c2 88 5f 00 00    	mov    $0x5f88,%edx
    7faa:	01 ff                	add    %edi,%edi
    7fac:	83 c7 04             	add    $0x4,%edi
    7faf:	8d 0c fd 00 00 00 00 	lea    0x0(,%edi,8),%ecx
    7fb6:	66 c7 04 fa 68 00    	movw   $0x68,(%edx,%edi,8)
    7fbc:	66 89 44 11 02       	mov    %ax,0x2(%ecx,%edx,1)
    7fc1:	c1 c8 10             	ror    $0x10,%eax
    7fc4:	88 44 11 04          	mov    %al,0x4(%ecx,%edx,1)
    7fc8:	c6 44 11 05 89       	movb   $0x89,0x5(%ecx,%edx,1)
    7fcd:	c6 44 11 06 00       	movb   $0x0,0x6(%ecx,%edx,1)
    7fd2:	88 64 11 07          	mov    %ah,0x7(%ecx,%edx,1)
    7fd6:	c1 c8 10             	ror    $0x10,%eax
	set_ldt_desc(gdt + (nr << 1) + FIRST_LDT_ENTRY, &(p->ldt));
    7fd9:	8d 85 98 03 00 00    	lea    0x398(%ebp),%eax
    7fdf:	66 c7 44 11 08 68 00 	movw   $0x68,0x8(%ecx,%edx,1)
    7fe6:	66 89 44 11 0a       	mov    %ax,0xa(%ecx,%edx,1)
    7feb:	c1 c8 10             	ror    $0x10,%eax
    7fee:	88 44 11 0c          	mov    %al,0xc(%ecx,%edx,1)
    7ff2:	c6 44 11 0d 82       	movb   $0x82,0xd(%ecx,%edx,1)
    7ff7:	c6 44 11 0e 00       	movb   $0x0,0xe(%ecx,%edx,1)
    7ffc:	88 64 11 0f          	mov    %ah,0xf(%ecx,%edx,1)
    8000:	c1 c8 10             	ror    $0x10,%eax
	p->p_pptr = current;				// 设置新进程的父进程指针.
	p->p_cptr = 0;						// 复位新进程的最新子进程指针.
    8003:	c7 85 c0 02 00 00 00 	movl   $0x0,0x2c0(%ebp)
    800a:	00 00 00 
	p->p_ysptr = 0;						// 复位新进程的比邻年轻兄弟进程指针.
	p->p_osptr = current->p_cptr;		// 设置新进程的比邻老兄兄弟进程指针.
    800d:	8b 86 c0 02 00 00    	mov    0x2c0(%esi),%eax
	p->p_pptr = current;				// 设置新进程的父进程指针.
    8013:	89 b5 bc 02 00 00    	mov    %esi,0x2bc(%ebp)
	p->p_ysptr = 0;						// 复位新进程的比邻年轻兄弟进程指针.
    8019:	c7 85 c4 02 00 00 00 	movl   $0x0,0x2c4(%ebp)
    8020:	00 00 00 
	if (p->p_osptr)						// 若新进程有老兄兄弟进程,则让其年轻进程兄弟指针指向新进程
    8023:	85 c0                	test   %eax,%eax
	p->p_osptr = current->p_cptr;		// 设置新进程的比邻老兄兄弟进程指针.
    8025:	89 85 c8 02 00 00    	mov    %eax,0x2c8(%ebp)
	if (p->p_osptr)						// 若新进程有老兄兄弟进程,则让其年轻进程兄弟指针指向新进程
    802b:	74 06                	je     8033 <copy_process+0x2d6>
		p->p_osptr->p_ysptr = p;
    802d:	89 a8 c4 02 00 00    	mov    %ebp,0x2c4(%eax)
	current->p_cptr = p;				// 让当前进程最新子进程指针指向新进程.
	p->state = TASK_RUNNING;			/* do this last, just in case */        /* 设置进程状态为待运行状态栏 */
	Log(LOG_INFO_TYPE, "<<<<< fork new process current_pid = %d, child_pid = %d, nr = %d >>>>>\n", current->pid, p->pid, nr);
    8033:	8d 83 82 69 ff ff    	lea    -0x967e(%ebx),%eax
    8039:	83 ec 0c             	sub    $0xc,%esp
	current->p_cptr = p;				// 让当前进程最新子进程指针指向新进程.
    803c:	89 ae c0 02 00 00    	mov    %ebp,0x2c0(%esi)
	p->state = TASK_RUNNING;			/* do this last, just in case */        /* 设置进程状态为待运行状态栏 */
    8042:	c7 45 00 00 00 00 00 	movl   $0x0,0x0(%ebp)
	Log(LOG_INFO_TYPE, "<<<<< fork new process current_pid = %d, child_pid = %d, nr = %d >>>>>\n", current->pid, p->pid, nr);
    8049:	ff 74 24 3c          	pushl  0x3c(%esp)
    804d:	ff b5 2c 02 00 00    	pushl  0x22c(%ebp)
    8053:	ff b6 2c 02 00 00    	pushl  0x22c(%esi)
    8059:	50                   	push   %eax
    805a:	6a 00                	push   $0x0
    805c:	e8 2e f4 00 00       	call   1748f <Log>
	return last_pid;        			// 返回新进程号
    8061:	8b 83 b0 1d 00 00    	mov    0x1db0(%ebx),%eax
    8067:	83 c4 20             	add    $0x20,%esp
}
    806a:	83 c4 1c             	add    $0x1c,%esp
    806d:	5b                   	pop    %ebx
    806e:	5e                   	pop    %esi
    806f:	5f                   	pop    %edi
    8070:	5d                   	pop    %ebp
    8071:	c3                   	ret    

00008072 <find_empty_process>:

// 为新进程取得不重复的进程号last_pid.函数返回在任务数组中的任务号(数组项).
int find_empty_process(void)
{
    8072:	e8 07 1e 00 00       	call   9e7e <__x86.get_pc_thunk.cx>
    8077:	81 c1 89 8f 01 00    	add    $0x18f89,%ecx
    807d:	56                   	push   %esi
    807e:	53                   	push   %ebx
    807f:	8b 81 b0 1d 00 00    	mov    0x1db0(%ecx),%eax
	// 否已经被任何任务使用.如果是则跳转到函数开始处理重新获得一个pid号.接着在任务数组中为新任务寻找一个空闲项,并返回项号.last_pid是一
	// 个全局变量,不用返回.如果此时任务数组中64个项已经被全部占用,则返回出错码.
	repeat:
		if ((++last_pid) < 0) last_pid = 1;
		for(i = 0 ; i < NR_TASKS ; i++)
			if (task[i] && ((task[i]->pid == last_pid) ||
    8085:	c7 c6 60 22 02 00    	mov    $0x22260,%esi
		if ((++last_pid) < 0) last_pid = 1;
    808b:	40                   	inc    %eax
    808c:	ba 01 00 00 00       	mov    $0x1,%edx
    8091:	0f 48 c2             	cmovs  %edx,%eax
		for(i = 0 ; i < NR_TASKS ; i++)
    8094:	31 d2                	xor    %edx,%edx
			if (task[i] && ((task[i]->pid == last_pid) ||
    8096:	8b 1c 96             	mov    (%esi,%edx,4),%ebx
    8099:	85 db                	test   %ebx,%ebx
    809b:	74 10                	je     80ad <find_empty_process+0x3b>
    809d:	39 83 2c 02 00 00    	cmp    %eax,0x22c(%ebx)
    80a3:	74 e6                	je     808b <find_empty_process+0x19>
    80a5:	39 83 30 02 00 00    	cmp    %eax,0x230(%ebx)
    80ab:	74 de                	je     808b <find_empty_process+0x19>
		for(i = 0 ; i < NR_TASKS ; i++)
    80ad:	42                   	inc    %edx
    80ae:	83 fa 40             	cmp    $0x40,%edx
    80b1:	75 e3                	jne    8096 <find_empty_process+0x24>
    80b3:	89 81 b0 1d 00 00    	mov    %eax,0x1db0(%ecx)
				        (task[i]->pgrp == last_pid)))
				goto repeat;
	for(i = 1 ; i < NR_TASKS ; i++)
    80b9:	b8 01 00 00 00       	mov    $0x1,%eax
		if (!task[i])
    80be:	83 3c 86 00          	cmpl   $0x0,(%esi,%eax,4)
    80c2:	74 0b                	je     80cf <find_empty_process+0x5d>
	for(i = 1 ; i < NR_TASKS ; i++)
    80c4:	40                   	inc    %eax
    80c5:	83 f8 40             	cmp    $0x40,%eax
    80c8:	75 f4                	jne    80be <find_empty_process+0x4c>
			return i;
	return -EAGAIN;
    80ca:	b8 f5 ff ff ff       	mov    $0xfffffff5,%eax
}
    80cf:	5b                   	pop    %ebx
    80d0:	5e                   	pop    %esi
    80d1:	c3                   	ret    

000080d2 <panic>:
// 如果当前进程是任务0的话,还说明是交换任务出错,并且还没有运行文件系统同步函数.
// 函数名前的关键字volatile用于告诉编译器gcc该函数不会返回.这样可让gcc产生更好一些的代码,更重要的是使用这个关键字
// 以避免产生某些(未初始化变量的)假警告信息.
// 等同于现在gcc的函数属性说明:void panic(const char *s) __attribute__((noreturn));
void panic(const char * s)
{
    80d2:	53                   	push   %ebx
    80d3:	e8 54 e9 ff ff       	call   6a2c <__x86.get_pc_thunk.bx>
    80d8:	81 c3 28 8f 01 00    	add    $0x18f28,%ebx
    80de:	83 ec 10             	sub    $0x10,%esp
	printk("Kernel panic: %s\n\r", s);
    80e1:	8d 83 ca 69 ff ff    	lea    -0x9636(%ebx),%eax
    80e7:	ff 74 24 18          	pushl  0x18(%esp)
    80eb:	50                   	push   %eax
    80ec:	e8 30 00 00 00       	call   8121 <printk>
	if (current == task[0])
    80f1:	c7 c2 60 22 02 00    	mov    $0x22260,%edx
    80f7:	c7 c0 60 23 02 00    	mov    $0x22360,%eax
    80fd:	83 c4 10             	add    $0x10,%esp
    8100:	8b 00                	mov    (%eax),%eax
    8102:	39 02                	cmp    %eax,(%edx)
    8104:	75 14                	jne    811a <panic+0x48>
		printk("In swapper task - not syncing\n\r");
    8106:	8d 83 dd 69 ff ff    	lea    -0x9623(%ebx),%eax
    810c:	83 ec 0c             	sub    $0xc,%esp
    810f:	50                   	push   %eax
    8110:	e8 0c 00 00 00       	call   8121 <printk>
    8115:	83 c4 10             	add    $0x10,%esp
    8118:	eb 05                	jmp    811f <panic+0x4d>
	else
		sys_sync();
    811a:	e8 a7 3e 00 00       	call   bfc6 <sys_sync>
    811f:	eb fe                	jmp    811f <panic+0x4d>

00008121 <printk>:
// 函数vsprintf()定义在linux/kernel/vsprintf.c中
extern int vsprintf(char * buf, const char * fmt, va_list args);

// 内核使用的显示函数.
int printk(const char *fmt, ...)
{
    8121:	56                   	push   %esi
    8122:	53                   	push   %ebx
    8123:	e8 04 e9 ff ff       	call   6a2c <__x86.get_pc_thunk.bx>
    8128:	81 c3 d8 8e 01 00    	add    $0x18ed8,%ebx
    812e:	83 ec 18             	sub    $0x18,%esp
	int i;

	// 运行参数处理开始函数.然后使用格式串fmt将参数列表args输出到buf中.返回值i等于输出字符串的长度.再运行参数处理结束函数.最后调用控制台显示
	// 函数并返回显示字符数.
	va_start(args, fmt);
	i = vsprintf(buf, fmt, args);
    8131:	8d 44 24 28          	lea    0x28(%esp),%eax
    8135:	8d b3 c0 1d 00 00    	lea    0x1dc0(%ebx),%esi
    813b:	50                   	push   %eax
    813c:	ff 74 24 28          	pushl  0x28(%esp)
    8140:	56                   	push   %esi
    8141:	e8 00 02 00 00       	call   8346 <vsprintf>
	va_end(args);
	console_print(buf);						// chr_drv/console.c
    8146:	89 34 24             	mov    %esi,(%esp)
	i = vsprintf(buf, fmt, args);
    8149:	89 44 24 1c          	mov    %eax,0x1c(%esp)
	console_print(buf);						// chr_drv/console.c
    814d:	e8 83 c2 00 00       	call   143d5 <console_print>
	return i;
}
    8152:	8b 44 24 1c          	mov    0x1c(%esp),%eax
    8156:	83 c4 24             	add    $0x24,%esp
    8159:	5b                   	pop    %ebx
    815a:	5e                   	pop    %esi
    815b:	c3                   	ret    

0000815c <number>:
// 将整数转换为指定进制的字符串.
// 输入: num-整数; base-进制; size-字符串长度;precision-数字长度(精度);type-类型选项.
// 输出: 数字转换成字符串后指向该字符串末端后面的指针.
static char * number(char * str, int num, int base, int size, int precision
	,int type)
{
    815c:	55                   	push   %ebp
    815d:	57                   	push   %edi
    815e:	56                   	push   %esi
    815f:	53                   	push   %ebx
    8160:	89 c3                	mov    %eax,%ebx
    8162:	e8 1b 1d 00 00       	call   9e82 <__x86.get_pc_thunk.si>
    8167:	81 c6 99 8e 01 00    	add    $0x18e99,%esi
    816d:	83 ec 48             	sub    $0x48,%esp
    8170:	89 d0                	mov    %edx,%eax
    8172:	8b 6c 24 64          	mov    0x64(%esp),%ebp
    8176:	89 4c 24 04          	mov    %ecx,0x4(%esp)
	int i;

	// 如果类型type指出用小写字母,则定义小写字母集.
	// 如果类型指出要左调整(靠左边界),则屏蔽类型中的填零标志.
	// 如果进制基数小于2或大于36,则退出处理,即本程序只能处理基数在2-36之间的数.
	if (type & SMALL) digits = "0123456789abcdefghijklmnopqrstuvwxyz";
    817a:	8d be 22 6a ff ff    	lea    -0x95de(%esi),%edi
    8180:	f7 c5 40 00 00 00    	test   $0x40,%ebp
    8186:	75 06                	jne    818e <number+0x32>
    8188:	8d be fd 69 ff ff    	lea    -0x9603(%esi),%edi
	if (type & LEFT) type &= ~ZEROPAD;
    818e:	f7 c5 10 00 00 00    	test   $0x10,%ebp
    8194:	74 03                	je     8199 <number+0x3d>
    8196:	83 e5 fe             	and    $0xfffffffe,%ebp
	if (base < 2 || base > 36)
		return 0;
	// 如果类型指出要填零,则置字符变量c='0',否则c等于空格字符.
	// 如果类型指出是带符号数并且数值num小于0,则置符号变量sign=负号,并使num取绝对值.
	// 否则如果类型指出是加号,则置sign=加号,否则若类型带空格标志则sign=空格,否则置0.
	c = (type & ZEROPAD) ? '0' : ' ' ;
    8199:	89 ea                	mov    %ebp,%edx
    819b:	83 e2 01             	and    $0x1,%edx
    819e:	83 fa 01             	cmp    $0x1,%edx
    81a1:	19 c9                	sbb    %ecx,%ecx
    81a3:	89 4c 24 0c          	mov    %ecx,0xc(%esp)
    81a7:	80 64 24 0c f0       	andb   $0xf0,0xc(%esp)
    81ac:	80 44 24 0c 30       	addb   $0x30,0xc(%esp)
	if (type & SIGN && num < 0) {
    81b1:	f7 c5 02 00 00 00    	test   $0x2,%ebp
    81b7:	74 0d                	je     81c6 <number+0x6a>
    81b9:	85 c0                	test   %eax,%eax
    81bb:	79 09                	jns    81c6 <number+0x6a>
		sign = '-';
		num = -num;
    81bd:	f7 d8                	neg    %eax
		sign = '-';
    81bf:	c6 44 24 0b 2d       	movb   $0x2d,0xb(%esp)
    81c4:	eb 21                	jmp    81e7 <number+0x8b>
	} else
		sign = (type & PLUS) ? '+' : ((type & SPACE) ? ' ' : 0);
    81c6:	f7 c5 04 00 00 00    	test   $0x4,%ebp
    81cc:	75 14                	jne    81e2 <number+0x86>
    81ce:	8d 14 ad 00 00 00 00 	lea    0x0(,%ebp,4),%edx
	// 若带符号,则宽度值减1.若类型指出是特殊转换,则对十六进制宽度再减少2位(用于0x),对于八进制宽度减1(用于八进制转换结果前放一个零).
	if (sign) size--;
    81d5:	88 d1                	mov    %dl,%cl
    81d7:	80 e1 20             	and    $0x20,%cl
    81da:	88 4c 24 0b          	mov    %cl,0xb(%esp)
    81de:	74 0b                	je     81eb <number+0x8f>
    81e0:	eb 05                	jmp    81e7 <number+0x8b>
		sign = (type & PLUS) ? '+' : ((type & SPACE) ? ' ' : 0);
    81e2:	c6 44 24 0b 2b       	movb   $0x2b,0xb(%esp)
	if (sign) size--;
    81e7:	ff 4c 24 5c          	decl   0x5c(%esp)
	if (type & SPECIAL)
    81eb:	89 e9                	mov    %ebp,%ecx
    81ed:	83 e1 20             	and    $0x20,%ecx
    81f0:	89 4c 24 14          	mov    %ecx,0x14(%esp)
    81f4:	74 19                	je     820f <number+0xb3>
		if (base == 16) size -= 2;
    81f6:	83 7c 24 04 10       	cmpl   $0x10,0x4(%esp)
    81fb:	75 07                	jne    8204 <number+0xa8>
    81fd:	83 6c 24 5c 02       	subl   $0x2,0x5c(%esp)
    8202:	eb 0b                	jmp    820f <number+0xb3>
		else if (base == 8) size--;
    8204:	83 7c 24 04 08       	cmpl   $0x8,0x4(%esp)
    8209:	75 04                	jne    820f <number+0xb3>
    820b:	ff 4c 24 5c          	decl   0x5c(%esp)
	// 如果数值num为0,则临时字符串='0';否则根据给定的基数将数值num转换成字符形式.
	i = 0;
	if (num == 0)
    820f:	85 c0                	test   %eax,%eax
    8211:	75 0e                	jne    8221 <number+0xc5>
		tmp[i++] = '0';
    8213:	c6 44 24 24 30       	movb   $0x30,0x24(%esp)
    8218:	c7 04 24 01 00 00 00 	movl   $0x1,(%esp)
    821f:	eb 23                	jmp    8244 <number+0xe8>
	else while (num != 0)
		tmp[i++] = digits[do_div(num, base)];
    8221:	8d 74 24 23          	lea    0x23(%esp),%esi
	i = 0;
    8225:	c7 04 24 00 00 00 00 	movl   $0x0,(%esp)
		tmp[i++] = digits[do_div(num, base)];
    822c:	ff 04 24             	incl   (%esp)
    822f:	31 d2                	xor    %edx,%edx
    8231:	8b 4c 24 04          	mov    0x4(%esp),%ecx
    8235:	f7 f1                	div    %ecx
    8237:	8b 0c 24             	mov    (%esp),%ecx
    823a:	8a 14 17             	mov    (%edi,%edx,1),%dl
	else while (num != 0)
    823d:	85 c0                	test   %eax,%eax
		tmp[i++] = digits[do_div(num, base)];
    823f:	88 14 0e             	mov    %dl,(%esi,%ecx,1)
	else while (num != 0)
    8242:	75 e8                	jne    822c <number+0xd0>
    8244:	8b 04 24             	mov    (%esp),%eax
    8247:	3b 44 24 60          	cmp    0x60(%esp),%eax
    824b:	0f 4c 44 24 60       	cmovl  0x60(%esp),%eax
	// 若数值字符个数大于精度值,则精度值扩展为数字个数值.
	// 宽度值size减去用于存放数值字符的个数.
	if (i > precision) precision = i;
	size -= precision;
    8250:	8b 54 24 5c          	mov    0x5c(%esp),%edx
    8254:	29 c2                	sub    %eax,%edx
	// 从这里真正开始形成所需要的转换结果,并暂时放在字符串str中.
	// 若类型中没有填零(ZEROPAD)和左靠齐(左调整)标志,则在str中首先填放剩余宽度值指出的空格数.若需带符号位,则存入符号.
	if (!(type & (ZEROPAD + LEFT)))
    8256:	f7 c5 11 00 00 00    	test   $0x11,%ebp
    825c:	89 44 24 10          	mov    %eax,0x10(%esp)
    8260:	75 20                	jne    8282 <number+0x126>
    8262:	31 c0                	xor    %eax,%eax
    8264:	89 d6                	mov    %edx,%esi
    8266:	29 c6                	sub    %eax,%esi
		while(size-- > 0)
    8268:	85 f6                	test   %esi,%esi
    826a:	7e 07                	jle    8273 <number+0x117>
			*str++ = ' ';
    826c:	c6 04 03 20          	movb   $0x20,(%ebx,%eax,1)
    8270:	40                   	inc    %eax
    8271:	eb f1                	jmp    8264 <number+0x108>
    8273:	85 d2                	test   %edx,%edx
    8275:	be 00 00 00 00       	mov    $0x0,%esi
    827a:	0f 49 f2             	cmovns %edx,%esi
    827d:	4a                   	dec    %edx
    827e:	01 f3                	add    %esi,%ebx
    8280:	29 f2                	sub    %esi,%edx
	if (sign)
    8282:	80 7c 24 0b 00       	cmpb   $0x0,0xb(%esp)
    8287:	74 08                	je     8291 <number+0x135>
		*str++ = sign;
    8289:	8a 44 24 0b          	mov    0xb(%esp),%al
    828d:	43                   	inc    %ebx
    828e:	88 43 ff             	mov    %al,-0x1(%ebx)
	// 若类型指出是特殊转换,则对于八进制转换结果头一位放置一个'0';而对于十六进制则存放'0x'.
	if (type & SPECIAL)
    8291:	83 7c 24 14 00       	cmpl   $0x0,0x14(%esp)
    8296:	74 20                	je     82b8 <number+0x15c>
		if (base == 8)
    8298:	83 7c 24 04 08       	cmpl   $0x8,0x4(%esp)
    829d:	75 06                	jne    82a5 <number+0x149>
			*str++ = '0';
    829f:	c6 03 30             	movb   $0x30,(%ebx)
    82a2:	43                   	inc    %ebx
    82a3:	eb 13                	jmp    82b8 <number+0x15c>
		else if (base == 16) {
    82a5:	83 7c 24 04 10       	cmpl   $0x10,0x4(%esp)
    82aa:	75 0c                	jne    82b8 <number+0x15c>
			*str++ = '0';
			*str++ = digits[33];						// 'X'或'x'
    82ac:	8a 47 21             	mov    0x21(%edi),%al
			*str++ = '0';
    82af:	c6 03 30             	movb   $0x30,(%ebx)
			*str++ = digits[33];						// 'X'或'x'
    82b2:	83 c3 02             	add    $0x2,%ebx
    82b5:	88 43 ff             	mov    %al,-0x1(%ebx)
		}
	// 若类型中没有左调整(左靠齐)标志,则在剩余宽度中存放c字符('0'或空格)
	if (!(type & LEFT))
    82b8:	83 e5 10             	and    $0x10,%ebp
    82bb:	75 23                	jne    82e0 <number+0x184>
    82bd:	31 c0                	xor    %eax,%eax
    82bf:	89 d6                	mov    %edx,%esi
    82c1:	29 c6                	sub    %eax,%esi
		while(size-- > 0)
    82c3:	85 f6                	test   %esi,%esi
    82c5:	7e 0a                	jle    82d1 <number+0x175>
			*str++ = c;
    82c7:	8a 4c 24 0c          	mov    0xc(%esp),%cl
    82cb:	88 0c 03             	mov    %cl,(%ebx,%eax,1)
    82ce:	40                   	inc    %eax
    82cf:	eb ee                	jmp    82bf <number+0x163>
    82d1:	85 d2                	test   %edx,%edx
    82d3:	be 00 00 00 00       	mov    $0x0,%esi
    82d8:	0f 49 f2             	cmovns %edx,%esi
    82db:	4a                   	dec    %edx
    82dc:	01 f3                	add    %esi,%ebx
    82de:	29 f2                	sub    %esi,%edx
    82e0:	8b 7c 24 10          	mov    0x10(%esp),%edi
    82e4:	01 df                	add    %ebx,%edi
    82e6:	89 f8                	mov    %edi,%eax
    82e8:	29 d8                	sub    %ebx,%eax
	// 此时i存有数值num的数字个数.若数字个数小于精度值,则str中放入(精度值-i)个'0'.
	while(i < precision--)
    82ea:	39 04 24             	cmp    %eax,(%esp)
    82ed:	7d 07                	jge    82f6 <number+0x19a>
		*str++ = '0';
    82ef:	43                   	inc    %ebx
    82f0:	c6 43 ff 30          	movb   $0x30,-0x1(%ebx)
    82f4:	eb f0                	jmp    82e6 <number+0x18a>
	while(i < precision--)
    82f6:	8b 04 24             	mov    (%esp),%eax
	// 将数值转换好的数字字符填入str中.共i个.
	while(i-- > 0)
		*str++ = tmp[i];
    82f9:	8d 7c 24 23          	lea    0x23(%esp),%edi
    82fd:	8d 34 03             	lea    (%ebx,%eax,1),%esi
	while(i-- > 0)
    8300:	85 c0                	test   %eax,%eax
    8302:	7e 0d                	jle    8311 <number+0x1b5>
		*str++ = tmp[i];
    8304:	8a 0c 07             	mov    (%edi,%eax,1),%cl
    8307:	89 c5                	mov    %eax,%ebp
    8309:	48                   	dec    %eax
    830a:	f7 dd                	neg    %ebp
    830c:	88 0c 2e             	mov    %cl,(%esi,%ebp,1)
    830f:	eb ef                	jmp    8300 <number+0x1a4>
    8311:	83 3c 24 00          	cmpl   $0x0,(%esp)
    8315:	8b 0c 24             	mov    (%esp),%ecx
    8318:	b8 00 00 00 00       	mov    $0x0,%eax
    831d:	0f 48 c8             	cmovs  %eax,%ecx
    8320:	01 cb                	add    %ecx,%ebx
    8322:	89 d1                	mov    %edx,%ecx
    8324:	29 c1                	sub    %eax,%ecx
	// 若宽度值仍大于零,则表示类型标志中有左靠齐标志.则在剩余宽度中放入空格.
	while(size-- > 0)
    8326:	85 c9                	test   %ecx,%ecx
    8328:	7e 07                	jle    8331 <number+0x1d5>
		*str++ = ' ';
    832a:	c6 04 03 20          	movb   $0x20,(%ebx,%eax,1)
    832e:	40                   	inc    %eax
    832f:	eb f1                	jmp    8322 <number+0x1c6>
    8331:	85 d2                	test   %edx,%edx
    8333:	b8 00 00 00 00       	mov    $0x0,%eax
    8338:	0f 48 d0             	cmovs  %eax,%edx
	return str;											// 返回转换好的指向字符串末端后的指针.
}
    833b:	83 c4 48             	add    $0x48,%esp
    833e:	8d 04 13             	lea    (%ebx,%edx,1),%eax
    8341:	5b                   	pop    %ebx
    8342:	5e                   	pop    %esi
    8343:	5f                   	pop    %edi
    8344:	5d                   	pop    %ebp
    8345:	c3                   	ret    

00008346 <vsprintf>:

// 下面函数是送格式化输出到字符串中.
// 为了能在内核中使用格式化的输出,Linus在内核实现了该C标准函数.
// 其中参数fmt是格式字符串;args是个数变化的值;buf是输出字符串缓冲区.
int vsprintf(char *buf, const char *fmt, va_list args)
{
    8346:	55                   	push   %ebp
    8347:	57                   	push   %edi
    8348:	56                   	push   %esi
    8349:	53                   	push   %ebx
    834a:	83 ec 08             	sub    $0x8,%esp
    834d:	8b 74 24 20          	mov    0x20(%esp),%esi
    8351:	8b 7c 24 24          	mov    0x24(%esp),%edi
				   											number of chars for from string */
														/* min.整数数字个数;max.字符串中字符个数 */
	int qualifier;										/* 'h', 'l', or 'L' for integer fields */	/* 'h','l',或 'L'用于整数字段 */

	// 首先将字符指针指向buf,然后扫描格式字符串,对各个格式转换指示进行相应的处理.
	for (str=buf ; *fmt ; ++fmt) {
    8355:	8b 5c 24 1c          	mov    0x1c(%esp),%ebx
    8359:	8a 06                	mov    (%esi),%al
    835b:	84 c0                	test   %al,%al
    835d:	0f 84 7b 02 00 00    	je     85de <vsprintf+0x298>
		// 格式转换指示字符串均'%'开始,这里从fmt格式字符串中扫描'%',寻找格式转换字符串的开始.不是格式指示的一般字符均被依次存入str.
		if (*fmt != '%') {
    8363:	3c 25                	cmp    $0x25,%al
    8365:	0f 85 5f 02 00 00    	jne    85ca <vsprintf+0x284>
			continue;
		}

		// 下面取得格式指示字符串中的标志域,并将标志常量放入flags变量中.
		/* process flags */
		flags = 0;
    836b:	c7 04 24 00 00 00 00 	movl   $0x0,(%esp)
		repeat:
			++fmt;		/* this also skips first '%' */
			switch (*fmt) {
    8372:	8a 46 01             	mov    0x1(%esi),%al
			++fmt;		/* this also skips first '%' */
    8375:	8d 4e 01             	lea    0x1(%esi),%ecx
			switch (*fmt) {
    8378:	3c 2b                	cmp    $0x2b,%al
    837a:	74 26                	je     83a2 <vsprintf+0x5c>
    837c:	7f 10                	jg     838e <vsprintf+0x48>
    837e:	3c 20                	cmp    $0x20,%al
    8380:	74 26                	je     83a8 <vsprintf+0x62>
    8382:	3c 23                	cmp    $0x23,%al
    8384:	75 28                	jne    83ae <vsprintf+0x68>
				case '-': flags |= LEFT; goto repeat;		// 左靠齐调整
				case '+': flags |= PLUS; goto repeat;		// 放加号
				case ' ': flags |= SPACE; goto repeat;		// 放空格
				case '#': flags |= SPECIAL; goto repeat;	// 是特殊转换
    8386:	83 0c 24 20          	orl    $0x20,(%esp)
{
    838a:	89 ce                	mov    %ecx,%esi
    838c:	eb e4                	jmp    8372 <vsprintf+0x2c>
			switch (*fmt) {
    838e:	3c 2d                	cmp    $0x2d,%al
    8390:	74 0a                	je     839c <vsprintf+0x56>
    8392:	3c 30                	cmp    $0x30,%al
    8394:	75 18                	jne    83ae <vsprintf+0x68>
				case '0': flags |= ZEROPAD; goto repeat;	// 要填零(即'0')
    8396:	83 0c 24 01          	orl    $0x1,(%esp)
    839a:	eb ee                	jmp    838a <vsprintf+0x44>
				case '-': flags |= LEFT; goto repeat;		// 左靠齐调整
    839c:	83 0c 24 10          	orl    $0x10,(%esp)
    83a0:	eb e8                	jmp    838a <vsprintf+0x44>
				case '+': flags |= PLUS; goto repeat;		// 放加号
    83a2:	83 0c 24 04          	orl    $0x4,(%esp)
    83a6:	eb e2                	jmp    838a <vsprintf+0x44>
				case ' ': flags |= SPACE; goto repeat;		// 放空格
    83a8:	83 0c 24 08          	orl    $0x8,(%esp)
    83ac:	eb dc                	jmp    838a <vsprintf+0x44>

		// 取当前参数字段宽度域值,放入field_width变量中.如果宽度域中是数值则直接其为宽度值.如果宽度域中是字符'*',表示下一个参数指定宽度.因此
		// 调用va_arg取宽度值.若此时宽度值小于0,则该负数表示其带有标志域'-'标志(左靠齐),因此还需在标志变量中添入该标志,并将字段宽度值取为其绝对值.
		/* get field width */
		field_width = -1;
		if (is_digit(*fmt))
    83ae:	8d 50 d0             	lea    -0x30(%eax),%edx
    83b1:	80 fa 09             	cmp    $0x9,%dl
    83b4:	77 1d                	ja     83d3 <vsprintf+0x8d>
	int i = 0;
    83b6:	31 d2                	xor    %edx,%edx
	while (is_digit(**s))
    83b8:	0f b6 29             	movzbl (%ecx),%ebp
    83bb:	8d 75 d0             	lea    -0x30(%ebp),%esi
    83be:	89 f0                	mov    %esi,%eax
    83c0:	3c 09                	cmp    $0x9,%al
    83c2:	77 28                	ja     83ec <vsprintf+0xa6>
		i = i*10 + *((*s)++) - '0';
    83c4:	6b d2 0a             	imul   $0xa,%edx,%edx
    83c7:	89 e8                	mov    %ebp,%eax
    83c9:	41                   	inc    %ecx
    83ca:	0f be c0             	movsbl %al,%eax
    83cd:	8d 54 02 d0          	lea    -0x30(%edx,%eax,1),%edx
    83d1:	eb e5                	jmp    83b8 <vsprintf+0x72>
		field_width = -1;
    83d3:	83 ca ff             	or     $0xffffffff,%edx
			field_width = skip_atoi(&fmt);
		else if (*fmt == '*') {
    83d6:	3c 2a                	cmp    $0x2a,%al
    83d8:	75 12                	jne    83ec <vsprintf+0xa6>
			/* it's the next argument */
			++fmt;
			field_width = va_arg(args, int);
    83da:	8b 17                	mov    (%edi),%edx
    83dc:	83 c7 04             	add    $0x4,%edi
			++fmt;
    83df:	8d 4e 02             	lea    0x2(%esi),%ecx
			if (field_width < 0) {
    83e2:	85 d2                	test   %edx,%edx
    83e4:	79 06                	jns    83ec <vsprintf+0xa6>
				field_width = -field_width;
				flags |= LEFT;
    83e6:	83 0c 24 10          	orl    $0x10,(%esp)
				field_width = -field_width;
    83ea:	f7 da                	neg    %edx

	// 下面这段代码,取格式转换串的精度域,并放入precision变量中.精度域开始的标志是'.'.其处理过程与上面宽度域的类似.如果精度域中是数值则直接取其为
	// 精度值.如果精度域中是字符'*',表示下一个参数指定精度.因此调用va_arg取精度值.若此时宽度值小于0,则将字段精度值取为0.
		/* get the precision */
		precision = -1;
		if (*fmt == '.') {
    83ec:	80 39 2e             	cmpb   $0x2e,(%ecx)
    83ef:	75 41                	jne    8432 <vsprintf+0xec>
			++fmt;
			if (is_digit(*fmt))
    83f1:	8a 41 01             	mov    0x1(%ecx),%al
			++fmt;
    83f4:	8d 71 01             	lea    0x1(%ecx),%esi
			if (is_digit(*fmt))
    83f7:	8d 68 d0             	lea    -0x30(%eax),%ebp
    83fa:	88 44 24 04          	mov    %al,0x4(%esp)
    83fe:	89 e8                	mov    %ebp,%eax
    8400:	3c 09                	cmp    $0x9,%al
    8402:	77 17                	ja     841b <vsprintf+0xd5>
	int i = 0;
    8404:	31 ed                	xor    %ebp,%ebp
	while (is_digit(**s))
    8406:	0f be 06             	movsbl (%esi),%eax
    8409:	8d 48 d0             	lea    -0x30(%eax),%ecx
    840c:	80 f9 09             	cmp    $0x9,%cl
    840f:	77 26                	ja     8437 <vsprintf+0xf1>
		i = i*10 + *((*s)++) - '0';
    8411:	6b ed 0a             	imul   $0xa,%ebp,%ebp
    8414:	46                   	inc    %esi
    8415:	8d 6c 05 d0          	lea    -0x30(%ebp,%eax,1),%ebp
    8419:	eb eb                	jmp    8406 <vsprintf+0xc0>
				/* it's the next argument */
                                ++fmt;
				precision = va_arg(args, int);
			}
			if (precision < 0)
				precision = 0;
    841b:	31 ed                	xor    %ebp,%ebp
			else if (*fmt == '*') {
    841d:	80 7c 24 04 2a       	cmpb   $0x2a,0x4(%esp)
    8422:	75 13                	jne    8437 <vsprintf+0xf1>
    8424:	83 3f 00             	cmpl   $0x0,(%edi)
                                ++fmt;
    8427:	8d 71 02             	lea    0x2(%ecx),%esi
    842a:	0f 49 2f             	cmovns (%edi),%ebp
				precision = va_arg(args, int);
    842d:	83 c7 04             	add    $0x4,%edi
    8430:	eb 05                	jmp    8437 <vsprintf+0xf1>
    8432:	89 ce                	mov    %ecx,%esi
		precision = -1;
    8434:	83 cd ff             	or     $0xffffffff,%ebp
		}

		// 下面这段代码分析长度修饰符,并将其存入qualifer变量.
		/* get the conversion qualifier */
		qualifier = -1;
		if (*fmt == 'h' || *fmt == 'l' || *fmt == 'L') {
    8437:	8a 06                	mov    (%esi),%al
    8439:	88 c1                	mov    %al,%cl
    843b:	83 e1 df             	and    $0xffffffdf,%ecx
    843e:	80 f9 4c             	cmp    $0x4c,%cl
    8441:	74 04                	je     8447 <vsprintf+0x101>
    8443:	3c 68                	cmp    $0x68,%al
    8445:	75 01                	jne    8448 <vsprintf+0x102>
			qualifier = *fmt;
			++fmt;
    8447:	46                   	inc    %esi
		}

		// 下面分析转换指示符.
		switch (*fmt) {
    8448:	8a 06                	mov    (%esi),%al
    844a:	3c 6e                	cmp    $0x6e,%al
    844c:	0f 84 57 01 00 00    	je     85a9 <vsprintf+0x263>
    8452:	7f 1f                	jg     8473 <vsprintf+0x12d>
    8454:	3c 63                	cmp    $0x63,%al
    8456:	74 4f                	je     84a7 <vsprintf+0x161>
    8458:	7f 04                	jg     845e <vsprintf+0x118>
    845a:	3c 58                	cmp    $0x58,%al
    845c:	eb 3e                	jmp    849c <vsprintf+0x156>
    845e:	3c 64                	cmp    $0x64,%al
    8460:	0f 84 2c 01 00 00    	je     8592 <vsprintf+0x24c>
    8466:	3c 69                	cmp    $0x69,%al
    8468:	0f 84 24 01 00 00    	je     8592 <vsprintf+0x24c>
    846e:	e9 49 01 00 00       	jmp    85bc <vsprintf+0x276>
    8473:	3c 73                	cmp    $0x73,%al
    8475:	74 75                	je     84ec <vsprintf+0x1a6>
    8477:	7f 15                	jg     848e <vsprintf+0x148>
    8479:	3c 6f                	cmp    $0x6f,%al
    847b:	0f 84 cf 00 00 00    	je     8550 <vsprintf+0x20a>
    8481:	3c 70                	cmp    $0x70,%al
    8483:	0f 84 da 00 00 00    	je     8563 <vsprintf+0x21d>
    8489:	e9 2e 01 00 00       	jmp    85bc <vsprintf+0x276>
    848e:	3c 75                	cmp    $0x75,%al
    8490:	0f 84 00 01 00 00    	je     8596 <vsprintf+0x250>
				field_width, precision, flags);
			break;

		// 如果格式转换指示是'x'或'X',则表示对应参数需要打印成十六进制数输出.'x'表示用定字母表示.
		case 'x':
			flags |= SMALL;
    8496:	83 0c 24 40          	orl    $0x40,(%esp)
		switch (*fmt) {
    849a:	3c 78                	cmp    $0x78,%al
    849c:	0f 84 cf 00 00 00    	je     8571 <vsprintf+0x22b>
    84a2:	e9 15 01 00 00       	jmp    85bc <vsprintf+0x276>
			if (!(flags & LEFT))
    84a7:	f6 04 24 10          	testb  $0x10,(%esp)
    84ab:	75 22                	jne    84cf <vsprintf+0x189>
    84ad:	8d 2c 13             	lea    (%ebx,%edx,1),%ebp
    84b0:	8d 43 01             	lea    0x1(%ebx),%eax
    84b3:	89 e9                	mov    %ebp,%ecx
    84b5:	29 c1                	sub    %eax,%ecx
				while (--field_width > 0)
    84b7:	85 c9                	test   %ecx,%ecx
    84b9:	7e 08                	jle    84c3 <vsprintf+0x17d>
					*str++ = ' ';
    84bb:	c6 40 ff 20          	movb   $0x20,-0x1(%eax)
    84bf:	89 c3                	mov    %eax,%ebx
    84c1:	eb ed                	jmp    84b0 <vsprintf+0x16a>
    84c3:	85 d2                	test   %edx,%edx
    84c5:	b8 01 00 00 00       	mov    $0x1,%eax
    84ca:	0f 4f c2             	cmovg  %edx,%eax
    84cd:	29 c2                	sub    %eax,%edx
			*str++ = (unsigned char) va_arg(args, int);
    84cf:	8d 47 04             	lea    0x4(%edi),%eax
    84d2:	43                   	inc    %ebx
    84d3:	89 44 24 04          	mov    %eax,0x4(%esp)
    84d7:	8b 07                	mov    (%edi),%eax
    84d9:	88 43 ff             	mov    %al,-0x1(%ebx)
			while (--field_width > 0)
    84dc:	4a                   	dec    %edx
    84dd:	85 d2                	test   %edx,%edx
    84df:	0f 8e ef 00 00 00    	jle    85d4 <vsprintf+0x28e>
				*str++ = ' ';
    84e5:	43                   	inc    %ebx
    84e6:	c6 43 ff 20          	movb   $0x20,-0x1(%ebx)
    84ea:	eb f0                	jmp    84dc <vsprintf+0x196>
			s = va_arg(args, char *);
    84ec:	8d 47 04             	lea    0x4(%edi),%eax
// %0 - ecx(__res),%1 - edi(字符串指针s),%2 - eax(0),%3 - ecx(0xffffffff).
// 返回:返回字符串长度.
static inline int strlen(const char * s)
{
register int __res __asm__("cx");       					// __res是寄存器变量(ecx).
__asm__(
    84ef:	83 c9 ff             	or     $0xffffffff,%ecx
    84f2:	8b 3f                	mov    (%edi),%edi
    84f4:	89 44 24 04          	mov    %eax,0x4(%esp)
    84f8:	31 c0                	xor    %eax,%eax
    84fa:	fc                   	cld    
    84fb:	f2 ae                	repnz scas %es:(%edi),%al
    84fd:	f7 d1                	not    %ecx
    84ff:	49                   	dec    %ecx
			else if (len > precision)
    8500:	83 fd ff             	cmp    $0xffffffff,%ebp
    8503:	74 04                	je     8509 <vsprintf+0x1c3>
    8505:	39 cd                	cmp    %ecx,%ebp
    8507:	7c 02                	jl     850b <vsprintf+0x1c5>
	"repne\n\t"												// al(0)与字符串中字符es:[edi比较,
	"scasb\n\t"												// 若不相等就一直比较.
	"notl %0\n\t"											// ecx取反.
	"decl %0"												// ecx--,得字符串的长度值.
	:"=c" (__res):"D" (s), "a" (0), "0" (0xffffffff));
return __res;												// 返回字符串长度值.
    8509:	89 cd                	mov    %ecx,%ebp
			if (!(flags & LEFT))
    850b:	f6 04 24 10          	testb  $0x10,(%esp)
    850f:	75 0f                	jne    8520 <vsprintf+0x1da>
				while (len < field_width--)
    8511:	4a                   	dec    %edx
    8512:	8d 42 01             	lea    0x1(%edx),%eax
    8515:	39 c5                	cmp    %eax,%ebp
    8517:	7d 07                	jge    8520 <vsprintf+0x1da>
					*str++ = ' ';
    8519:	43                   	inc    %ebx
    851a:	c6 43 ff 20          	movb   $0x20,-0x1(%ebx)
    851e:	eb f1                	jmp    8511 <vsprintf+0x1cb>
			for (i = 0; i < len; ++i)
    8520:	31 c0                	xor    %eax,%eax
    8522:	39 c5                	cmp    %eax,%ebp
    8524:	7e 09                	jle    852f <vsprintf+0x1e9>
				*str++ = *s++;
    8526:	8a 0c 07             	mov    (%edi,%eax,1),%cl
    8529:	88 0c 03             	mov    %cl,(%ebx,%eax,1)
			for (i = 0; i < len; ++i)
    852c:	40                   	inc    %eax
    852d:	eb f3                	jmp    8522 <vsprintf+0x1dc>
    852f:	85 ed                	test   %ebp,%ebp
    8531:	b8 00 00 00 00       	mov    $0x0,%eax
    8536:	0f 49 c5             	cmovns %ebp,%eax
    8539:	01 c3                	add    %eax,%ebx
    853b:	01 da                	add    %ebx,%edx
    853d:	89 d0                	mov    %edx,%eax
    853f:	29 d8                	sub    %ebx,%eax
			while (len < field_width--)
    8541:	39 c5                	cmp    %eax,%ebp
    8543:	0f 8d 8b 00 00 00    	jge    85d4 <vsprintf+0x28e>
				*str++ = ' ';
    8549:	43                   	inc    %ebx
    854a:	c6 43 ff 20          	movb   $0x20,-0x1(%ebx)
    854e:	eb ed                	jmp    853d <vsprintf+0x1f7>
			str = number(str, va_arg(args, unsigned long), 8,
    8550:	8d 47 04             	lea    0x4(%edi),%eax
    8553:	b9 08 00 00 00       	mov    $0x8,%ecx
    8558:	89 44 24 04          	mov    %eax,0x4(%esp)
    855c:	ff 34 24             	pushl  (%esp)
    855f:	55                   	push   %ebp
    8560:	52                   	push   %edx
    8561:	eb 1f                	jmp    8582 <vsprintf+0x23c>
			if (field_width == -1) {
    8563:	83 fa ff             	cmp    $0xffffffff,%edx
    8566:	75 09                	jne    8571 <vsprintf+0x22b>
				flags |= ZEROPAD;
    8568:	83 0c 24 01          	orl    $0x1,(%esp)
				field_width = 8;
    856c:	ba 08 00 00 00       	mov    $0x8,%edx
				(unsigned long) va_arg(args, void *), 16,
    8571:	8d 47 04             	lea    0x4(%edi),%eax
			str = number(str,
    8574:	b9 10 00 00 00       	mov    $0x10,%ecx
				(unsigned long) va_arg(args, void *), 16,
    8579:	89 44 24 04          	mov    %eax,0x4(%esp)
			str = number(str,
    857d:	ff 34 24             	pushl  (%esp)
    8580:	55                   	push   %ebp
    8581:	52                   	push   %edx
    8582:	8b 17                	mov    (%edi),%edx
    8584:	89 d8                	mov    %ebx,%eax
    8586:	e8 d1 fb ff ff       	call   815c <number>
			break;
    858b:	83 c4 0c             	add    $0xc,%esp
			str = number(str,
    858e:	89 c3                	mov    %eax,%ebx
			break;
    8590:	eb 42                	jmp    85d4 <vsprintf+0x28e>
			break;

		// 如果格式转换字符是'd','i'或'u',则表示对应参数是整数,'d','i'代表符号整数,因此需要加上带符号标志.'u'代表无符号整数.
		case 'd':
		case 'i':
			flags |= SIGN;
    8592:	83 0c 24 02          	orl    $0x2,(%esp)
		case 'u':
			str = number(str, va_arg(args, unsigned long), 10,
    8596:	8d 47 04             	lea    0x4(%edi),%eax
    8599:	b9 0a 00 00 00       	mov    $0xa,%ecx
    859e:	89 44 24 04          	mov    %eax,0x4(%esp)
    85a2:	ff 34 24             	pushl  (%esp)
    85a5:	55                   	push   %ebp
    85a6:	52                   	push   %edx
    85a7:	eb d9                	jmp    8582 <vsprintf+0x23c>
			break;

		// 若格式转换指示符是'n',则表示要把目前为止转换输出字符数保存到对应参数指针指定的位置中.首先利用va_arg()取得该参数指针,然后将已经转换好
		// 的字符数存入该指示的位置.
		case 'n':
			ip = va_arg(args, int *);
    85a9:	8d 47 04             	lea    0x4(%edi),%eax
			*ip = (str - buf);
    85ac:	89 da                	mov    %ebx,%edx
    85ae:	2b 54 24 1c          	sub    0x1c(%esp),%edx
			ip = va_arg(args, int *);
    85b2:	89 44 24 04          	mov    %eax,0x4(%esp)
			*ip = (str - buf);
    85b6:	8b 07                	mov    (%edi),%eax
    85b8:	89 10                	mov    %edx,(%eax)
			break;
    85ba:	eb 18                	jmp    85d4 <vsprintf+0x28e>

		// 若格式转换符不是'%',则表示格式字符串有错,直接将一个'%'写入输出串中.
		// 如果格式转换符的位置处还有字符,则也直接将该字符写入输出串中,并返回前面继续处理格式字符串.否则表示已经处理到格式字符串的结尾处,则退出循环.
		default:
			if (*fmt != '%')
    85bc:	3c 25                	cmp    $0x25,%al
    85be:	74 04                	je     85c4 <vsprintf+0x27e>
				*str++ = '%';
    85c0:	c6 03 25             	movb   $0x25,(%ebx)
    85c3:	43                   	inc    %ebx
			if (*fmt)
    85c4:	8a 06                	mov    (%esi),%al
    85c6:	84 c0                	test   %al,%al
    85c8:	74 05                	je     85cf <vsprintf+0x289>
				*str++ = *fmt;
    85ca:	88 03                	mov    %al,(%ebx)
    85cc:	43                   	inc    %ebx
    85cd:	eb 01                	jmp    85d0 <vsprintf+0x28a>
			else
				--fmt;
    85cf:	4e                   	dec    %esi
    85d0:	89 7c 24 04          	mov    %edi,0x4(%esp)
	for (str=buf ; *fmt ; ++fmt) {
    85d4:	46                   	inc    %esi
    85d5:	8b 7c 24 04          	mov    0x4(%esp),%edi
    85d9:	e9 7b fd ff ff       	jmp    8359 <vsprintf+0x13>
			break;
		}
	}
	*str = '\0';										// 最后在转换好的字符串结尾处添上null.
    85de:	c6 03 00             	movb   $0x0,(%ebx)
	return str - buf;									// 返回转换好的字符串长度值.
    85e1:	89 d8                	mov    %ebx,%eax
    85e3:	2b 44 24 1c          	sub    0x1c(%esp),%eax
}
    85e7:	83 c4 08             	add    $0x8,%esp
    85ea:	5b                   	pop    %ebx
    85eb:	5e                   	pop    %esi
    85ec:	5f                   	pop    %edi
    85ed:	5d                   	pop    %ebp
    85ee:	c3                   	ret    

000085ef <sys_ftime>:
// 返回日期和时间（ftime - Fetch time）。
// 以下返回值是-ENOSYS的系统调用函数均表示在本版本内核中还未实现。
int sys_ftime()
{
	return -ENOSYS;
}
    85ef:	b8 da ff ff ff       	mov    $0xffffffda,%eax
    85f4:	c3                   	ret    

000085f5 <sys_break>:
    85f5:	b8 da ff ff ff       	mov    $0xffffffda,%eax
    85fa:	c3                   	ret    

000085fb <sys_ptrace>:
    85fb:	b8 da ff ff ff       	mov    $0xffffffda,%eax
    8600:	c3                   	ret    

00008601 <sys_stty>:
    8601:	b8 da ff ff ff       	mov    $0xffffffda,%eax
    8606:	c3                   	ret    

00008607 <sys_gtty>:
    8607:	b8 da ff ff ff       	mov    $0xffffffda,%eax
    860c:	c3                   	ret    

0000860d <sys_rename>:
    860d:	b8 da ff ff ff       	mov    $0xffffffda,%eax
    8612:	c3                   	ret    

00008613 <sys_prof>:
    8613:	b8 da ff ff ff       	mov    $0xffffffda,%eax
    8618:	c3                   	ret    

00008619 <sys_setregid>:
 */
// 设置当前任务的实际以及/或者有效组ID（gid）。如果任务没有超级用户特权，那么只能互换其实际组ID和有效组ID。
// 如果任务具有超级用户特权，就能任意设置有效的和实际的组ID。保留的gid（saved gid）被设置成与有效gid。实际
// 组ID是指进程当前的gid。
int sys_setregid(int rgid, int egid)
{
    8619:	56                   	push   %esi
    861a:	53                   	push   %ebx
    861b:	8b 4c 24 0c          	mov    0xc(%esp),%ecx
    861f:	8b 54 24 10          	mov    0x10(%esp),%edx
    8623:	e8 04 e4 ff ff       	call   6a2c <__x86.get_pc_thunk.bx>
    8628:	81 c3 d8 89 01 00    	add    $0x189d8,%ebx
	if (rgid > 0) {
    862e:	85 c9                	test   %ecx,%ecx
    8630:	7e 29                	jle    865b <sys_setregid+0x42>
		if ((current->gid == rgid) ||
    8632:	c7 c0 60 23 02 00    	mov    $0x22360,%eax
    8638:	8b 00                	mov    (%eax),%eax
    863a:	0f b7 b0 d2 02 00 00 	movzwl 0x2d2(%eax),%esi
    8641:	39 ce                	cmp    %ecx,%esi
    8643:	74 0f                	je     8654 <sys_setregid+0x3b>
    8645:	66 83 b8 ce 02 00 00 	cmpw   $0x0,0x2ce(%eax)
    864c:	00 
    864d:	74 05                	je     8654 <sys_setregid+0x3b>
		    suser())
			current->gid = rgid;
		else
			return(-EPERM);
    864f:	83 c8 ff             	or     $0xffffffff,%eax
    8652:	eb 45                	jmp    8699 <sys_setregid+0x80>
			current->gid = rgid;
    8654:	66 89 88 d2 02 00 00 	mov    %cx,0x2d2(%eax)
			current->egid = egid;
			current->sgid = egid;
		} else
			return(-EPERM);
	}
	return 0;
    865b:	31 c0                	xor    %eax,%eax
	if (egid > 0) {
    865d:	85 d2                	test   %edx,%edx
    865f:	7e 38                	jle    8699 <sys_setregid+0x80>
		if ((current->gid == egid) ||
    8661:	c7 c0 60 23 02 00    	mov    $0x22360,%eax
    8667:	8b 00                	mov    (%eax),%eax
    8669:	0f b7 88 d2 02 00 00 	movzwl 0x2d2(%eax),%ecx
    8670:	39 d1                	cmp    %edx,%ecx
    8672:	74 15                	je     8689 <sys_setregid+0x70>
		    (current->egid == egid) ||
    8674:	0f b7 88 d4 02 00 00 	movzwl 0x2d4(%eax),%ecx
		if ((current->gid == egid) ||
    867b:	39 d1                	cmp    %edx,%ecx
    867d:	74 0a                	je     8689 <sys_setregid+0x70>
		    (current->egid == egid) ||
    867f:	66 83 b8 ce 02 00 00 	cmpw   $0x0,0x2ce(%eax)
    8686:	00 
    8687:	75 c6                	jne    864f <sys_setregid+0x36>
			current->egid = egid;
    8689:	66 89 90 d4 02 00 00 	mov    %dx,0x2d4(%eax)
			current->sgid = egid;
    8690:	66 89 90 d6 02 00 00 	mov    %dx,0x2d6(%eax)
	return 0;
    8697:	31 c0                	xor    %eax,%eax
}
    8699:	5b                   	pop    %ebx
    869a:	5e                   	pop    %esi
    869b:	c3                   	ret    

0000869c <sys_setgid>:
 */
// 设置进程组号（gid）。如果任务没有超级用户特权，它可以使用setgid()将其有效gid（effective gid）设置为成其保留
// gid（saved git）或其实际git（real gid）。如果任务有超级用户特权，则实际gid、有效gid和保留gid都被设置成参数
// 指定的gid。
int sys_setgid(int gid)
{
    869c:	e8 d9 17 00 00       	call   9e7a <__x86.get_pc_thunk.ax>
    86a1:	05 5f 89 01 00       	add    $0x1895f,%eax
    86a6:	53                   	push   %ebx
    86a7:	8b 4c 24 08          	mov    0x8(%esp),%ecx
	if (suser())
    86ab:	c7 c0 60 23 02 00    	mov    $0x22360,%eax
    86b1:	8b 10                	mov    (%eax),%edx
    86b3:	66 83 ba ce 02 00 00 	cmpw   $0x0,0x2ce(%edx)
    86ba:	00 
    86bb:	75 17                	jne    86d4 <sys_setgid+0x38>
		current->gid = current->egid = current->sgid = gid;
    86bd:	66 89 8a d6 02 00 00 	mov    %cx,0x2d6(%edx)
    86c4:	66 89 8a d4 02 00 00 	mov    %cx,0x2d4(%edx)
    86cb:	66 89 8a d2 02 00 00 	mov    %cx,0x2d2(%edx)
    86d2:	eb 20                	jmp    86f4 <sys_setgid+0x58>
	else if ((gid == current->gid) || (gid == current->sgid))
    86d4:	0f b7 82 d2 02 00 00 	movzwl 0x2d2(%edx),%eax
    86db:	39 c8                	cmp    %ecx,%eax
    86dd:	74 0e                	je     86ed <sys_setgid+0x51>
    86df:	0f b7 9a d6 02 00 00 	movzwl 0x2d6(%edx),%ebx
		current->egid = gid;
	else
		return -EPERM;
    86e6:	83 c8 ff             	or     $0xffffffff,%eax
	else if ((gid == current->gid) || (gid == current->sgid))
    86e9:	39 cb                	cmp    %ecx,%ebx
    86eb:	75 09                	jne    86f6 <sys_setgid+0x5a>
		current->egid = gid;
    86ed:	66 89 8a d4 02 00 00 	mov    %cx,0x2d4(%edx)
	return 0;
    86f4:	31 c0                	xor    %eax,%eax
}
    86f6:	5b                   	pop    %ebx
    86f7:	c3                   	ret    

000086f8 <sys_acct>:
    86f8:	b8 da ff ff ff       	mov    $0xffffffda,%eax
    86fd:	c3                   	ret    

000086fe <sys_phys>:
    86fe:	b8 da ff ff ff       	mov    $0xffffffda,%eax
    8703:	c3                   	ret    

00008704 <sys_lock>:
    8704:	b8 da ff ff ff       	mov    $0xffffffda,%eax
    8709:	c3                   	ret    

0000870a <sys_mpx>:
    870a:	b8 da ff ff ff       	mov    $0xffffffda,%eax
    870f:	c3                   	ret    

00008710 <sys_ulimit>:
    8710:	b8 da ff ff ff       	mov    $0xffffffda,%eax
    8715:	c3                   	ret    

00008716 <sys_time>:

// 返回从1970年1月1日00:00:00 GMT开始计时的时间值（秒）。如果tloc不为null，则时间值也存储在那里。
// 由于参数是一个指针，而其所指位置在用户空间，因此需要使用函数put_fs_long()来访问该值。在进入内核中运行时，段
// 寄存器fs默认地指向当前用户数据空间。因此该函数就可利用fs来访问用户空间中的值。
int sys_time(long * tloc)
{
    8716:	56                   	push   %esi
    8717:	53                   	push   %ebx
	int i;

	i = CURRENT_TIME;
    8718:	b9 64 00 00 00       	mov    $0x64,%ecx
    871d:	e8 0a e3 ff ff       	call   6a2c <__x86.get_pc_thunk.bx>
    8722:	81 c3 de 88 01 00    	add    $0x188de,%ebx
{
    8728:	83 ec 14             	sub    $0x14,%esp
	i = CURRENT_TIME;
    872b:	c7 c2 64 2a 02 00    	mov    $0x22a64,%edx
    8731:	c7 c0 6c 2a 02 00    	mov    $0x22a6c,%eax
{
    8737:	8b 74 24 20          	mov    0x20(%esp),%esi
	i = CURRENT_TIME;
    873b:	8b 00                	mov    (%eax),%eax
    873d:	03 02                	add    (%edx),%eax
    873f:	31 d2                	xor    %edx,%edx
    8741:	f7 f1                	div    %ecx
    8743:	c7 c2 68 2a 02 00    	mov    $0x22a68,%edx
    8749:	03 02                	add    (%edx),%eax
	if (tloc) {
    874b:	85 f6                	test   %esi,%esi
    874d:	74 18                	je     8767 <sys_time+0x51>
    874f:	89 44 24 0c          	mov    %eax,0xc(%esp)
		verify_area(tloc,4);            				// 验证内存容量是否够（这里是4字节）。
    8753:	50                   	push   %eax
    8754:	50                   	push   %eax
    8755:	6a 04                	push   $0x4
    8757:	56                   	push   %esi
    8758:	e8 8e f4 ff ff       	call   7beb <verify_area>
//// 将一长字存放在fs段中指定内存地址处.
// 参数:val - 长字值;addr - 内存地址.
// %0 - 寄存器(长字值val);%1 - (内存地址addr).
static inline void put_fs_long(unsigned long val,unsigned long * addr)
{
__asm__ ("movl %0,%%fs:%1"::"q" (val),"m" (*addr));
    875d:	8b 44 24 1c          	mov    0x1c(%esp),%eax
    8761:	64 89 06             	mov    %eax,%fs:(%esi)
    8764:	83 c4 10             	add    $0x10,%esp
		put_fs_long(i,(unsigned long *)tloc);   		// 放入用户数据段tloc处。
	}
	return i;
}
    8767:	83 c4 14             	add    $0x14,%esp
    876a:	5b                   	pop    %ebx
    876b:	5e                   	pop    %esi
    876c:	c3                   	ret    

0000876d <sys_setreuid>:
 * 用setuid()和保存的gid的程序将会与POSIX 100%兼容。
 */
// 设置任务的实际以及/或者有效的用户ID（uid）。如果任务没有超级用户特权，那么只能互换其实际的uid和有效的uid。如果
// 任务具有超级用户特权，就能任意设置有效的和实际的用户ID。保存的uid（saved uid）被设置成与有效uid同值。
int sys_setreuid(int ruid, int euid)
{
    876d:	e8 08 17 00 00       	call   9e7a <__x86.get_pc_thunk.ax>
    8772:	05 8e 88 01 00       	add    $0x1888e,%eax
    8777:	55                   	push   %ebp
    8778:	57                   	push   %edi
	int old_ruid = current->uid;
    8779:	c7 c0 60 23 02 00    	mov    $0x22360,%eax
{
    877f:	56                   	push   %esi
    8780:	53                   	push   %ebx

	if (ruid > 0) {
    8781:	83 7c 24 14 00       	cmpl   $0x0,0x14(%esp)
{
    8786:	8b 4c 24 18          	mov    0x18(%esp),%ecx
	int old_ruid = current->uid;
    878a:	8b 10                	mov    (%eax),%edx
    878c:	0f b7 ba cc 02 00 00 	movzwl 0x2cc(%edx),%edi
    8793:	89 fe                	mov    %edi,%esi
	if (ruid > 0) {
    8795:	7e 31                	jle    87c8 <sys_setreuid+0x5b>
		if ((current->euid == ruid) ||
    8797:	3b 7c 24 14          	cmp    0x14(%esp),%edi
    879b:	66 8b aa ce 02 00 00 	mov    0x2ce(%edx),%bp
    87a2:	0f 94 c0             	sete   %al
    87a5:	88 c3                	mov    %al,%bl
    87a7:	0f b7 c5             	movzwl %bp,%eax
    87aa:	3b 44 24 14          	cmp    0x14(%esp),%eax
    87ae:	0f 94 c0             	sete   %al
                    (old_ruid == ruid) ||
    87b1:	08 c3                	or     %al,%bl
    87b3:	75 08                	jne    87bd <sys_setreuid+0x50>
		    suser())
			current->uid = ruid;
		else
			return(-EPERM);
    87b5:	83 c8 ff             	or     $0xffffffff,%eax
                    (old_ruid == ruid) ||
    87b8:	66 85 ed             	test   %bp,%bp
    87bb:	75 41                	jne    87fe <sys_setreuid+0x91>
			current->uid = ruid;
    87bd:	8b 44 24 14          	mov    0x14(%esp),%eax
    87c1:	66 89 82 cc 02 00 00 	mov    %ax,0x2cc(%edx)
		} else {
			current->uid = old_ruid;
			return(-EPERM);
		}
	}
	return 0;
    87c8:	31 c0                	xor    %eax,%eax
	if (euid > 0) {
    87ca:	85 c9                	test   %ecx,%ecx
    87cc:	7e 30                	jle    87fe <sys_setreuid+0x91>
		if ((old_ruid == euid) ||
    87ce:	39 cf                	cmp    %ecx,%edi
    87d0:	74 10                	je     87e2 <sys_setreuid+0x75>
                    (current->euid == euid) ||
    87d2:	0f b7 9a ce 02 00 00 	movzwl 0x2ce(%edx),%ebx
    87d9:	39 cb                	cmp    %ecx,%ebx
    87db:	74 05                	je     87e2 <sys_setreuid+0x75>
    87dd:	66 85 db             	test   %bx,%bx
    87e0:	75 12                	jne    87f4 <sys_setreuid+0x87>
			current->euid = euid;
    87e2:	66 89 8a ce 02 00 00 	mov    %cx,0x2ce(%edx)
			current->suid = euid;
    87e9:	66 89 8a d0 02 00 00 	mov    %cx,0x2d0(%edx)
	return 0;
    87f0:	31 c0                	xor    %eax,%eax
			current->suid = euid;
    87f2:	eb 0a                	jmp    87fe <sys_setreuid+0x91>
			current->uid = old_ruid;
    87f4:	66 89 b2 cc 02 00 00 	mov    %si,0x2cc(%edx)
			return(-EPERM);
    87fb:	83 c8 ff             	or     $0xffffffff,%eax
}
    87fe:	5b                   	pop    %ebx
    87ff:	5e                   	pop    %esi
    8800:	5f                   	pop    %edi
    8801:	5d                   	pop    %ebp
    8802:	c3                   	ret    

00008803 <sys_setuid>:
 */
// 设置任务用户ID（uid）。如果任务没有超级用户特权，它可以使用setuid()将其有效的uid（effective uid）设置成其保存
// 的uid（saved uid）或其实际的uid（real uid）。如果用户有超级用户特权，则实际的uid、有效的uid和保存的uid都会被
// 设置成参数指定的uid。
int sys_setuid(int uid)
{
    8803:	e8 72 16 00 00       	call   9e7a <__x86.get_pc_thunk.ax>
    8808:	05 f8 87 01 00       	add    $0x187f8,%eax
    880d:	53                   	push   %ebx
    880e:	8b 4c 24 08          	mov    0x8(%esp),%ecx
	if (suser())
    8812:	c7 c0 60 23 02 00    	mov    $0x22360,%eax
    8818:	8b 10                	mov    (%eax),%edx
    881a:	66 83 ba ce 02 00 00 	cmpw   $0x0,0x2ce(%edx)
    8821:	00 
    8822:	75 17                	jne    883b <sys_setuid+0x38>
		current->uid = current->euid = current->suid = uid;
    8824:	66 89 8a d0 02 00 00 	mov    %cx,0x2d0(%edx)
    882b:	66 89 8a ce 02 00 00 	mov    %cx,0x2ce(%edx)
    8832:	66 89 8a cc 02 00 00 	mov    %cx,0x2cc(%edx)
    8839:	eb 20                	jmp    885b <sys_setuid+0x58>
	else if ((uid == current->uid) || (uid == current->suid))
    883b:	0f b7 82 cc 02 00 00 	movzwl 0x2cc(%edx),%eax
    8842:	39 c8                	cmp    %ecx,%eax
    8844:	74 0e                	je     8854 <sys_setuid+0x51>
    8846:	0f b7 9a d0 02 00 00 	movzwl 0x2d0(%edx),%ebx
		current->euid = uid;
	else
		return -EPERM;
    884d:	83 c8 ff             	or     $0xffffffff,%eax
	else if ((uid == current->uid) || (uid == current->suid))
    8850:	39 cb                	cmp    %ecx,%ebx
    8852:	75 09                	jne    885d <sys_setuid+0x5a>
		current->euid = uid;
    8854:	66 89 8a ce 02 00 00 	mov    %cx,0x2ce(%edx)
	return(0);
    885b:	31 c0                	xor    %eax,%eax
}
    885d:	5b                   	pop    %ebx
    885e:	c3                   	ret    

0000885f <sys_stime>:
// 调用进程必须具有超级用户权限。其中HZ=100,是内核系统运行频率。
// 由于参数是一个指针，而其所指位置在用户空间，因此需要使用函数get_fs_long()来访问该值。在进入内核中运行时，段
// 寄存器fs被默认地指向当前用户数据空间。因此该函数就可利用fs来访问用户空间中的值。函数参数提供的当前时间值减去
// 系统已经运行的时间秒值（jiffies/HZ）即是开机时间秒值。
int sys_stime(long * tptr)
{
    885f:	e8 1a 16 00 00       	call   9e7e <__x86.get_pc_thunk.cx>
    8864:	81 c1 9c 87 01 00    	add    $0x1879c,%ecx
	if (!suser())
    886a:	c7 c0 60 23 02 00    	mov    $0x22360,%eax
    8870:	8b 10                	mov    (%eax),%edx
    8872:	66 83 ba ce 02 00 00 	cmpw   $0x0,0x2ce(%edx)
    8879:	00 
    887a:	75 35                	jne    88b1 <sys_stime+0x52>
{
    887c:	56                   	push   %esi
    887d:	53                   	push   %ebx
		return -EPERM;          					// 如果不是超级用户则出错返回（许可）。
	startup_time = get_fs_long((unsigned long *)tptr) - jiffies / HZ;
    887e:	be 64 00 00 00       	mov    $0x64,%esi
	__asm__ ("movl %%fs:%1,%0":"=q" (_v):"m" (*addr)); \
    8883:	8b 44 24 0c          	mov    0xc(%esp),%eax
    8887:	31 d2                	xor    %edx,%edx
    8889:	64 8b 18             	mov    %fs:(%eax),%ebx
    888c:	c7 c0 6c 2a 02 00    	mov    $0x22a6c,%eax
    8892:	8b 00                	mov    (%eax),%eax
    8894:	f7 f6                	div    %esi
    8896:	29 c3                	sub    %eax,%ebx
    8898:	c7 c0 68 2a 02 00    	mov    $0x22a68,%eax
    889e:	89 18                	mov    %ebx,(%eax)
	jiffies_offset = 0;
    88a0:	c7 c0 64 2a 02 00    	mov    $0x22a64,%eax
    88a6:	c7 00 00 00 00 00    	movl   $0x0,(%eax)
	return 0;
    88ac:	31 c0                	xor    %eax,%eax
}
    88ae:	5b                   	pop    %ebx
    88af:	5e                   	pop    %esi
    88b0:	c3                   	ret    
    88b1:	83 c8 ff             	or     $0xffffffff,%eax
    88b4:	c3                   	ret    

000088b5 <sys_times>:

// 获取当前任务运行时间统计值。
// 在tbuf所指用户数据空间处返回tms结构的任务运行时间统计值。tms结构中包括进程用户运行时间、内核（系统）时间、子进
// 程用户运行时间、子进程系统运行时间。函数返回值是系统运行到当前的嘀嗒数。
int sys_times(struct tms * tbuf)
{
    88b5:	56                   	push   %esi
    88b6:	53                   	push   %ebx
    88b7:	53                   	push   %ebx
    88b8:	8b 74 24 10          	mov    0x10(%esp),%esi
    88bc:	e8 6b e1 ff ff       	call   6a2c <__x86.get_pc_thunk.bx>
    88c1:	81 c3 3f 87 01 00    	add    $0x1873f,%ebx
	if (tbuf) {
    88c7:	85 f6                	test   %esi,%esi
    88c9:	74 3c                	je     8907 <sys_times+0x52>
		verify_area(tbuf,sizeof *tbuf);
    88cb:	51                   	push   %ecx
    88cc:	51                   	push   %ecx
    88cd:	6a 10                	push   $0x10
    88cf:	56                   	push   %esi
    88d0:	e8 16 f3 ff ff       	call   7beb <verify_area>
		put_fs_long(current->utime,(unsigned long *)&tbuf->tms_utime);
    88d5:	c7 c0 60 23 02 00    	mov    $0x22360,%eax
    88db:	8b 00                	mov    (%eax),%eax
__asm__ ("movl %0,%%fs:%1"::"q" (val),"m" (*addr));
    88dd:	8b 90 e0 02 00 00    	mov    0x2e0(%eax),%edx
    88e3:	64 89 16             	mov    %edx,%fs:(%esi)
    88e6:	8b 90 e4 02 00 00    	mov    0x2e4(%eax),%edx
    88ec:	64 89 56 04          	mov    %edx,%fs:0x4(%esi)
    88f0:	8b 90 e8 02 00 00    	mov    0x2e8(%eax),%edx
    88f6:	64 89 56 08          	mov    %edx,%fs:0x8(%esi)
    88fa:	8b 80 ec 02 00 00    	mov    0x2ec(%eax),%eax
    8900:	64 89 46 0c          	mov    %eax,%fs:0xc(%esi)
    8904:	83 c4 10             	add    $0x10,%esp
		put_fs_long(current->stime,(unsigned long *)&tbuf->tms_stime);
		put_fs_long(current->cutime,(unsigned long *)&tbuf->tms_cutime);
		put_fs_long(current->cstime,(unsigned long *)&tbuf->tms_cstime);
	}
	return jiffies;
    8907:	c7 c0 6c 2a 02 00    	mov    $0x22a6c,%eax
    890d:	8b 00                	mov    (%eax),%eax
}
    890f:	5a                   	pop    %edx
    8910:	5b                   	pop    %ebx
    8911:	5e                   	pop    %esi
    8912:	c3                   	ret    

00008913 <sys_brk>:

// 当参数end_data_seg数值合理，并且系统确实有足够内存，而且进程没有超越其最大数据段大小时，该函数设置数据段末尾为
// end_data_seg指定的值。该值必须大于代码结尾并且要小于堆栈结尾16KB。返回值是数据段的新结尾值（如果返回值与要求不
// 同，则表明有错误发生)。该函数并不被用户直接调用，而由libc库函数进行包装，并且返回值也不一样。
int sys_brk(unsigned long end_data_seg)
{
    8913:	e8 62 15 00 00       	call   9e7a <__x86.get_pc_thunk.ax>
    8918:	05 e8 86 01 00       	add    $0x186e8,%eax
    891d:	8b 54 24 04          	mov    0x4(%esp),%edx
	// 如果参数值大于代码结尾，并且小于（堆栈 - 16KB），则设置新数据段结尾值。
	if (end_data_seg >= current->end_code &&
    8921:	c7 c0 60 23 02 00    	mov    $0x22360,%eax
    8927:	8b 00                	mov    (%eax),%eax
    8929:	39 90 1c 02 00 00    	cmp    %edx,0x21c(%eax)
    892f:	77 16                	ja     8947 <sys_brk+0x34>
	    end_data_seg < current->start_stack - 16384)
    8931:	8b 88 28 02 00 00    	mov    0x228(%eax),%ecx
    8937:	81 e9 00 40 00 00    	sub    $0x4000,%ecx
	if (end_data_seg >= current->end_code &&
    893d:	39 d1                	cmp    %edx,%ecx
    893f:	76 06                	jbe    8947 <sys_brk+0x34>
		current->brk = end_data_seg;
    8941:	89 90 24 02 00 00    	mov    %edx,0x224(%eax)
	return current->brk;            			// 返回进程当前的数据段结尾值。
    8947:	8b 80 24 02 00 00    	mov    0x224(%eax),%eax
}
    894d:	c3                   	ret    

0000894e <sys_setpgid>:
// 设置指定进程pid的进程组号为pgid。
// 参数pid是指定进程的进程号。如果它为0,则让pid等于当前进程的进程号。参数pgid是指定的进程组号。如果它为0,则让它等于
// 进程组号。如果该函数用于将进程从一个进程组移到另一个进程组，则这两个进程组必须属于同一个会话（session）。在这种情
// 况下，参数pgid指定了要加入的现在进程组ID，此时该组的会话ID必须与将要加入进程的相同。
int sys_setpgid(int pid, int pgid)
{
    894e:	55                   	push   %ebp
    894f:	57                   	push   %edi
    8950:	56                   	push   %esi
    8951:	53                   	push   %ebx
    8952:	e8 d5 e0 ff ff       	call   6a2c <__x86.get_pc_thunk.bx>
    8957:	81 c3 a9 86 01 00    	add    $0x186a9,%ebx
    895d:	83 ec 1c             	sub    $0x1c,%esp
	int i;

	// 如果参数pid为0,则pid取值为当前进程的进程号pid。如果参数pgid为0,则pgid也取值为当前进程的pid。[??这里与POSIX标
	// 准的描述有出入]。若pgid小于0,则返回无效错误码。
	if (!pid)
    8960:	83 7c 24 30 00       	cmpl   $0x0,0x30(%esp)
{
    8965:	8b 74 24 34          	mov    0x34(%esp),%esi
	if (!pid)
    8969:	75 12                	jne    897d <sys_setpgid+0x2f>
		pid = current->pid;
    896b:	c7 c0 60 23 02 00    	mov    $0x22360,%eax
    8971:	8b 00                	mov    (%eax),%eax
    8973:	8b 80 2c 02 00 00    	mov    0x22c(%eax),%eax
    8979:	89 44 24 30          	mov    %eax,0x30(%esp)
	if (!pgid)
    897d:	85 f6                	test   %esi,%esi
    897f:	75 0e                	jne    898f <sys_setpgid+0x41>
		pgid = current->pid;
    8981:	c7 c0 60 23 02 00    	mov    $0x22360,%eax
    8987:	8b 00                	mov    (%eax),%eax
    8989:	8b b0 2c 02 00 00    	mov    0x22c(%eax),%esi
	if (pgid < 0)
    898f:	85 f6                	test   %esi,%esi
		return -EINVAL;
    8991:	b8 ea ff ff ff       	mov    $0xffffffea,%eax
	if (pgid < 0)
    8996:	0f 88 8d 00 00 00    	js     8a29 <sys_setpgid+0xdb>
	// 扫描任务数组，查找指定进程号pid的任务。如果找到了进程号是pid的进程，并且该进程的父进程就是当前进程或者该进程就是当
	// 前进程，那么若该任务已经是会话首领，则出错返回。若该任务的会话号（session）与当前进程的不同，或者指定的进程组号pgid
	// 与pid不同并且pgid进程组所属会话号与当前进程所属会话号不同，则也出错返回。否则把查找到的进程的pgrp设置为pgid，并
	// 返回0。若没有找到指定pid的进程，则返回进程不存在出错码。
	for (i = 0 ; i < NR_TASKS ; i++)
		if (task[i] && (task[i]->pid == pid) && ((task[i]->p_pptr == current) || (task[i] == current))) {
    899c:	c7 c5 60 23 02 00    	mov    $0x22360,%ebp
    89a2:	c7 c0 60 22 02 00    	mov    $0x22260,%eax
	for (i = 0 ; i < NR_TASKS ; i++)
    89a8:	31 ff                	xor    %edi,%edi
		if (task[i] && (task[i]->pid == pid) && ((task[i]->p_pptr == current) || (task[i] == current))) {
    89aa:	8b 4d 00             	mov    0x0(%ebp),%ecx
    89ad:	89 44 24 0c          	mov    %eax,0xc(%esp)
    89b1:	8b 44 24 0c          	mov    0xc(%esp),%eax
    89b5:	8b 04 b8             	mov    (%eax,%edi,4),%eax
    89b8:	85 c0                	test   %eax,%eax
    89ba:	74 62                	je     8a1e <sys_setpgid+0xd0>
    89bc:	8b 90 2c 02 00 00    	mov    0x22c(%eax),%edx
    89c2:	3b 54 24 30          	cmp    0x30(%esp),%edx
    89c6:	75 56                	jne    8a1e <sys_setpgid+0xd0>
    89c8:	39 88 bc 02 00 00    	cmp    %ecx,0x2bc(%eax)
    89ce:	74 04                	je     89d4 <sys_setpgid+0x86>
    89d0:	39 c8                	cmp    %ecx,%eax
    89d2:	75 4a                	jne    8a1e <sys_setpgid+0xd0>
			if (task[i]->leader)
    89d4:	83 b8 38 02 00 00 00 	cmpl   $0x0,0x238(%eax)
    89db:	74 05                	je     89e2 <sys_setpgid+0x94>
				return -EPERM;
    89dd:	83 c8 ff             	or     $0xffffffff,%eax
    89e0:	eb 47                	jmp    8a29 <sys_setpgid+0xdb>
			if ((task[i]->session != current->session) ||
    89e2:	8b 89 34 02 00 00    	mov    0x234(%ecx),%ecx
    89e8:	39 88 34 02 00 00    	cmp    %ecx,0x234(%eax)
    89ee:	75 ed                	jne    89dd <sys_setpgid+0x8f>
    89f0:	39 f2                	cmp    %esi,%edx
    89f2:	75 11                	jne    8a05 <sys_setpgid+0xb7>
			    ((pgid != pid) &&
			     (session_of_pgrp(pgid) != current->session)))
				return -EPERM;
			task[i]->pgrp = pgid;
    89f4:	8b 44 24 0c          	mov    0xc(%esp),%eax
    89f8:	8b 04 b8             	mov    (%eax,%edi,4),%eax
    89fb:	89 b0 30 02 00 00    	mov    %esi,0x230(%eax)
			return 0;
    8a01:	31 c0                	xor    %eax,%eax
    8a03:	eb 24                	jmp    8a29 <sys_setpgid+0xdb>
			     (session_of_pgrp(pgid) != current->session)))
    8a05:	83 ec 0c             	sub    $0xc,%esp
    8a08:	56                   	push   %esi
    8a09:	e8 ee 09 00 00       	call   93fc <session_of_pgrp>
    8a0e:	8b 4d 00             	mov    0x0(%ebp),%ecx
			    ((pgid != pid) &&
    8a11:	83 c4 10             	add    $0x10,%esp
    8a14:	3b 81 34 02 00 00    	cmp    0x234(%ecx),%eax
    8a1a:	74 d8                	je     89f4 <sys_setpgid+0xa6>
    8a1c:	eb bf                	jmp    89dd <sys_setpgid+0x8f>
	for (i = 0 ; i < NR_TASKS ; i++)
    8a1e:	47                   	inc    %edi
    8a1f:	83 ff 40             	cmp    $0x40,%edi
    8a22:	75 8d                	jne    89b1 <sys_setpgid+0x63>
		}
	return -ESRCH;
    8a24:	b8 fd ff ff ff       	mov    $0xfffffffd,%eax
}
    8a29:	83 c4 1c             	add    $0x1c,%esp
    8a2c:	5b                   	pop    %ebx
    8a2d:	5e                   	pop    %esi
    8a2e:	5f                   	pop    %edi
    8a2f:	5d                   	pop    %ebp
    8a30:	c3                   	ret    

00008a31 <sys_getpgrp>:

// 返回当前进程的进程组号。与getpgid(0)等同。
int sys_getpgrp(void)
{
    8a31:	e8 44 14 00 00       	call   9e7a <__x86.get_pc_thunk.ax>
    8a36:	05 ca 85 01 00       	add    $0x185ca,%eax
	return current->pgrp;
    8a3b:	c7 c0 60 23 02 00    	mov    $0x22360,%eax
    8a41:	8b 00                	mov    (%eax),%eax
    8a43:	8b 80 30 02 00 00    	mov    0x230(%eax),%eax
}
    8a49:	c3                   	ret    

00008a4a <sys_setsid>:

// 创建一个会话（session）（即设置其leader = 1），并且设置其会话号=其组号=其进程号。
// 如果当前进程已是会话首领并且不是超级用户，则出错返回。否则设置当前进程为新会话首领（leader = 1），并且设置当前进程会话
// 号session和组号pgrp都等于进程号pid，而且设置当前进程没有控制终端。最后系统调用返回会话号。
int sys_setsid(void)
{
    8a4a:	e8 2b 14 00 00       	call   9e7a <__x86.get_pc_thunk.ax>
    8a4f:	05 b1 85 01 00       	add    $0x185b1,%eax
	if (current->leader && !suser())
    8a54:	c7 c0 60 23 02 00    	mov    $0x22360,%eax
    8a5a:	8b 10                	mov    (%eax),%edx
    8a5c:	83 ba 38 02 00 00 00 	cmpl   $0x0,0x238(%edx)
    8a63:	74 0d                	je     8a72 <sys_setsid+0x28>
		return -EPERM;
    8a65:	83 c8 ff             	or     $0xffffffff,%eax
	if (current->leader && !suser())
    8a68:	66 83 ba ce 02 00 00 	cmpw   $0x0,0x2ce(%edx)
    8a6f:	00 
    8a70:	75 26                	jne    8a98 <sys_setsid+0x4e>
	current->leader = 1;
	current->session = current->pgrp = current->pid;
    8a72:	8b 82 2c 02 00 00    	mov    0x22c(%edx),%eax
	current->leader = 1;
    8a78:	c7 82 38 02 00 00 01 	movl   $0x1,0x238(%edx)
    8a7f:	00 00 00 
	current->tty = -1;      				// 表示当前进程没有控制终端。
    8a82:	c7 82 2c 03 00 00 ff 	movl   $0xffffffff,0x32c(%edx)
    8a89:	ff ff ff 
	current->session = current->pgrp = current->pid;
    8a8c:	89 82 30 02 00 00    	mov    %eax,0x230(%edx)
    8a92:	89 82 34 02 00 00    	mov    %eax,0x234(%edx)
	return current->pgrp;
}
    8a98:	c3                   	ret    

00008a99 <sys_getgroups>:
// 取当前进程其他辅助用户组号。
// 任务数据结构中groups[]数组保存着进程同时所属的多个用户组号。该数组共NGROUPS个项，若某项值是NOGROUP（即为-1），则
// 表示从该项开始以后所有项都空闲。否则数组项中保存的是用户组号。
// 参数gidsetsize是获取的用户组号个数；grouplist是存储这些用户组号的用户空间缓存。
int sys_getgroups(int gidsetsize, gid_t *grouplist)
{
    8a99:	57                   	push   %edi
    8a9a:	56                   	push   %esi
    8a9b:	53                   	push   %ebx
    8a9c:	8b 74 24 10          	mov    0x10(%esp),%esi
    8aa0:	e8 87 df ff ff       	call   6a2c <__x86.get_pc_thunk.bx>
    8aa5:	81 c3 5b 85 01 00    	add    $0x1855b,%ebx
    8aab:	8b 7c 24 14          	mov    0x14(%esp),%edi

	// 首先验证grouplist指针所指的用户缓存空间是否足够，然后从当前进程结构的groups[]数组中逐个取得用户组号并复制到用户缓存
	// 中。在复制过程中，如果groups[]中的项数大于给定的参数gitsetsize所指定的个数，则表示用户给出的缓存太小，不能容下当前
	// 进程所有组号，因此此次取组号操作会出错返回。若复制过程正常，则函数最后会返回复制的用户组号个数。（gidsetsize - gid
	// set size，用户组号集大小）。
	if (gidsetsize)
    8aaf:	85 f6                	test   %esi,%esi
    8ab1:	74 0f                	je     8ac2 <sys_getgroups+0x29>
		verify_area(grouplist, sizeof(gid_t) * gidsetsize);
    8ab3:	50                   	push   %eax
    8ab4:	50                   	push   %eax
    8ab5:	8d 04 36             	lea    (%esi,%esi,1),%eax
    8ab8:	50                   	push   %eax
    8ab9:	57                   	push   %edi
    8aba:	e8 2c f1 ff ff       	call   7beb <verify_area>
    8abf:	83 c4 10             	add    $0x10,%esp

	for (i = 0; (i < NGROUPS) && (current->groups[i] != NOGROUP); i++, grouplist++) {
    8ac2:	c7 c0 60 23 02 00    	mov    $0x22360,%eax
    8ac8:	8b 18                	mov    (%eax),%ebx
    8aca:	31 c0                	xor    %eax,%eax
    8acc:	8b 8c 83 3c 02 00 00 	mov    0x23c(%ebx,%eax,4),%ecx
    8ad3:	8d 14 00             	lea    (%eax,%eax,1),%edx
    8ad6:	01 fa                	add    %edi,%edx
    8ad8:	83 f9 ff             	cmp    $0xffffffff,%ecx
    8adb:	74 19                	je     8af6 <sys_getgroups+0x5d>
		if (gidsetsize) {
    8add:	85 f6                	test   %esi,%esi
    8adf:	74 08                	je     8ae9 <sys_getgroups+0x50>
			if (i >= gidsetsize)
    8ae1:	39 c6                	cmp    %eax,%esi
    8ae3:	7e 0c                	jle    8af1 <sys_getgroups+0x58>
__asm__ ("movw %0,%%fs:%1"::"q" (val),"m" (*addr));
    8ae5:	64 66 89 0a          	mov    %cx,%fs:(%edx)
	for (i = 0; (i < NGROUPS) && (current->groups[i] != NOGROUP); i++, grouplist++) {
    8ae9:	40                   	inc    %eax
    8aea:	83 f8 20             	cmp    $0x20,%eax
    8aed:	75 dd                	jne    8acc <sys_getgroups+0x33>
    8aef:	eb 05                	jmp    8af6 <sys_getgroups+0x5d>
				return -EINVAL;
    8af1:	b8 ea ff ff ff       	mov    $0xffffffea,%eax
			put_fs_word(current->groups[i], (short *) grouplist);
		}
	}
	return(i);              				// 返回实际含有的用户组号个数。
}
    8af6:	5b                   	pop    %ebx
    8af7:	5e                   	pop    %esi
    8af8:	5f                   	pop    %edi
    8af9:	c3                   	ret    

00008afa <sys_setgroups>:

// 设置当前进程同时所属的其他辅助用户组号。
// 参数gidsetsize是将设置的用户组号个数；grouplist是含有用户组号的用户空间缓存。
int sys_setgroups(int gidsetsize, gid_t *grouplist)
{
    8afa:	e8 7b 13 00 00       	call   9e7a <__x86.get_pc_thunk.ax>
    8aff:	05 01 85 01 00       	add    $0x18501,%eax
    8b04:	53                   	push   %ebx
    8b05:	8b 54 24 08          	mov    0x8(%esp),%edx
	int	i;

	// 首先查权限和参数的有效性。只有超级用户可以修改或设置当前进程的辅助用户组号，而且设置的项数不能超过进程的groups[NGROUPS]
	// 数组的容量。然后从用户缓冲中逐个复制用户组号，共gidsetsize个。如果复制的个数没有填满group[]，则在随后一项上填上值为-1
	// 的项（NOGROUP）。最后函数返回0。
	if (!suser())
    8b09:	c7 c0 60 23 02 00    	mov    $0x22360,%eax
    8b0f:	8b 08                	mov    (%eax),%ecx
		return -EPERM;
    8b11:	83 c8 ff             	or     $0xffffffff,%eax
	if (!suser())
    8b14:	66 83 b9 ce 02 00 00 	cmpw   $0x0,0x2ce(%ecx)
    8b1b:	00 
    8b1c:	75 44                	jne    8b62 <sys_setgroups+0x68>
	if (gidsetsize > NGROUPS)
    8b1e:	83 fa 20             	cmp    $0x20,%edx
		return -EINVAL;
    8b21:	b8 ea ff ff ff       	mov    $0xffffffea,%eax
	if (gidsetsize > NGROUPS)
    8b26:	7f 3a                	jg     8b62 <sys_setgroups+0x68>
	for (i = 0; i < gidsetsize; i++, grouplist++) {
    8b28:	31 c0                	xor    %eax,%eax
    8b2a:	8d 1c 00             	lea    (%eax,%eax,1),%ebx
    8b2d:	03 5c 24 0c          	add    0xc(%esp),%ebx
    8b31:	39 d0                	cmp    %edx,%eax
    8b33:	7d 11                	jge    8b46 <sys_setgroups+0x4c>
	__asm__ ("movw %%fs:%1,%0":"=q" (_v):"m" (*addr));
    8b35:	64 66 8b 1b          	mov    %fs:(%ebx),%bx
		current->groups[i] = get_fs_word((unsigned short *) grouplist);
    8b39:	0f b7 db             	movzwl %bx,%ebx
    8b3c:	89 9c 81 3c 02 00 00 	mov    %ebx,0x23c(%ecx,%eax,4)
	for (i = 0; i < gidsetsize; i++, grouplist++) {
    8b43:	40                   	inc    %eax
    8b44:	eb e4                	jmp    8b2a <sys_setgroups+0x30>
    8b46:	85 d2                	test   %edx,%edx
    8b48:	bb 00 00 00 00       	mov    $0x0,%ebx
    8b4d:	0f 49 da             	cmovns %edx,%ebx
	}
	if (i < NGROUPS)
		current->groups[i] = NOGROUP;
	return 0;
    8b50:	31 c0                	xor    %eax,%eax
	if (i < NGROUPS)
    8b52:	83 fa 20             	cmp    $0x20,%edx
    8b55:	74 0b                	je     8b62 <sys_setgroups+0x68>
		current->groups[i] = NOGROUP;
    8b57:	c7 84 99 3c 02 00 00 	movl   $0xffffffff,0x23c(%ecx,%ebx,4)
    8b5e:	ff ff ff ff 
}
    8b62:	5b                   	pop    %ebx
    8b63:	c3                   	ret    

00008b64 <in_group_p>:

// 检查当前进程是否在指定的用户组grp中.是则返回1,否则返回0.
int in_group_p(gid_t grp)
{
    8b64:	e8 11 13 00 00       	call   9e7a <__x86.get_pc_thunk.ax>
    8b69:	05 97 84 01 00       	add    $0x18497,%eax
    8b6e:	53                   	push   %ebx
    8b6f:	8b 5c 24 08          	mov    0x8(%esp),%ebx
	int	i;

	// 如果当前进程的有效组号就是grp,则表示进程属于grp进程组.函数返回1.否则就在进程的辅助用户组数组中扫描是否有grp进程组号.若
	// 有则函数也返回1.若扫描到值为NOGROUP的项,表示已扫描完全部有效项没有发现匹配的组号,因此函数返回0.
	if (grp == current->egid)
    8b73:	c7 c0 60 23 02 00    	mov    $0x22360,%eax
    8b79:	8b 08                	mov    (%eax),%ecx
		return 1;
    8b7b:	b8 01 00 00 00       	mov    $0x1,%eax
	if (grp == current->egid)
    8b80:	66 39 99 d4 02 00 00 	cmp    %bx,0x2d4(%ecx)
    8b87:	74 24                	je     8bad <in_group_p+0x49>
    8b89:	0f b7 d3             	movzwl %bx,%edx

	for (i = 0; i < NGROUPS; i++) {
    8b8c:	31 c0                	xor    %eax,%eax
		if (current->groups[i] == NOGROUP)
    8b8e:	8b 9c 81 3c 02 00 00 	mov    0x23c(%ecx,%eax,4),%ebx
    8b95:	83 fb ff             	cmp    $0xffffffff,%ebx
    8b98:	74 0a                	je     8ba4 <in_group_p+0x40>
			break;
		if (current->groups[i] == grp)
    8b9a:	39 d3                	cmp    %edx,%ebx
    8b9c:	74 0a                	je     8ba8 <in_group_p+0x44>
	for (i = 0; i < NGROUPS; i++) {
    8b9e:	40                   	inc    %eax
    8b9f:	83 f8 20             	cmp    $0x20,%eax
    8ba2:	75 ea                	jne    8b8e <in_group_p+0x2a>
			return 1;
	}
	return 0;
    8ba4:	31 c0                	xor    %eax,%eax
    8ba6:	eb 05                	jmp    8bad <in_group_p+0x49>
		return 1;
    8ba8:	b8 01 00 00 00       	mov    $0x1,%eax
}
    8bad:	5b                   	pop    %ebx
    8bae:	c3                   	ret    

00008baf <sys_uname>:
	UTS_SYSNAME, UTS_NODENAME, UTS_RELEASE, UTS_VERSION, UTS_MACHINE
};

// 获取系统名称等信息。
int sys_uname(struct utsname * name)
{
    8baf:	56                   	push   %esi
    8bb0:	53                   	push   %ebx
    8bb1:	b8 9d ff ff ff       	mov    $0xffffff9d,%eax
    8bb6:	53                   	push   %ebx
    8bb7:	8b 74 24 10          	mov    0x10(%esp),%esi
    8bbb:	e8 6c de ff ff       	call   6a2c <__x86.get_pc_thunk.bx>
    8bc0:	81 c3 40 84 01 00    	add    $0x18440,%ebx
	int i;

	if (!name) return -ERROR;
    8bc6:	85 f6                	test   %esi,%esi
    8bc8:	74 22                	je     8bec <sys_uname+0x3d>
	verify_area(name,sizeof *name);
    8bca:	51                   	push   %ecx
    8bcb:	51                   	push   %ecx
    8bcc:	6a 2d                	push   $0x2d
    8bce:	56                   	push   %esi
    8bcf:	e8 17 f0 ff ff       	call   7beb <verify_area>
    8bd4:	83 c4 10             	add    $0x10,%esp
	for(i = 0; i < sizeof *name; i++)
    8bd7:	31 c0                	xor    %eax,%eax
__asm__ ("movb %0,%%fs:%1"::"q" (val),"m" (*addr));
    8bd9:	8a 94 18 a0 00 00 00 	mov    0xa0(%eax,%ebx,1),%dl
    8be0:	64 88 14 06          	mov    %dl,%fs:(%esi,%eax,1)
    8be4:	40                   	inc    %eax
    8be5:	83 f8 2d             	cmp    $0x2d,%eax
    8be8:	75 ef                	jne    8bd9 <sys_uname+0x2a>
		put_fs_byte(((char *) &thisname)[i], i + (char *) name);
	return 0;
    8bea:	31 c0                	xor    %eax,%eax
}
    8bec:	5a                   	pop    %edx
    8bed:	5b                   	pop    %ebx
    8bee:	5e                   	pop    %esi
    8bef:	c3                   	ret    

00008bf0 <sys_sethostname>:
 * 通过调用uname()只能实现sethostname和gethostname。
 */
// 设置系统主机名（系统的网络节点名）。
// 参数name指针指向用户数据区中含有主机名字符串的缓冲区；len是主机名字符串长度。
int sys_sethostname(char *name, int len)
{
    8bf0:	e8 33 de ff ff       	call   6a28 <__x86.get_pc_thunk.dx>
    8bf5:	81 c2 0b 84 01 00    	add    $0x1840b,%edx
    8bfb:	53                   	push   %ebx
    8bfc:	8b 4c 24 0c          	mov    0xc(%esp),%ecx
	int	i;

	// 系统主机名只能由超级用户设置或修改，并且主机名长度不能超过最大长度MAXHOSTNAMELEN。
	if (!suser())
    8c00:	c7 c0 60 23 02 00    	mov    $0x22360,%eax
    8c06:	8b 18                	mov    (%eax),%ebx
		return -EPERM;
    8c08:	83 c8 ff             	or     $0xffffffff,%eax
	if (!suser())
    8c0b:	66 83 bb ce 02 00 00 	cmpw   $0x0,0x2ce(%ebx)
    8c12:	00 
    8c13:	75 3b                	jne    8c50 <sys_sethostname+0x60>
	if (len > MAXHOSTNAMELEN)
    8c15:	83 f9 08             	cmp    $0x8,%ecx
		return -EINVAL;
    8c18:	b8 ea ff ff ff       	mov    $0xffffffea,%eax
	if (len > MAXHOSTNAMELEN)
    8c1d:	7f 31                	jg     8c50 <sys_sethostname+0x60>
	for (i = 0; i < len; i++) {
    8c1f:	31 c0                	xor    %eax,%eax
    8c21:	39 c8                	cmp    %ecx,%eax
    8c23:	7d 13                	jge    8c38 <sys_sethostname+0x48>
	__asm__ ("movb %%fs:%1,%0":"=q" (_v):"m" (*addr));
    8c25:	8b 5c 24 08          	mov    0x8(%esp),%ebx
    8c29:	64 8a 1c 03          	mov    %fs:(%ebx,%eax,1),%bl
		if ((thisname.nodename[i] = get_fs_byte(name + i)) == 0)
    8c2d:	84 db                	test   %bl,%bl
    8c2f:	88 9c 10 a9 00 00 00 	mov    %bl,0xa9(%eax,%edx,1)
    8c36:	75 13                	jne    8c4b <sys_sethostname+0x5b>
			break;
	}
	// 在复制完毕后，如果用户提供的字符串没有包含NULL字符，那么若复制的主机名长度还没有超过MAXHOSTNAMELEN，则在主机名字
	// 符串后添加一个NULL。若已经填满MAXHOSTNAMELEN个字符，则把最后一个字符改成NULL字符。即thisname.nodename[min(
	// i,MAXHOSTNAMELEN)] = 0。
	if (thisname.nodename[i]) {
    8c38:	8d 84 02 a0 00 00 00 	lea    0xa0(%edx,%eax,1),%eax
    8c3f:	80 78 09 00          	cmpb   $0x0,0x9(%eax)
    8c43:	74 09                	je     8c4e <sys_sethostname+0x5e>
		thisname.nodename[i > MAXHOSTNAMELEN ? MAXHOSTNAMELEN : i] = 0;
    8c45:	c6 40 09 00          	movb   $0x0,0x9(%eax)
    8c49:	eb 03                	jmp    8c4e <sys_sethostname+0x5e>
	for (i = 0; i < len; i++) {
    8c4b:	40                   	inc    %eax
    8c4c:	eb d3                	jmp    8c21 <sys_sethostname+0x31>
	}
	return 0;
    8c4e:	31 c0                	xor    %eax,%eax
}
    8c50:	5b                   	pop    %ebx
    8c51:	c3                   	ret    

00008c52 <sys_getrlimit>:
// 界限（hard limit，即硬限制）。rlim[]数组的每一项对应系统对当前进程一种资源的界限信息。Linux 0.12系统共对6种资源
// 规定了界限，即RLIM_NLIMITS=6。请参考头文件include/sys/resource.h说明。
// 参数resource指定我们咨询的资源名称，实际上它是任务结构中rlim[]数组的索引项值。
// 参数rlim是指向rlimit结构的用户缓冲区指针，用于存放取得的资源界限信息。
int sys_getrlimit(int resource, struct rlimit *rlim)
{
    8c52:	57                   	push   %edi
    8c53:	56                   	push   %esi
    8c54:	b8 ea ff ff ff       	mov    $0xffffffea,%eax
    8c59:	53                   	push   %ebx
    8c5a:	8b 7c 24 10          	mov    0x10(%esp),%edi
    8c5e:	e8 c9 dd ff ff       	call   6a2c <__x86.get_pc_thunk.bx>
    8c63:	81 c3 9d 83 01 00    	add    $0x1839d,%ebx
    8c69:	8b 74 24 14          	mov    0x14(%esp),%esi
	// 所咨询的资源resource实际上是进程任务结构中rlim[]数组的索引项值。该索引值当然不能大于数组的最大项数RLIM_NLIMITS。
	// 在验证过rlim指针所指用户缓冲足够以后，这里就把参数指定的资源resource结构信息复制到用户缓冲区中，并返回0。
	if (resource >= RLIM_NLIMITS)
    8c6d:	83 ff 05             	cmp    $0x5,%edi
    8c70:	7f 2d                	jg     8c9f <sys_getrlimit+0x4d>
		return -EINVAL;
	verify_area(rlim, sizeof *rlim);
    8c72:	50                   	push   %eax
    8c73:	50                   	push   %eax
    8c74:	6a 08                	push   $0x8
    8c76:	56                   	push   %esi
    8c77:	e8 6f ef ff ff       	call   7beb <verify_area>
    8c7c:	c7 c0 60 23 02 00    	mov    $0x22360,%eax
    8c82:	8b 00                	mov    (%eax),%eax
    8c84:	8d 04 f8             	lea    (%eax,%edi,8),%eax
__asm__ ("movl %0,%%fs:%1"::"q" (val),"m" (*addr));
    8c87:	8b 90 f4 02 00 00    	mov    0x2f4(%eax),%edx
    8c8d:	64 89 16             	mov    %edx,%fs:(%esi)
    8c90:	8b 80 f8 02 00 00    	mov    0x2f8(%eax),%eax
    8c96:	64 89 46 04          	mov    %eax,%fs:0x4(%esi)
	put_fs_long(current->rlim[resource].rlim_cur,           // 当前（软）限制值。
		    (unsigned long *) rlim);
	put_fs_long(current->rlim[resource].rlim_max,           // 系统（硬）限制值。
		    ((unsigned long *) rlim) + 1);
	return 0;
    8c9a:	31 c0                	xor    %eax,%eax
    8c9c:	83 c4 10             	add    $0x10,%esp
}
    8c9f:	5b                   	pop    %ebx
    8ca0:	5e                   	pop    %esi
    8ca1:	5f                   	pop    %edi
    8ca2:	c3                   	ret    

00008ca3 <sys_setrlimit>:

// 设置当前进程指定资源的界限值。
// 参数resource指定我们设置界限的资源名称，实际上它是任务结构中rlim[]数组的索引项值。
// 参数rlim是指向rlimit结构的用户缓冲区指针，用于内核读取新的资源界限信息。
int sys_setrlimit(int resource, struct rlimit *rlim)
{
    8ca3:	56                   	push   %esi
    8ca4:	53                   	push   %ebx
	// 首先判断参数resource（任务结构rlim[]项索引值）有效性。然后先让rlimit结构指针old指向进程任务结构中指定资源的当前
	// rlimit结构信息。接着把用户提供的资源界限信息复制到临时rlimit结构new中。此时如果判断出new结构中的软界限值或硬界限
	// 值大于进程该资源原硬界限值，并且当前不是超级用户的话，就返回许可出错。否则表示new中信息合理或者进程是超级用户进程，
	// 则修改原进程指定资源信息等于new结构中的信息，并成功返回0。
	if (resource >= RLIM_NLIMITS)
		return -EINVAL;
    8ca5:	b8 ea ff ff ff       	mov    $0xffffffea,%eax
{
    8caa:	8b 54 24 0c          	mov    0xc(%esp),%edx
    8cae:	8b 4c 24 10          	mov    0x10(%esp),%ecx
    8cb2:	e8 75 dd ff ff       	call   6a2c <__x86.get_pc_thunk.bx>
    8cb7:	81 c3 49 83 01 00    	add    $0x18349,%ebx
	if (resource >= RLIM_NLIMITS)
    8cbd:	83 fa 05             	cmp    $0x5,%edx
    8cc0:	7f 35                	jg     8cf7 <sys_setrlimit+0x54>
	old = current->rlim + resource;
    8cc2:	c7 c0 60 23 02 00    	mov    $0x22360,%eax
	__asm__ ("movl %%fs:%1,%0":"=q" (_v):"m" (*addr)); \
    8cc8:	64 8b 19             	mov    %fs:(%ecx),%ebx
    8ccb:	64 8b 49 04          	mov    %fs:0x4(%ecx),%ecx
    8ccf:	8b 30                	mov    (%eax),%esi
    8cd1:	8d 94 d6 f4 02 00 00 	lea    0x2f4(%esi,%edx,8),%edx
	new.rlim_cur = get_fs_long((unsigned long *) rlim);
	new.rlim_max = get_fs_long(((unsigned long *) rlim) + 1);
	if (((new.rlim_cur > old->rlim_max) || (new.rlim_max > old->rlim_max)) && !suser())
    8cd8:	8b 42 04             	mov    0x4(%edx),%eax
    8cdb:	39 c1                	cmp    %eax,%ecx
    8cdd:	7f 04                	jg     8ce3 <sys_setrlimit+0x40>
    8cdf:	39 c3                	cmp    %eax,%ebx
    8ce1:	7e 0d                	jle    8cf0 <sys_setrlimit+0x4d>
		return -EPERM;
    8ce3:	83 c8 ff             	or     $0xffffffff,%eax
	if (((new.rlim_cur > old->rlim_max) || (new.rlim_max > old->rlim_max)) && !suser())
    8ce6:	66 83 be ce 02 00 00 	cmpw   $0x0,0x2ce(%esi)
    8ced:	00 
    8cee:	75 07                	jne    8cf7 <sys_setrlimit+0x54>
	*old = new;
    8cf0:	89 1a                	mov    %ebx,(%edx)
    8cf2:	89 4a 04             	mov    %ecx,0x4(%edx)
	return 0;
    8cf5:	31 c0                	xor    %eax,%eax
}
    8cf7:	5b                   	pop    %ebx
    8cf8:	5e                   	pop    %esi
    8cf9:	c3                   	ret    

00008cfa <sys_getrusage>:
// 获取指定进程的资源利用信息。
// 本系统调用提供当前进程或其已终止的和等待着的子进程资源使用情况。如果参数who等于RUSAGE_SELF，则返回当前进程的资源利用
// 信息。如果指定进程who是RUSAGE_CHILDREN，则返回当前进程的已终止和等待着的子进程资源利用信息。符号常数RUSAGE_SELF和
// RUSAGE_CHILDREN以及rusage结构都定义在include/sys/resource.h文件中。
int sys_getrusage(int who, struct rusage *ru)
{
    8cfa:	55                   	push   %ebp
    8cfb:	57                   	push   %edi
    8cfc:	b8 ea ff ff ff       	mov    $0xffffffea,%eax
    8d01:	56                   	push   %esi
    8d02:	53                   	push   %ebx
    8d03:	e8 24 dd ff ff       	call   6a2c <__x86.get_pc_thunk.bx>
    8d08:	81 c3 f8 82 01 00    	add    $0x182f8,%ebx
    8d0e:	83 ec 5c             	sub    $0x5c,%esp
    8d11:	8b 74 24 70          	mov    0x70(%esp),%esi
    8d15:	8b 6c 24 74          	mov    0x74(%esp),%ebp
	struct rusage r;
	unsigned long	*lp, *lpend, *dest;

	// 首先判断参数指定进程的有效性。如果who即不是RUSAGE_SELF（指定当前进程），也不是RUSAGE_CHILDREN（指定子进程），则以
	// 无效参数码返回。否则在验证了指针ru指定的用户缓冲区域后，把临时rusage结构区域r清零。
	if (who != RUSAGE_SELF && who != RUSAGE_CHILDREN)
    8d19:	8d 56 01             	lea    0x1(%esi),%edx
    8d1c:	83 fa 01             	cmp    $0x1,%edx
    8d1f:	0f 87 94 00 00 00    	ja     8db9 <sys_getrusage+0xbf>
		return -EINVAL;
	verify_area(ru, sizeof *ru);
    8d25:	50                   	push   %eax
    8d26:	50                   	push   %eax
    8d27:	6a 48                	push   $0x48
    8d29:	55                   	push   %ebp
    8d2a:	e8 bc ee ff ff       	call   7beb <verify_area>
// 用字符填写指定长度内存块.
// 用字符c填写s指向的内存区域,共填count字节.
// %0 - eax(字符c),%1 - edi(内存地址),%2 - ecx(字节数count).
static inline void * memset(void * s, char c, int count)
{
__asm__(
    8d2f:	8d 7c 24 18          	lea    0x18(%esp),%edi
    8d33:	31 c0                	xor    %eax,%eax
    8d35:	b9 48 00 00 00       	mov    $0x48,%ecx
    8d3a:	fc                   	cld    
    8d3b:	57                   	push   %edi
    8d3c:	f3 aa                	rep stos %al,%es:(%edi)
    8d3e:	5f                   	pop    %edi
    8d3f:	c7 c0 60 23 02 00    	mov    $0x22360,%eax
	memset((char *) &r, 0, sizeof(r));
	// 若参数who是RUSAGE_SELF，则复制当前进程资源利用信息到r结构中。若指定进程who是RUSAGE_CHILDREN，则复制当前进程的已终止
	// 和等待着的子进程资源利用信息到临时rusage结构r中。宏CT_TO_SECS和CT_TO_USECS用于把系统当前嘀嗒数转换成用秒值加微秒值
	// 表示。它们定义在include/linux/sched.h文件中。jiffies_offset是系统嘀嗒数误差调整数。
	if (who == RUSAGE_SELF) {
    8d45:	83 c4 10             	add    $0x10,%esp
    8d48:	85 f6                	test   %esi,%esi
		r.ru_utime.tv_sec = CT_TO_SECS(current->utime);
    8d4a:	8b 18                	mov    (%eax),%ebx
	if (who == RUSAGE_SELF) {
    8d4c:	75 24                	jne    8d72 <sys_getrusage+0x78>
		r.ru_utime.tv_sec = CT_TO_SECS(current->utime);
    8d4e:	8b 83 e0 02 00 00    	mov    0x2e0(%ebx),%eax
    8d54:	b9 64 00 00 00       	mov    $0x64,%ecx
    8d59:	99                   	cltd   
    8d5a:	f7 f9                	idiv   %ecx
    8d5c:	89 44 24 08          	mov    %eax,0x8(%esp)
		r.ru_utime.tv_usec = CT_TO_USECS(current->utime);
    8d60:	69 c2 10 27 00 00    	imul   $0x2710,%edx,%eax
    8d66:	89 44 24 0c          	mov    %eax,0xc(%esp)
		r.ru_stime.tv_sec = CT_TO_SECS(current->stime);
    8d6a:	8b 83 e4 02 00 00    	mov    0x2e4(%ebx),%eax
    8d70:	eb 22                	jmp    8d94 <sys_getrusage+0x9a>
		r.ru_stime.tv_usec = CT_TO_USECS(current->stime);
	} else {
		r.ru_utime.tv_sec = CT_TO_SECS(current->cutime);
    8d72:	8b 83 e8 02 00 00    	mov    0x2e8(%ebx),%eax
    8d78:	b9 64 00 00 00       	mov    $0x64,%ecx
    8d7d:	99                   	cltd   
    8d7e:	f7 f9                	idiv   %ecx
    8d80:	89 44 24 08          	mov    %eax,0x8(%esp)
		r.ru_utime.tv_usec = CT_TO_USECS(current->cutime);
    8d84:	69 c2 10 27 00 00    	imul   $0x2710,%edx,%eax
    8d8a:	89 44 24 0c          	mov    %eax,0xc(%esp)
		r.ru_stime.tv_sec = CT_TO_SECS(current->cstime);
    8d8e:	8b 83 ec 02 00 00    	mov    0x2ec(%ebx),%eax
    8d94:	99                   	cltd   
    8d95:	f7 f9                	idiv   %ecx
    8d97:	89 44 24 10          	mov    %eax,0x10(%esp)
		r.ru_stime.tv_usec = CT_TO_USECS(current->cstime);
    8d9b:	69 c2 10 27 00 00    	imul   $0x2710,%edx,%eax
    8da1:	89 44 24 14          	mov    %eax,0x14(%esp)
{
    8da5:	31 c0                	xor    %eax,%eax
__asm__ ("movl %0,%%fs:%1"::"q" (val),"m" (*addr));
    8da7:	8b 14 07             	mov    (%edi,%eax,1),%edx
    8daa:	64 89 54 05 00       	mov    %edx,%fs:0x0(%ebp,%eax,1)
    8daf:	83 c0 04             	add    $0x4,%eax
	// 然后让lp指针指向r结构，lpend指向r结构末尾处，而dest指针指向用户空间中的ru结构。最后把r中信息复制到用户空间ru结构中，并
	// 返回0。
	lp = (unsigned long *) &r;
	lpend = (unsigned long *) (&r + 1);
	dest = (unsigned long *) ru;
	for (; lp < lpend; lp++, dest++)
    8db2:	83 f8 48             	cmp    $0x48,%eax
    8db5:	75 f0                	jne    8da7 <sys_getrusage+0xad>
		put_fs_long(*lp, dest);
	return(0);
    8db7:	31 c0                	xor    %eax,%eax
}
    8db9:	83 c4 5c             	add    $0x5c,%esp
    8dbc:	5b                   	pop    %ebx
    8dbd:	5e                   	pop    %esi
    8dbe:	5f                   	pop    %edi
    8dbf:	5d                   	pop    %ebp
    8dc0:	c3                   	ret    

00008dc1 <sys_gettimeofday>:
// 取得系统当前时间，并用指定格式返回。
// timeval结构和timezone结构都定义在include/sys/time.h文件中。timeval结构含有秒和微秒（tv_sec和tv_usec）两个
// 字段。timezone结构含有本地距格林尼治标准时间以西的分钟数（tz_minuteswest）和夏令时间调整类型（tz_dsttime）两上
// 字段。（dst -- Daylight Savings Time）
int sys_gettimeofday(struct timeval *tv, struct timezone *tz)
{
    8dc1:	55                   	push   %ebp
    8dc2:	57                   	push   %edi
    8dc3:	56                   	push   %esi
    8dc4:	53                   	push   %ebx
    8dc5:	e8 62 dc ff ff       	call   6a2c <__x86.get_pc_thunk.bx>
    8dca:	81 c3 36 82 01 00    	add    $0x18236,%ebx
    8dd0:	83 ec 1c             	sub    $0x1c,%esp
    8dd3:	8b 7c 24 30          	mov    0x30(%esp),%edi
    8dd7:	8b 74 24 34          	mov    0x34(%esp),%esi
	// 如果参数给定的timeval结构指针不空，则在该结构中返回当前时间（秒值和微秒值）;
	// 如果参数给定的用户数据空间中timezone结构的指针不空，则也返回该结构的信息。
	// 程序中startup_time是系统开机时间（秒值）。宏CT_TO_SECS和CT_TO_USECS用于把系统当前嘀嗒数转换成用秒值加微秒值表示。
	// 它们定义在include/linux/sched.h文件中。jiffies_offset是系统嘀嗒数误差调整数。
	if (tv) {
    8ddb:	85 ff                	test   %edi,%edi
    8ddd:	74 51                	je     8e30 <sys_gettimeofday+0x6f>
		verify_area(tv, sizeof *tv);
    8ddf:	52                   	push   %edx
    8de0:	52                   	push   %edx
    8de1:	6a 08                	push   $0x8
    8de3:	57                   	push   %edi
    8de4:	e8 02 ee ff ff       	call   7beb <verify_area>
		put_fs_long(startup_time + CT_TO_SECS(jiffies + jiffies_offset),
    8de9:	c7 c2 64 2a 02 00    	mov    $0x22a64,%edx
    8def:	c7 c5 6c 2a 02 00    	mov    $0x22a6c,%ebp
    8df5:	8b 0a                	mov    (%edx),%ecx
    8df7:	8b 45 00             	mov    0x0(%ebp),%eax
    8dfa:	31 d2                	xor    %edx,%edx
    8dfc:	01 c8                	add    %ecx,%eax
    8dfe:	89 4c 24 1c          	mov    %ecx,0x1c(%esp)
    8e02:	b9 64 00 00 00       	mov    $0x64,%ecx
    8e07:	f7 f1                	div    %ecx
    8e09:	c7 c2 68 2a 02 00    	mov    $0x22a68,%edx
    8e0f:	03 02                	add    (%edx),%eax
    8e11:	64 89 07             	mov    %eax,%fs:(%edi)
			    (unsigned long *) tv);
		put_fs_long(CT_TO_USECS(jiffies + jiffies_offset),
    8e14:	8b 45 00             	mov    0x0(%ebp),%eax
    8e17:	03 44 24 1c          	add    0x1c(%esp),%eax
    8e1b:	31 d2                	xor    %edx,%edx
    8e1d:	83 c4 10             	add    $0x10,%esp
    8e20:	f7 f1                	div    %ecx
    8e22:	69 c2 40 42 0f 00    	imul   $0xf4240,%edx,%eax
    8e28:	31 d2                	xor    %edx,%edx
    8e2a:	f7 f1                	div    %ecx
    8e2c:	64 89 47 04          	mov    %eax,%fs:0x4(%edi)
			    ((unsigned long *) tv) + 1);
	}
	if (tz) {
    8e30:	85 f6                	test   %esi,%esi
    8e32:	74 20                	je     8e54 <sys_gettimeofday+0x93>
		verify_area(tz, sizeof *tz);
    8e34:	50                   	push   %eax
    8e35:	50                   	push   %eax
    8e36:	6a 08                	push   $0x8
    8e38:	56                   	push   %esi
    8e39:	e8 ad ed ff ff       	call   7beb <verify_area>
    8e3e:	8b 83 c0 21 00 00    	mov    0x21c0(%ebx),%eax
    8e44:	64 89 06             	mov    %eax,%fs:(%esi)
    8e47:	8b 83 c4 21 00 00    	mov    0x21c4(%ebx),%eax
    8e4d:	64 89 46 04          	mov    %eax,%fs:0x4(%esi)
    8e51:	83 c4 10             	add    $0x10,%esp
		put_fs_long(sys_tz.tz_minuteswest, (unsigned long *) tz);
		put_fs_long(sys_tz.tz_dsttime, ((unsigned long *) tz) + 1);
	}
	return 0;
}
    8e54:	83 c4 1c             	add    $0x1c,%esp
    8e57:	31 c0                	xor    %eax,%eax
    8e59:	5b                   	pop    %ebx
    8e5a:	5e                   	pop    %esi
    8e5b:	5f                   	pop    %edi
    8e5c:	5d                   	pop    %ebp
    8e5d:	c3                   	ret    

00008e5e <adjust_clock>:
 * 法是完全不依赖于CMOS时钟，而是让系统通过NTP（网络时钟协议）或者timed（时间服务器）获得时间，如果机器联上网的话...。
 */
// 把系统启动时间调整为以GMT为标准的时间。
// startup_time是秒值，因此这里需要把时区分钟值乘上60。
void adjust_clock()
{
    8e5e:	e8 c5 db ff ff       	call   6a28 <__x86.get_pc_thunk.dx>
    8e63:	81 c2 9d 81 01 00    	add    $0x1819d,%edx
	startup_time += sys_tz.tz_minuteswest * 60;
    8e69:	c7 c0 68 2a 02 00    	mov    $0x22a68,%eax
    8e6f:	6b 92 c0 21 00 00 3c 	imul   $0x3c,0x21c0(%edx),%edx
    8e76:	01 10                	add    %edx,(%eax)
}
    8e78:	c3                   	ret    

00008e79 <sys_settimeofday>:
{
    8e79:	e8 00 10 00 00       	call   9e7e <__x86.get_pc_thunk.cx>
    8e7e:	81 c1 82 81 01 00    	add    $0x18182,%ecx
    8e84:	55                   	push   %ebp
    8e85:	57                   	push   %edi
	if (!suser())
    8e86:	c7 c0 60 23 02 00    	mov    $0x22360,%eax
{
    8e8c:	56                   	push   %esi
    8e8d:	53                   	push   %ebx
    8e8e:	8b 54 24 14          	mov    0x14(%esp),%edx
    8e92:	8b 5c 24 18          	mov    0x18(%esp),%ebx
	if (!suser())
    8e96:	8b 30                	mov    (%eax),%esi
		return -EPERM;
    8e98:	83 c8 ff             	or     $0xffffffff,%eax
	if (!suser())
    8e9b:	66 83 be ce 02 00 00 	cmpw   $0x0,0x2ce(%esi)
    8ea2:	00 
    8ea3:	0f 85 81 00 00 00    	jne    8f2a <sys_settimeofday+0xb1>
	if (tz) {
    8ea9:	85 db                	test   %ebx,%ebx
    8eab:	74 77                	je     8f24 <sys_settimeofday+0xab>
	__asm__ ("movl %%fs:%1,%0":"=q" (_v):"m" (*addr)); \
    8ead:	64 8b 03             	mov    %fs:(%ebx),%eax
		sys_tz.tz_minuteswest = get_fs_long((unsigned long *) tz);
    8eb0:	89 81 c0 21 00 00    	mov    %eax,0x21c0(%ecx)
    8eb6:	64 8b 43 04          	mov    %fs:0x4(%ebx),%eax
		if (firsttime) {
    8eba:	83 b9 80 00 00 00 00 	cmpl   $0x0,0x80(%ecx)
		sys_tz.tz_dsttime = get_fs_long(((unsigned long *) tz)+1);
    8ec1:	89 81 c4 21 00 00    	mov    %eax,0x21c4(%ecx)
		if (firsttime) {
    8ec7:	74 5b                	je     8f24 <sys_settimeofday+0xab>
			if (!tv)
    8ec9:	85 d2                	test   %edx,%edx
			firsttime = 0;
    8ecb:	c7 81 80 00 00 00 00 	movl   $0x0,0x80(%ecx)
    8ed2:	00 00 00 
			if (!tv)
    8ed5:	74 46                	je     8f1d <sys_settimeofday+0xa4>
		startup_time = sec - jiffies / HZ;
    8ed7:	c7 c5 6c 2a 02 00    	mov    $0x22a6c,%ebp
    8edd:	be 64 00 00 00       	mov    $0x64,%esi
    8ee2:	64 8b 02             	mov    %fs:(%edx),%eax
    8ee5:	89 c7                	mov    %eax,%edi
    8ee7:	8b 45 00             	mov    0x0(%ebp),%eax
    8eea:	64 8b 5a 04          	mov    %fs:0x4(%edx),%ebx
    8eee:	31 d2                	xor    %edx,%edx
    8ef0:	f7 f6                	div    %esi
    8ef2:	29 c7                	sub    %eax,%edi
    8ef4:	c7 c0 68 2a 02 00    	mov    $0x22a68,%eax
    8efa:	89 38                	mov    %edi,(%eax)
		jiffies_offset = usec * HZ / 1000000 - jiffies % HZ;
    8efc:	89 d8                	mov    %ebx,%eax
    8efe:	8b 7d 00             	mov    0x0(%ebp),%edi
    8f01:	99                   	cltd   
    8f02:	bd 10 27 00 00       	mov    $0x2710,%ebp
    8f07:	f7 fd                	idiv   %ebp
    8f09:	31 d2                	xor    %edx,%edx
    8f0b:	89 c3                	mov    %eax,%ebx
    8f0d:	89 f8                	mov    %edi,%eax
    8f0f:	f7 f6                	div    %esi
    8f11:	c7 c0 64 2a 02 00    	mov    $0x22a64,%eax
    8f17:	29 d3                	sub    %edx,%ebx
    8f19:	89 18                	mov    %ebx,(%eax)
    8f1b:	eb 0b                	jmp    8f28 <sys_settimeofday+0xaf>
				adjust_clock();
    8f1d:	e8 3c ff ff ff       	call   8e5e <adjust_clock>
    8f22:	eb 04                	jmp    8f28 <sys_settimeofday+0xaf>
	if (tv) {
    8f24:	85 d2                	test   %edx,%edx
    8f26:	75 af                	jne    8ed7 <sys_settimeofday+0x5e>
	return 0;
    8f28:	31 c0                	xor    %eax,%eax
}
    8f2a:	5b                   	pop    %ebx
    8f2b:	5e                   	pop    %esi
    8f2c:	5f                   	pop    %edi
    8f2d:	5d                   	pop    %ebp
    8f2e:	c3                   	ret    

00008f2f <sys_umask>:

// 设置当前进程创建文件属性屏蔽码为mask & 0777。并返回原屏蔽码。
int sys_umask(int mask)
{
    8f2f:	e8 46 0f 00 00       	call   9e7a <__x86.get_pc_thunk.ax>
    8f34:	05 cc 80 01 00       	add    $0x180cc,%eax
	int old = current->umask;

	current->umask = mask & 0777;
    8f39:	8b 54 24 04          	mov    0x4(%esp),%edx
	int old = current->umask;
    8f3d:	c7 c0 60 23 02 00    	mov    $0x22360,%eax
	current->umask = mask & 0777;
    8f43:	66 81 e2 ff 01       	and    $0x1ff,%dx
	int old = current->umask;
    8f48:	8b 08                	mov    (%eax),%ecx
    8f4a:	0f b7 81 30 03 00 00 	movzwl 0x330(%ecx),%eax
	current->umask = mask & 0777;
    8f51:	66 89 91 30 03 00 00 	mov    %dx,0x330(%ecx)
	return (old);
}
    8f58:	c3                   	ret    

00008f59 <sys_default>:

// 用于捕获未实现的System Call调用。
int sys_default(unsigned long arg1, unsigned long arg2, unsigned long arg3, unsigned long code){
    8f59:	53                   	push   %ebx
    8f5a:	e8 cd da ff ff       	call   6a2c <__x86.get_pc_thunk.bx>
    8f5f:	81 c3 a1 80 01 00    	add    $0x180a1,%ebx
    8f65:	83 ec 10             	sub    $0x10,%esp
    printk("System Call Number:%d\r\n",code);
    8f68:	8d 83 47 6a ff ff    	lea    -0x95b9(%ebx),%eax
    8f6e:	ff 74 24 24          	pushl  0x24(%esp)
    8f72:	50                   	push   %eax
    8f73:	e8 a9 f1 ff ff       	call   8121 <printk>
    printk("Arg1:%X\r\n",arg1);
    8f78:	58                   	pop    %eax
    8f79:	8d 83 5f 6a ff ff    	lea    -0x95a1(%ebx),%eax
    8f7f:	5a                   	pop    %edx
    8f80:	ff 74 24 18          	pushl  0x18(%esp)
    8f84:	50                   	push   %eax
    8f85:	e8 97 f1 ff ff       	call   8121 <printk>
    printk("Arg2:%X\r\n",arg2);
    8f8a:	59                   	pop    %ecx
    8f8b:	58                   	pop    %eax
    8f8c:	8d 83 69 6a ff ff    	lea    -0x9597(%ebx),%eax
    8f92:	ff 74 24 1c          	pushl  0x1c(%esp)
    8f96:	50                   	push   %eax
    8f97:	e8 85 f1 ff ff       	call   8121 <printk>
    printk("Arg3:%X\r\n",arg3);
    8f9c:	58                   	pop    %eax
    8f9d:	8d 83 73 6a ff ff    	lea    -0x958d(%ebx),%eax
    8fa3:	5a                   	pop    %edx
    8fa4:	ff 74 24 20          	pushl  0x20(%esp)
    8fa8:	50                   	push   %eax
    8fa9:	e8 73 f1 ff ff       	call   8121 <printk>
    8fae:	83 c4 10             	add    $0x10,%esp
    8fb1:	eb fe                	jmp    8fb1 <sys_default+0x58>

00008fb3 <send_sig>:

// 向指定任务p发送信号sig，权限为priv。
// 参数：sig - 信号值；p - 指定任务的指针；priv - 强制发送信号的标志。即不需要考虑进程用户属性或级别而能发
// 送信号sig并退出，否则返回未许可错误号。
static inline int send_sig(long sig, struct task_struct * p, int priv)
{
    8fb3:	56                   	push   %esi
    8fb4:	53                   	push   %ebx
    8fb5:	e8 c8 0e 00 00       	call   9e82 <__x86.get_pc_thunk.si>
    8fba:	81 c6 46 80 01 00    	add    $0x18046,%esi
	// 如果没有权限，并且当前进程的有效用户ID与进程p的不同，并且也不是超级用户，则说明没有向p发送信号的权利。suser()
	// 定义为（current->euid==0），用于判断是否为超级用户。
	if (!p)
    8fc0:	85 d2                	test   %edx,%edx
    8fc2:	74 79                	je     903d <send_sig+0x8a>
		return -EINVAL;
	if (!priv && (current->euid != p->euid) && !suser())
    8fc4:	85 c9                	test   %ecx,%ecx
    8fc6:	89 c3                	mov    %eax,%ebx
    8fc8:	75 20                	jne    8fea <send_sig+0x37>
    8fca:	c7 c0 60 23 02 00    	mov    $0x22360,%eax
    8fd0:	8b 00                	mov    (%eax),%eax
    8fd2:	66 8b 88 ce 02 00 00 	mov    0x2ce(%eax),%cx
    8fd9:	66 39 8a ce 02 00 00 	cmp    %cx,0x2ce(%edx)
    8fe0:	74 08                	je     8fea <send_sig+0x37>
		return -EPERM;
    8fe2:	83 c8 ff             	or     $0xffffffff,%eax
	if (!priv && (current->euid != p->euid) && !suser())
    8fe5:	66 85 c9             	test   %cx,%cx
    8fe8:	75 58                	jne    9042 <send_sig+0x8f>
	// 若需要发送的信号是SIGKILL或SIGCONT，那么如果此时接收信号的进程p正处于停止状态就置其为就绪（运行）状态。然后
	// 修改进程p的信号位图signal，去掉（复位）会导致进程停止的信号SIGSTOP、SIGTSTP、SIGTTIN和SIGTTOU。
	if ((sig == SIGKILL) || (sig == SIGCONT)) {
    8fea:	83 fb 09             	cmp    $0x9,%ebx
    8fed:	74 05                	je     8ff4 <send_sig+0x41>
    8fef:	83 fb 12             	cmp    $0x12,%ebx
    8ff2:	75 1c                	jne    9010 <send_sig+0x5d>
		if (p->state == TASK_STOPPED)
    8ff4:	83 3a 04             	cmpl   $0x4,(%edx)
    8ff7:	75 06                	jne    8fff <send_sig+0x4c>
			p->state = TASK_RUNNING;
    8ff9:	c7 02 00 00 00 00    	movl   $0x0,(%edx)
		p->exit_code = 0;
		p->signal &= ~( (1 << (SIGSTOP - 1)) | (1 << (SIGTSTP - 1)) |
    8fff:	81 62 0c ff ff c3 ff 	andl   $0xffc3ffff,0xc(%edx)
		p->exit_code = 0;
    9006:	c7 82 14 02 00 00 00 	movl   $0x0,0x214(%edx)
    900d:	00 00 00 
				(1 << (SIGTTIN - 1)) | (1 << (SIGTTOU - 1)) );
	}
	/* If the signal will be ignored, don't even post it */
    /* 如果要发送的信号sig将被进程p忽略掉，那么就根本不用发送 */
	if ((int) p->sigaction[sig - 1].sa_handler == 1)
    9010:	89 de                	mov    %ebx,%esi
		return 0;
    9012:	31 c0                	xor    %eax,%eax
	if ((int) p->sigaction[sig - 1].sa_handler == 1)
    9014:	8d 4b ff             	lea    -0x1(%ebx),%ecx
    9017:	c1 e6 04             	shl    $0x4,%esi
    901a:	83 3c 32 01          	cmpl   $0x1,(%edx,%esi,1)
    901e:	74 22                	je     9042 <send_sig+0x8f>
	/* Depends on order SIGSTOP, SIGTSTP, SIGTTIN, SIGTTOU */
   	/* 以下判断依赖于SIGSTOP、SIGTSTP、SIGTTIN和SIGTTOU */
	// 如果信号是SIGSTOP、SIGTSTP、SIGTTIN和SIGTTOU之一，那么说明要让接收信号的进程p停止运行。因此（若p的信号位图
	// 中有SIGCONT置位）就需要复位位图中继续运行的信号。
	if ((sig >= SIGSTOP) && (sig <= SIGTTOU))
    9020:	83 eb 13             	sub    $0x13,%ebx
    9023:	83 fb 03             	cmp    $0x3,%ebx
    9026:	77 07                	ja     902f <send_sig+0x7c>
		p->signal &= ~(1 << (SIGCONT - 1));
    9028:	81 62 0c ff ff fd ff 	andl   $0xfffdffff,0xc(%edx)
	/* Actually deliver the signal */
    /* 最后，我们向进程p发送信号p */
	p->signal |= (1 << (sig - 1));
    902f:	b8 01 00 00 00       	mov    $0x1,%eax
    9034:	d3 e0                	shl    %cl,%eax
    9036:	09 42 0c             	or     %eax,0xc(%edx)
	return 0;
    9039:	31 c0                	xor    %eax,%eax
    903b:	eb 05                	jmp    9042 <send_sig+0x8f>
		return -EINVAL;
    903d:	b8 ea ff ff ff       	mov    $0xffffffea,%eax
}
    9042:	5b                   	pop    %ebx
    9043:	5e                   	pop    %esi
    9044:	c3                   	ret    

00009045 <has_stopped_jobs>:
}

// 判断进程组中是否含有处于停止状态的作业（进程组）。有则返回1；无则返回0.
// 查找方法是扫描整个任务数组。检查属于指定组pgrp的任何进程是否处于停止状态。
static int has_stopped_jobs(int pgrp)
{
    9045:	e8 de d9 ff ff       	call   6a28 <__x86.get_pc_thunk.dx>
    904a:	81 c2 b6 7f 01 00    	add    $0x17fb6,%edx
    9050:	53                   	push   %ebx
	struct task_struct ** p;

	for (p = &LAST_TASK ; p > &FIRST_TASK ; --p) {
    9051:	c7 c1 60 22 02 00    	mov    $0x22260,%ecx
    9057:	8d 91 fc 00 00 00    	lea    0xfc(%ecx),%edx
		if ((*p)->pgrp != pgrp)
    905d:	8b 1a                	mov    (%edx),%ebx
    905f:	39 83 30 02 00 00    	cmp    %eax,0x230(%ebx)
    9065:	75 05                	jne    906c <has_stopped_jobs+0x27>
			continue;
		if ((*p)->state == TASK_STOPPED)
    9067:	83 3b 04             	cmpl   $0x4,(%ebx)
    906a:	74 0b                	je     9077 <has_stopped_jobs+0x32>
	for (p = &LAST_TASK ; p > &FIRST_TASK ; --p) {
    906c:	83 ea 04             	sub    $0x4,%edx
    906f:	39 ca                	cmp    %ecx,%edx
    9071:	77 ea                	ja     905d <has_stopped_jobs+0x18>
			return(1);
	}
	return(0);
    9073:	31 c0                	xor    %eax,%eax
    9075:	eb 05                	jmp    907c <has_stopped_jobs+0x37>
			return(1);
    9077:	b8 01 00 00 00       	mov    $0x1,%eax
}
    907c:	5b                   	pop    %ebx
    907d:	c3                   	ret    

0000907e <release>:
{
    907e:	53                   	push   %ebx
    907f:	e8 a8 d9 ff ff       	call   6a2c <__x86.get_pc_thunk.bx>
    9084:	81 c3 7c 7f 01 00    	add    $0x17f7c,%ebx
    908a:	83 ec 08             	sub    $0x8,%esp
    908d:	8b 44 24 10          	mov    0x10(%esp),%eax
	if (!p)
    9091:	85 c0                	test   %eax,%eax
    9093:	0f 84 8e 00 00 00    	je     9127 <release+0xa9>
	if (p == current) {
    9099:	c7 c2 60 23 02 00    	mov    $0x22360,%edx
    909f:	39 02                	cmp    %eax,(%edx)
    90a1:	74 72                	je     9115 <release+0x97>
		if (task[i] == p) {
    90a3:	c7 c1 60 22 02 00    	mov    $0x22260,%ecx
	for (i = 1 ; i < NR_TASKS ; i++)
    90a9:	ba 01 00 00 00       	mov    $0x1,%edx
		if (task[i] == p) {
    90ae:	3b 04 91             	cmp    (%ecx,%edx,4),%eax
    90b1:	75 4b                	jne    90fe <release+0x80>
			task[i] = NULL;
    90b3:	c7 04 91 00 00 00 00 	movl   $0x0,(%ecx,%edx,4)
			if (p->p_osptr)
    90ba:	8b 90 c8 02 00 00    	mov    0x2c8(%eax),%edx
    90c0:	85 d2                	test   %edx,%edx
    90c2:	74 0c                	je     90d0 <release+0x52>
    90c4:	8b 88 c4 02 00 00    	mov    0x2c4(%eax),%ecx
				p->p_osptr->p_ysptr = p->p_ysptr;
    90ca:	89 8a c4 02 00 00    	mov    %ecx,0x2c4(%edx)
			if (p->p_ysptr)
    90d0:	8b 88 c4 02 00 00    	mov    0x2c4(%eax),%ecx
    90d6:	85 c9                	test   %ecx,%ecx
    90d8:	74 08                	je     90e2 <release+0x64>
				p->p_ysptr->p_osptr = p->p_osptr;
    90da:	89 91 c8 02 00 00    	mov    %edx,0x2c8(%ecx)
    90e0:	eb 0c                	jmp    90ee <release+0x70>
				p->p_pptr->p_cptr = p->p_osptr;
    90e2:	8b 88 bc 02 00 00    	mov    0x2bc(%eax),%ecx
    90e8:	89 91 c0 02 00 00    	mov    %edx,0x2c0(%ecx)
			free_page((long)p);
    90ee:	83 ec 0c             	sub    $0xc,%esp
    90f1:	50                   	push   %eax
    90f2:	e8 5c 0e 00 00       	call   9f53 <free_page>
			schedule();
