
tools/system:     file format elf32-i386


Disassembly of section .text:

00000000 <pg_dir>:
       0:	b8 10 00 00 00       	mov    $0x10,%eax
       5:	8e d8                	mov    %eax,%ds
       7:	8e c0                	mov    %eax,%es
       9:	8e e0                	mov    %eax,%fs
       b:	8e e8                	mov    %eax,%gs
       d:	0f b2 25 c0 f2 02 00 	lss    0x2f2c0,%esp
      14:	e8 58 00 00 00       	call   71 <setup_idt>
      19:	e8 83 00 00 00       	call   a1 <setup_gdt>
      1e:	b8 10 00 00 00       	mov    $0x10,%eax
      23:	8e d8                	mov    %eax,%ds
      25:	8e c0                	mov    %eax,%es
      27:	8e e0                	mov    %eax,%fs
      29:	8e e8                	mov    %eax,%gs
      2b:	0f b2 25 c0 f2 02 00 	lss    0x2f2c0,%esp
      32:	31 c0                	xor    %eax,%eax
      34:	40                   	inc    %eax
      35:	a3 00 00 00 00       	mov    %eax,0x0
      3a:	39 05 00 00 10 00    	cmp    %eax,0x100000
      40:	74 f2                	je     34 <OLDSS+0x4>
      42:	0f 20 c0             	mov    %cr0,%eax
      45:	25 11 00 00 80       	and    $0x80000011,%eax
      4a:	83 c8 02             	or     $0x2,%eax
      4d:	0f 22 c0             	mov    %eax,%cr0
      50:	e8 05 00 00 00       	call   5a <check_x87>
      55:	e9 a6 53 00 00       	jmp    5400 <after_page_tables>

0000005a <check_x87>:
      5a:	db e3                	fninit 
      5c:	9b df e0             	fstsw  %ax
      5f:	3c 00                	cmp    $0x0,%al
      61:	74 0b                	je     6e <check_x87+0x14>
      63:	0f 20 c0             	mov    %cr0,%eax
      66:	83 f0 06             	xor    $0x6,%eax
      69:	0f 22 c0             	mov    %eax,%cr0
      6c:	c3                   	ret    
      6d:	90                   	nop
      6e:	db e4                	fnsetpm(287 only) 
      70:	c3                   	ret    

00000071 <setup_idt>:
      71:	8d 15 28 54 00 00    	lea    0x5428,%edx
      77:	b8 00 00 08 00       	mov    $0x80000,%eax
      7c:	66 89 d0             	mov    %dx,%ax
      7f:	66 ba 00 8e          	mov    $0x8e00,%dx
      83:	8d 3d b8 54 00 00    	lea    0x54b8,%edi
      89:	b9 00 01 00 00       	mov    $0x100,%ecx

0000008e <rp_sidt>:
      8e:	89 07                	mov    %eax,(%edi)
      90:	89 57 04             	mov    %edx,0x4(%edi)
      93:	83 c7 08             	add    $0x8,%edi
      96:	49                   	dec    %ecx
      97:	75 f5                	jne    8e <rp_sidt>
      99:	0f 01 1d aa 54 00 00 	lidtl  0x54aa
      a0:	c3                   	ret    

000000a1 <setup_gdt>:
      a1:	0f 01 15 b2 54 00 00 	lgdtl  0x54b2
      a8:	c3                   	ret    
	...

00001000 <pg0>:
	...

00002000 <pg1>:
	...

00003000 <pg2>:
	...

00004000 <pg3>:
	...

00005000 <tmp_floppy_area>:
	...

00005400 <after_page_tables>:
    5400:	6a 00                	push   $0x0
    5402:	6a 00                	push   $0x0
    5404:	6a 00                	push   $0x0
    5406:	68 12 54 00 00       	push   $0x5412
    540b:	68 00 68 00 00       	push   $0x6800
    5410:	eb 3c                	jmp    544e <setup_paging>

00005412 <L6>:
    5412:	eb fe                	jmp    5412 <L6>

00005414 <int_msg>:
    5414:	55                   	push   %ebp
    5415:	6e                   	outsb  %ds:(%esi),(%dx)
    5416:	6b 6e 6f 77          	imul   $0x77,0x6f(%esi),%ebp
    541a:	6e                   	outsb  %ds:(%esi),(%dx)
    541b:	20 69 6e             	and    %ch,0x6e(%ecx)
    541e:	74 65                	je     5485 <setup_paging+0x37>
    5420:	72 72                	jb     5494 <setup_paging+0x46>
    5422:	75 70                	jne    5494 <setup_paging+0x46>
    5424:	74 0a                	je     5430 <ignore_int+0x8>
    5426:	0d                   	.byte 0xd
	...

00005428 <ignore_int>:
    5428:	50                   	push   %eax
    5429:	51                   	push   %ecx
    542a:	52                   	push   %edx
    542b:	1e                   	push   %ds
    542c:	06                   	push   %es
    542d:	0f a0                	push   %fs
    542f:	b8 10 00 00 00       	mov    $0x10,%eax
    5434:	8e d8                	mov    %eax,%ds
    5436:	8e c0                	mov    %eax,%es
    5438:	8e e0                	mov    %eax,%fs
    543a:	68 14 54 00 00       	push   $0x5414
    543f:	e8 02 38 00 00       	call   8c46 <printk>
    5444:	58                   	pop    %eax
    5445:	0f a1                	pop    %fs
    5447:	07                   	pop    %es
    5448:	1f                   	pop    %ds
    5449:	5a                   	pop    %edx
    544a:	59                   	pop    %ecx
    544b:	58                   	pop    %eax
    544c:	cf                   	iret   
    544d:	90                   	nop

0000544e <setup_paging>:
    544e:	b9 00 14 00 00       	mov    $0x1400,%ecx
    5453:	31 c0                	xor    %eax,%eax
    5455:	31 ff                	xor    %edi,%edi
    5457:	fc                   	cld    
    5458:	f3 ab                	rep stos %eax,%es:(%edi)
    545a:	c7 05 00 00 00 00 07 	movl   $0x1007,0x0
    5461:	10 00 00 
    5464:	c7 05 04 00 00 00 07 	movl   $0x2007,0x4
    546b:	20 00 00 
    546e:	c7 05 08 00 00 00 07 	movl   $0x3007,0x8
    5475:	30 00 00 
    5478:	c7 05 0c 00 00 00 07 	movl   $0x4007,0xc
    547f:	40 00 00 
    5482:	bf fc 4f 00 00       	mov    $0x4ffc,%edi
    5487:	b8 07 f0 ff 00       	mov    $0xfff007,%eax
    548c:	fd                   	std    
    548d:	ab                   	stos   %eax,%es:(%edi)
    548e:	2d 00 10 00 00       	sub    $0x1000,%eax
    5493:	7d f8                	jge    548d <setup_paging+0x3f>
    5495:	fc                   	cld    
    5496:	31 c0                	xor    %eax,%eax
    5498:	0f 22 d8             	mov    %eax,%cr3
    549b:	0f 20 c0             	mov    %cr0,%eax
    549e:	0d 00 00 00 80       	or     $0x80000000,%eax
    54a3:	0f 22 c0             	mov    %eax,%cr0
    54a6:	c3                   	ret    
    54a7:	90                   	nop
	...

000054aa <idt_descr>:
    54aa:	ff 07                	incl   (%edi)
    54ac:	b8 54 00 00 00       	mov    $0x54,%eax
	...

000054b2 <gdt_descr>:
    54b2:	ff 07                	incl   (%edi)
    54b4:	b8                   	.byte 0xb8
    54b5:	5c                   	pop    %esp
	...

000054b8 <idt>:
	...

00005cb8 <gdt>:
	...
    5cc0:	ff 0f                	decl   (%edi)
    5cc2:	00 00                	add    %al,(%eax)
    5cc4:	00 9a c0 00 ff 0f    	add    %bl,0xfff00c0(%edx)
    5cca:	00 00                	add    %al,(%eax)
    5ccc:	00 92 c0 00 00 00    	add    %dl,0xc0(%edx)
	...

000064b8 <fork>:
// __attribute__((always_inline))表示将函数强制设置为内联函数
// int fork(void) __attribute__((always_inline));
//  int pause()系统调用：暂停进程的执行，直到收到一个信号。
// int pause(void) __attribute__((always_inline));
// fork()系统调用函数的定义
_syscall0(int, fork)
    64b8:	83 ec 10             	sub    $0x10,%esp
    64bb:	b8 02 00 00 00       	mov    $0x2,%eax
    64c0:	cd 80                	int    $0x80
    64c2:	89 44 24 0c          	mov    %eax,0xc(%esp)
    64c6:	83 7c 24 0c 00       	cmpl   $0x0,0xc(%esp)
    64cb:	78 06                	js     64d3 <fork+0x1b>
    64cd:	8b 44 24 0c          	mov    0xc(%esp),%eax
    64d1:	eb 10                	jmp    64e3 <fork+0x2b>
    64d3:	8b 44 24 0c          	mov    0xc(%esp),%eax
    64d7:	f7 d8                	neg    %eax
    64d9:	a3 24 68 04 00       	mov    %eax,0x46824
    64de:	b8 ff ff ff ff       	mov    $0xffffffff,%eax
    64e3:	83 c4 10             	add    $0x10,%esp
    64e6:	c3                   	ret    

000064e7 <pause>:
// pause()系统调用函数的定义
_syscall0(int, pause)
    64e7:	83 ec 10             	sub    $0x10,%esp
    64ea:	b8 1d 00 00 00       	mov    $0x1d,%eax
    64ef:	cd 80                	int    $0x80
    64f1:	89 44 24 0c          	mov    %eax,0xc(%esp)
    64f5:	83 7c 24 0c 00       	cmpl   $0x0,0xc(%esp)
    64fa:	78 06                	js     6502 <pause+0x1b>
    64fc:	8b 44 24 0c          	mov    0xc(%esp),%eax
    6500:	eb 10                	jmp    6512 <pause+0x2b>
    6502:	8b 44 24 0c          	mov    0xc(%esp),%eax
    6506:	f7 d8                	neg    %eax
    6508:	a3 24 68 04 00       	mov    %eax,0x46824
    650d:	b8 ff ff ff ff       	mov    $0xffffffff,%eax
    6512:	83 c4 10             	add    $0x10,%esp
    6515:	c3                   	ret    

00006516 <setup>:
// int setup(void * BIOS)系统调用,仅用于linux初始化(仅在这个程序中被调用).
_syscall1(int, setup, void *, BIOS)
    6516:	53                   	push   %ebx
    6517:	83 ec 10             	sub    $0x10,%esp
    651a:	8b 54 24 18          	mov    0x18(%esp),%edx
    651e:	b8 00 00 00 00       	mov    $0x0,%eax
    6523:	89 d3                	mov    %edx,%ebx
    6525:	cd 80                	int    $0x80
    6527:	89 44 24 0c          	mov    %eax,0xc(%esp)
    652b:	83 7c 24 0c 00       	cmpl   $0x0,0xc(%esp)
    6530:	78 06                	js     6538 <setup+0x22>
    6532:	8b 44 24 0c          	mov    0xc(%esp),%eax
    6536:	eb 10                	jmp    6548 <setup+0x32>
    6538:	8b 44 24 0c          	mov    0xc(%esp),%eax
    653c:	f7 d8                	neg    %eax
    653e:	a3 24 68 04 00       	mov    %eax,0x46824
    6543:	b8 ff ff ff ff       	mov    $0xffffffff,%eax
    6548:	83 c4 10             	add    $0x10,%esp
    654b:	5b                   	pop    %ebx
    654c:	c3                   	ret    

0000654d <sync>:
// int sync()系统调用：更新文件系统。
_syscall0(int, sync)
    654d:	83 ec 10             	sub    $0x10,%esp
    6550:	b8 24 00 00 00       	mov    $0x24,%eax
    6555:	cd 80                	int    $0x80
    6557:	89 44 24 0c          	mov    %eax,0xc(%esp)
    655b:	83 7c 24 0c 00       	cmpl   $0x0,0xc(%esp)
    6560:	78 06                	js     6568 <sync+0x1b>
    6562:	8b 44 24 0c          	mov    0xc(%esp),%eax
    6566:	eb 10                	jmp    6578 <sync+0x2b>
    6568:	8b 44 24 0c          	mov    0xc(%esp),%eax
    656c:	f7 d8                	neg    %eax
    656e:	a3 24 68 04 00       	mov    %eax,0x46824
    6573:	b8 ff ff ff ff       	mov    $0xffffffff,%eax
    6578:	83 c4 10             	add    $0x10,%esp
    657b:	c3                   	ret    

0000657c <fork_for_process0>:
extern long rd_init(long mem_start, int length);	// 虚拟盘初始化(blk_drv/ramdisk.c)
extern long kernel_mktime(struct tm * tm);			// 计算系统开机启动时间(秒)

// fork系统调用函数,该函数作为static inline表示内联函数，主要用来在进程0里面创建进程1的时候内联，使进程0在生成进程1的时候
// 不使用自己的用户堆栈
static inline long fork_for_process0() {
    657c:	83 ec 10             	sub    $0x10,%esp
	long __res;
	__asm__ volatile (
    657f:	b8 02 00 00 00       	mov    $0x2,%eax
    6584:	cd 80                	int    $0x80
    6586:	89 44 24 0c          	mov    %eax,0xc(%esp)
		"int $0x80\n\t"  														/* 调用系统中断0x80 */
		: "=a" (__res)  														/* 返回值->eax(__res) */
		: "0" (2));  															/* 输入为系统中断调用号__NR_name */
	if (__res >= 0)  															/* 如果返回值>=0,则直接返回该值 */
    658a:	83 7c 24 0c 00       	cmpl   $0x0,0xc(%esp)
    658f:	78 06                	js     6597 <fork_for_process0+0x1b>
		return __res;
    6591:	8b 44 24 0c          	mov    0xc(%esp),%eax
    6595:	eb 10                	jmp    65a7 <fork_for_process0+0x2b>
	errno = -__res;  															/* 否则置出错号,并返回-1 */
    6597:	8b 44 24 0c          	mov    0xc(%esp),%eax
    659b:	f7 d8                	neg    %eax
    659d:	a3 24 68 04 00       	mov    %eax,0x46824
	return -1;
    65a2:	b8 ff ff ff ff       	mov    $0xffffffff,%eax
}
    65a7:	83 c4 10             	add    $0x10,%esp
    65aa:	c3                   	ret    

000065ab <sprintf>:

// 内核专用sprintf()函数.该函数用于产生格式化信息并输出到指定缓冲区str中.参数'*fmt'指定输出将采用格式.
static int sprintf(char * str, const char *fmt, ...)
{
    65ab:	83 ec 1c             	sub    $0x1c,%esp
	va_list args;
	int i;

	va_start(args, fmt);
    65ae:	8d 44 24 24          	lea    0x24(%esp),%eax
    65b2:	83 c0 04             	add    $0x4,%eax
    65b5:	89 44 24 0c          	mov    %eax,0xc(%esp)
	i = vsprintf(str, fmt, args);
    65b9:	8b 44 24 24          	mov    0x24(%esp),%eax
    65bd:	83 ec 04             	sub    $0x4,%esp
    65c0:	ff 74 24 10          	pushl  0x10(%esp)
    65c4:	50                   	push   %eax
    65c5:	ff 74 24 2c          	pushl  0x2c(%esp)
    65c9:	e8 a8 29 00 00       	call   8f76 <vsprintf>
    65ce:	83 c4 10             	add    $0x10,%esp
    65d1:	89 44 24 08          	mov    %eax,0x8(%esp)
	va_end(args);
	return i;
    65d5:	8b 44 24 08          	mov    0x8(%esp),%eax
}
    65d9:	83 c4 1c             	add    $0x1c,%esp
    65dc:	c3                   	ret    

000065dd <time_init>:
#define BCD_TO_BIN(val) ((val) = ((val)&15) + ((val) >> 4) * 10)

// 该函数取CMOS实时钟信息作为开机时间,并保存到全局变量startup_time(秒)中.其中调用的函数kernel_mktime()用于计算从
// 1970年1月1日0时起到开机当日经过的秒数,作为开机时间.
static void time_init(void)
{
    65dd:	83 ec 3c             	sub    $0x3c,%esp
	struct tm time;								// 时间结构tm定义在include/time.h中
	// CMOS的访问速度很慢.为了减小时间误差,在读取了下面循环中所有数值后,若此时CMOS中秒值了变化,那么就重新读取所有值.这样内核
	// 就能把与CMOS时间误差控制在1秒之内.
	do {
		time.tm_sec = CMOS_READ(0);				// 当前时间秒值(均是BCD码值)
    65e0:	b8 80 00 00 00       	mov    $0x80,%eax
    65e5:	ba 70 00 00 00       	mov    $0x70,%edx
    65ea:	ee                   	out    %al,(%dx)
    65eb:	eb 00                	jmp    65ed <time_init+0x10>
    65ed:	eb 00                	jmp    65ef <time_init+0x12>
    65ef:	b8 71 00 00 00       	mov    $0x71,%eax
    65f4:	89 c2                	mov    %eax,%edx
    65f6:	ec                   	in     (%dx),%al
    65f7:	eb 00                	jmp    65f9 <time_init+0x1c>
    65f9:	eb 00                	jmp    65fb <time_init+0x1e>
    65fb:	88 44 24 2f          	mov    %al,0x2f(%esp)
    65ff:	0f b6 44 24 2f       	movzbl 0x2f(%esp),%eax
    6604:	0f b6 c0             	movzbl %al,%eax
    6607:	89 44 24 04          	mov    %eax,0x4(%esp)
		time.tm_min = CMOS_READ(2);				// 当前分钟值.
    660b:	b8 82 00 00 00       	mov    $0x82,%eax
    6610:	ba 70 00 00 00       	mov    $0x70,%edx
    6615:	ee                   	out    %al,(%dx)
    6616:	eb 00                	jmp    6618 <time_init+0x3b>
    6618:	eb 00                	jmp    661a <time_init+0x3d>
    661a:	b8 71 00 00 00       	mov    $0x71,%eax
    661f:	89 c2                	mov    %eax,%edx
    6621:	ec                   	in     (%dx),%al
    6622:	eb 00                	jmp    6624 <time_init+0x47>
    6624:	eb 00                	jmp    6626 <time_init+0x49>
    6626:	88 44 24 2e          	mov    %al,0x2e(%esp)
    662a:	0f b6 44 24 2e       	movzbl 0x2e(%esp),%eax
    662f:	0f b6 c0             	movzbl %al,%eax
    6632:	89 44 24 08          	mov    %eax,0x8(%esp)
		time.tm_hour = CMOS_READ(4);			// 当前小时值.
    6636:	b8 84 00 00 00       	mov    $0x84,%eax
    663b:	ba 70 00 00 00       	mov    $0x70,%edx
    6640:	ee                   	out    %al,(%dx)
    6641:	eb 00                	jmp    6643 <time_init+0x66>
    6643:	eb 00                	jmp    6645 <time_init+0x68>
    6645:	b8 71 00 00 00       	mov    $0x71,%eax
    664a:	89 c2                	mov    %eax,%edx
    664c:	ec                   	in     (%dx),%al
    664d:	eb 00                	jmp    664f <time_init+0x72>
    664f:	eb 00                	jmp    6651 <time_init+0x74>
    6651:	88 44 24 2d          	mov    %al,0x2d(%esp)
    6655:	0f b6 44 24 2d       	movzbl 0x2d(%esp),%eax
    665a:	0f b6 c0             	movzbl %al,%eax
    665d:	89 44 24 0c          	mov    %eax,0xc(%esp)
		time.tm_mday = CMOS_READ(7);			// 一月中的当天日期.
    6661:	b8 87 00 00 00       	mov    $0x87,%eax
    6666:	ba 70 00 00 00       	mov    $0x70,%edx
    666b:	ee                   	out    %al,(%dx)
    666c:	eb 00                	jmp    666e <time_init+0x91>
    666e:	eb 00                	jmp    6670 <time_init+0x93>
    6670:	b8 71 00 00 00       	mov    $0x71,%eax
    6675:	89 c2                	mov    %eax,%edx
    6677:	ec                   	in     (%dx),%al
    6678:	eb 00                	jmp    667a <time_init+0x9d>
    667a:	eb 00                	jmp    667c <time_init+0x9f>
    667c:	88 44 24 2c          	mov    %al,0x2c(%esp)
    6680:	0f b6 44 24 2c       	movzbl 0x2c(%esp),%eax
    6685:	0f b6 c0             	movzbl %al,%eax
    6688:	89 44 24 10          	mov    %eax,0x10(%esp)
		time.tm_mon = CMOS_READ(8);				// 当前月份(1-12)
    668c:	b8 88 00 00 00       	mov    $0x88,%eax
    6691:	ba 70 00 00 00       	mov    $0x70,%edx
    6696:	ee                   	out    %al,(%dx)
    6697:	eb 00                	jmp    6699 <time_init+0xbc>
    6699:	eb 00                	jmp    669b <time_init+0xbe>
    669b:	b8 71 00 00 00       	mov    $0x71,%eax
    66a0:	89 c2                	mov    %eax,%edx
    66a2:	ec                   	in     (%dx),%al
    66a3:	eb 00                	jmp    66a5 <time_init+0xc8>
    66a5:	eb 00                	jmp    66a7 <time_init+0xca>
    66a7:	88 44 24 2b          	mov    %al,0x2b(%esp)
    66ab:	0f b6 44 24 2b       	movzbl 0x2b(%esp),%eax
    66b0:	0f b6 c0             	movzbl %al,%eax
    66b3:	89 44 24 14          	mov    %eax,0x14(%esp)
		time.tm_year = CMOS_READ(9);			// 当前年份.
    66b7:	b8 89 00 00 00       	mov    $0x89,%eax
    66bc:	ba 70 00 00 00       	mov    $0x70,%edx
    66c1:	ee                   	out    %al,(%dx)
    66c2:	eb 00                	jmp    66c4 <time_init+0xe7>
    66c4:	eb 00                	jmp    66c6 <time_init+0xe9>
    66c6:	b8 71 00 00 00       	mov    $0x71,%eax
    66cb:	89 c2                	mov    %eax,%edx
    66cd:	ec                   	in     (%dx),%al
    66ce:	eb 00                	jmp    66d0 <time_init+0xf3>
    66d0:	eb 00                	jmp    66d2 <time_init+0xf5>
    66d2:	88 44 24 2a          	mov    %al,0x2a(%esp)
    66d6:	0f b6 44 24 2a       	movzbl 0x2a(%esp),%eax
    66db:	0f b6 c0             	movzbl %al,%eax
    66de:	89 44 24 18          	mov    %eax,0x18(%esp)
	} while (time.tm_sec != CMOS_READ(0));
    66e2:	8b 4c 24 04          	mov    0x4(%esp),%ecx
    66e6:	b8 80 00 00 00       	mov    $0x80,%eax
    66eb:	ba 70 00 00 00       	mov    $0x70,%edx
    66f0:	ee                   	out    %al,(%dx)
    66f1:	eb 00                	jmp    66f3 <time_init+0x116>
    66f3:	eb 00                	jmp    66f5 <time_init+0x118>
    66f5:	b8 71 00 00 00       	mov    $0x71,%eax
    66fa:	89 c2                	mov    %eax,%edx
    66fc:	ec                   	in     (%dx),%al
    66fd:	eb 00                	jmp    66ff <time_init+0x122>
    66ff:	eb 00                	jmp    6701 <time_init+0x124>
    6701:	88 44 24 29          	mov    %al,0x29(%esp)
    6705:	0f b6 44 24 29       	movzbl 0x29(%esp),%eax
    670a:	0f b6 c0             	movzbl %al,%eax
    670d:	39 c1                	cmp    %eax,%ecx
    670f:	0f 85 cb fe ff ff    	jne    65e0 <time_init+0x3>
	BCD_TO_BIN(time.tm_sec);					// 转换成进进制数值.
    6715:	8b 44 24 04          	mov    0x4(%esp),%eax
    6719:	83 e0 0f             	and    $0xf,%eax
    671c:	89 c1                	mov    %eax,%ecx
    671e:	8b 44 24 04          	mov    0x4(%esp),%eax
    6722:	c1 f8 04             	sar    $0x4,%eax
    6725:	89 c2                	mov    %eax,%edx
    6727:	89 d0                	mov    %edx,%eax
    6729:	c1 e0 02             	shl    $0x2,%eax
    672c:	01 d0                	add    %edx,%eax
    672e:	01 c0                	add    %eax,%eax
    6730:	01 c8                	add    %ecx,%eax
    6732:	89 44 24 04          	mov    %eax,0x4(%esp)
	BCD_TO_BIN(time.tm_min);
    6736:	8b 44 24 08          	mov    0x8(%esp),%eax
    673a:	83 e0 0f             	and    $0xf,%eax
    673d:	89 c1                	mov    %eax,%ecx
    673f:	8b 44 24 08          	mov    0x8(%esp),%eax
    6743:	c1 f8 04             	sar    $0x4,%eax
    6746:	89 c2                	mov    %eax,%edx
    6748:	89 d0                	mov    %edx,%eax
    674a:	c1 e0 02             	shl    $0x2,%eax
    674d:	01 d0                	add    %edx,%eax
    674f:	01 c0                	add    %eax,%eax
    6751:	01 c8                	add    %ecx,%eax
    6753:	89 44 24 08          	mov    %eax,0x8(%esp)
	BCD_TO_BIN(time.tm_hour);
    6757:	8b 44 24 0c          	mov    0xc(%esp),%eax
    675b:	83 e0 0f             	and    $0xf,%eax
    675e:	89 c1                	mov    %eax,%ecx
    6760:	8b 44 24 0c          	mov    0xc(%esp),%eax
    6764:	c1 f8 04             	sar    $0x4,%eax
    6767:	89 c2                	mov    %eax,%edx
    6769:	89 d0                	mov    %edx,%eax
    676b:	c1 e0 02             	shl    $0x2,%eax
    676e:	01 d0                	add    %edx,%eax
    6770:	01 c0                	add    %eax,%eax
    6772:	01 c8                	add    %ecx,%eax
    6774:	89 44 24 0c          	mov    %eax,0xc(%esp)
	BCD_TO_BIN(time.tm_mday);
    6778:	8b 44 24 10          	mov    0x10(%esp),%eax
    677c:	83 e0 0f             	and    $0xf,%eax
    677f:	89 c1                	mov    %eax,%ecx
    6781:	8b 44 24 10          	mov    0x10(%esp),%eax
    6785:	c1 f8 04             	sar    $0x4,%eax
    6788:	89 c2                	mov    %eax,%edx
    678a:	89 d0                	mov    %edx,%eax
    678c:	c1 e0 02             	shl    $0x2,%eax
    678f:	01 d0                	add    %edx,%eax
    6791:	01 c0                	add    %eax,%eax
    6793:	01 c8                	add    %ecx,%eax
    6795:	89 44 24 10          	mov    %eax,0x10(%esp)
	BCD_TO_BIN(time.tm_mon);
    6799:	8b 44 24 14          	mov    0x14(%esp),%eax
    679d:	83 e0 0f             	and    $0xf,%eax
    67a0:	89 c1                	mov    %eax,%ecx
    67a2:	8b 44 24 14          	mov    0x14(%esp),%eax
    67a6:	c1 f8 04             	sar    $0x4,%eax
    67a9:	89 c2                	mov    %eax,%edx
    67ab:	89 d0                	mov    %edx,%eax
    67ad:	c1 e0 02             	shl    $0x2,%eax
    67b0:	01 d0                	add    %edx,%eax
    67b2:	01 c0                	add    %eax,%eax
    67b4:	01 c8                	add    %ecx,%eax
    67b6:	89 44 24 14          	mov    %eax,0x14(%esp)
	BCD_TO_BIN(time.tm_year);
    67ba:	8b 44 24 18          	mov    0x18(%esp),%eax
    67be:	83 e0 0f             	and    $0xf,%eax
    67c1:	89 c1                	mov    %eax,%ecx
    67c3:	8b 44 24 18          	mov    0x18(%esp),%eax
    67c7:	c1 f8 04             	sar    $0x4,%eax
    67ca:	89 c2                	mov    %eax,%edx
    67cc:	89 d0                	mov    %edx,%eax
    67ce:	c1 e0 02             	shl    $0x2,%eax
    67d1:	01 d0                	add    %edx,%eax
    67d3:	01 c0                	add    %eax,%eax
    67d5:	01 c8                	add    %ecx,%eax
    67d7:	89 44 24 18          	mov    %eax,0x18(%esp)
	time.tm_mon--;								// tm_mon中月份范围是0~11.
    67db:	8b 44 24 14          	mov    0x14(%esp),%eax
    67df:	83 e8 01             	sub    $0x1,%eax
    67e2:	89 44 24 14          	mov    %eax,0x14(%esp)
	startup_time = kernel_mktime(&time);		// 计算开机时间.kernel/mktime.c
    67e6:	83 ec 0c             	sub    $0xc,%esp
    67e9:	8d 44 24 10          	lea    0x10(%esp),%eax
    67ed:	50                   	push   %eax
    67ee:	e8 eb 53 00 00       	call   bbde <kernel_mktime>
    67f3:	83 c4 10             	add    $0x10,%esp
    67f6:	a3 04 fb 02 00       	mov    %eax,0x2fb04
}
    67fb:	90                   	nop
    67fc:	83 c4 3c             	add    $0x3c,%esp
    67ff:	c3                   	ret    

00006800 <main>:
struct drive_info { char dummy[32]; } drive_info;	// 用于存放硬盘参数表信息.

// 内核初始化主程序.初始化结束后将以任务0(idle任务即空闲任务)的身份运行.
// 英文注释含义是"这里确实是void,没错.在startup程序(head.s)中就是这样假设的".参见head.h程序代码.
int main(void)										/* This really IS void, no error here. */
{													/* The startup routine assumes (well, ...) this */
    6800:	8d 4c 24 04          	lea    0x4(%esp),%ecx
    6804:	83 e4 f0             	and    $0xfffffff0,%esp
    6807:	ff 71 fc             	pushl  -0x4(%ecx)
    680a:	55                   	push   %ebp
    680b:	89 e5                	mov    %esp,%ebp
    680d:	51                   	push   %ecx
    680e:	83 ec 04             	sub    $0x4,%esp
#ifdef EM
	// 开启仿真协处理器
	__asm__("movl %cr0,%eax \n\t" \
    6811:	0f 20 c0             	mov    %cr0,%eax
    6814:	83 f0 06             	xor    $0x6,%eax
    6817:	0f 22 c0             	mov    %eax,%cr0
	// 首先保存根文件系统设备和交换文件设备号,并根据setup.s程序中获取的信息设置控制台终端屏幕行,列数环境变量TERM,并用其设置初始init进程
	// 中执行etc/rc文件和shell程序使用的环境变量,以及复制内存0x90080处的硬盘表.
	// 其中ROOT_DEV已在前面包含进的include/linux/fs.h文件上被声明为extern_int
	// 而SWAP_DEV在include/linux/mm.h文件内也作了相同声明.这里mm.h文件并没有显式地列在本程序前部,因为前面包含进的include/linux/sched.h
	// 文件中已经含有它.
 	ROOT_DEV = ORIG_ROOT_DEV;										// ROOT_DEV定义在fs/super.c
    681a:	b8 fc 01 09 00       	mov    $0x901fc,%eax
    681f:	0f b7 00             	movzwl (%eax),%eax
    6822:	0f b7 c0             	movzwl %ax,%eax
    6825:	a3 cc 20 03 00       	mov    %eax,0x320cc
 	SWAP_DEV = ORIG_SWAP_DEV;										// SWAP_DEV定义在mm/swap.c
    682a:	b8 fa 01 09 00       	mov    $0x901fa,%eax
    682f:	0f b7 00             	movzwl (%eax),%eax
    6832:	0f b7 c0             	movzwl %ax,%eax
    6835:	a3 a0 11 03 00       	mov    %eax,0x311a0
   	sprintf(term, "TERM=con%dx%d", CON_COLS, CON_ROWS);
    683a:	b8 0e 00 09 00       	mov    $0x9000e,%eax
    683f:	0f b7 00             	movzwl (%eax),%eax
    6842:	0f b7 c0             	movzwl %ax,%eax
    6845:	0f b6 d0             	movzbl %al,%edx
    6848:	b8 0e 00 09 00       	mov    $0x9000e,%eax
    684d:	0f b7 00             	movzwl (%eax),%eax
    6850:	66 c1 e8 08          	shr    $0x8,%ax
    6854:	0f b7 c0             	movzwl %ax,%eax
    6857:	52                   	push   %edx
    6858:	50                   	push   %eax
    6859:	68 c7 29 02 00       	push   $0x229c7
    685e:	68 e0 fa 02 00       	push   $0x2fae0
    6863:	e8 43 fd ff ff       	call   65ab <sprintf>
    6868:	83 c4 10             	add    $0x10,%esp
	envp[1] = term;
    686b:	c7 05 20 e0 02 00 e0 	movl   $0x2fae0,0x2e020
    6872:	fa 02 00 
	envp_rc[1] = term;
    6875:	c7 05 0c e0 02 00 e0 	movl   $0x2fae0,0x2e00c
    687c:	fa 02 00 
    drive_info = DRIVE_INFO;										// 复制内存0x90080处的硬盘参数表.
    687f:	b8 80 00 09 00       	mov    $0x90080,%eax
    6884:	8b 10                	mov    (%eax),%edx
    6886:	89 15 20 07 04 00    	mov    %edx,0x40720
    688c:	8b 50 04             	mov    0x4(%eax),%edx
    688f:	89 15 24 07 04 00    	mov    %edx,0x40724
    6895:	8b 50 08             	mov    0x8(%eax),%edx
    6898:	89 15 28 07 04 00    	mov    %edx,0x40728
    689e:	8b 50 0c             	mov    0xc(%eax),%edx
    68a1:	89 15 2c 07 04 00    	mov    %edx,0x4072c
    68a7:	8b 50 10             	mov    0x10(%eax),%edx
    68aa:	89 15 30 07 04 00    	mov    %edx,0x40730
    68b0:	8b 50 14             	mov    0x14(%eax),%edx
    68b3:	89 15 34 07 04 00    	mov    %edx,0x40734
    68b9:	8b 50 18             	mov    0x18(%eax),%edx
    68bc:	89 15 38 07 04 00    	mov    %edx,0x40738
    68c2:	8b 40 1c             	mov    0x1c(%eax),%eax
    68c5:	a3 3c 07 04 00       	mov    %eax,0x4073c

	// 接着根据机器物理内存容量设置高速缓冲区和主内存的位置和范围.
	// 高速缓存末端地址->buffer_memory_end;机器内存容量->memory_end;主内存开始地址->main_memory_start.
	// 设置物理内存大小
	memory_end = (1 << 20) + (EXT_MEM_K << 10);						// 内存大小=1MB + 扩展内存(k)*1024字节.
    68ca:	b8 02 00 09 00       	mov    $0x90002,%eax
    68cf:	0f b7 00             	movzwl (%eax),%eax
    68d2:	0f b7 c0             	movzwl %ax,%eax
    68d5:	c1 e0 0a             	shl    $0xa,%eax
    68d8:	05 00 00 10 00       	add    $0x100000,%eax
    68dd:	a3 c0 fa 02 00       	mov    %eax,0x2fac0
	memory_end &= 0xfffff000;										// 忽略不到4KB(1页)的内存数.
    68e2:	a1 c0 fa 02 00       	mov    0x2fac0,%eax
    68e7:	25 00 f0 ff ff       	and    $0xfffff000,%eax
    68ec:	a3 c0 fa 02 00       	mov    %eax,0x2fac0
	if (memory_end > 16 * 1024 * 1024)								// 如果内存量超过16MB,则按16MB计.
    68f1:	a1 c0 fa 02 00       	mov    0x2fac0,%eax
    68f6:	3d 00 00 00 01       	cmp    $0x1000000,%eax
    68fb:	7e 0a                	jle    6907 <main+0x107>
		memory_end = 16 * 1024 * 1024;
    68fd:	c7 05 c0 fa 02 00 00 	movl   $0x1000000,0x2fac0
    6904:	00 00 01 
	// 根据物理内存的大小设置高速缓冲去的末端大小
	if (memory_end > 12 * 1024 * 1024) 								// 如果内存>12MB,则设置缓冲区末端=4MB
    6907:	a1 c0 fa 02 00       	mov    0x2fac0,%eax
    690c:	3d 00 00 c0 00       	cmp    $0xc00000,%eax
    6911:	7e 0c                	jle    691f <main+0x11f>
		buffer_memory_end = 4 * 1024 * 1024;
    6913:	c7 05 c4 fa 02 00 00 	movl   $0x400000,0x2fac4
    691a:	00 40 00 
    691d:	eb 22                	jmp    6941 <main+0x141>
	else if (memory_end > 6 * 1024 * 1024)							// 否则若内存>6MB,则设置缓冲区末端=2MB
    691f:	a1 c0 fa 02 00       	mov    0x2fac0,%eax
    6924:	3d 00 00 60 00       	cmp    $0x600000,%eax
    6929:	7e 0c                	jle    6937 <main+0x137>
		buffer_memory_end = 2 * 1024 * 1024;
    692b:	c7 05 c4 fa 02 00 00 	movl   $0x200000,0x2fac4
    6932:	00 20 00 
    6935:	eb 0a                	jmp    6941 <main+0x141>
	else
		buffer_memory_end = 1 * 1024 * 1024;						// 否则则设置缓冲区末端=1MB
    6937:	c7 05 c4 fa 02 00 00 	movl   $0x100000,0x2fac4
    693e:	00 10 00 
	// 根据高速缓冲区的末端大小设置主内存区的起始地址
	main_memory_start = buffer_memory_end;							// 主内存起始位置 = 缓冲区末端
    6941:	a1 c4 fa 02 00       	mov    0x2fac4,%eax
    6946:	a3 c8 fa 02 00       	mov    %eax,0x2fac8
	// 参见kernel/blk_drv/ramdisk.c.
#ifdef RAMDISK
	main_memory_start += rd_init(main_memory_start, RAMDISK * 1024);
#endif
	// 以下是内核进行所有方面的初始化工作.
	mem_init(main_memory_start, memory_end);						// 主内存区初始化.(mm/memory.c)
    694b:	8b 15 c0 fa 02 00    	mov    0x2fac0,%edx
    6951:	a1 c8 fa 02 00       	mov    0x2fac8,%eax
    6956:	83 ec 08             	sub    $0x8,%esp
    6959:	52                   	push   %edx
    695a:	50                   	push   %eax
    695b:	e8 8c 5f 00 00       	call   c8ec <mem_init>
    6960:	83 c4 10             	add    $0x10,%esp
	trap_init();                                    				// 陷阱门(硬件中断向量)初始化.(kernel/traps.c)
    6963:	e8 54 16 00 00       	call   7fbc <trap_init>
	blk_dev_init();													// 块设备初始化.(blk_drv/ll_rw_blk.c)
    6968:	e8 7f 00 01 00       	call   169ec <blk_dev_init>
	chr_dev_init();													// 字符设备初始化.(chr_drv/tty_io.c)
    696d:	e8 d7 31 01 00       	call   19b49 <chr_dev_init>
 	tty_init();														// tty初始化(chr_drv/tty_io.c)
    6972:	e8 d4 31 01 00       	call   19b4b <tty_init>
	time_init();													// 设置开机启动时间.
    6977:	e8 61 fc ff ff       	call   65dd <time_init>
 	sched_init();													// 调度程序初始化(加载任务0的tr,ldtr)(kernel/sched.c)
    697c:	e8 00 0e 00 00       	call   7781 <sched_init>
	buffer_init(buffer_memory_end);									// 缓冲管理初始化,建内存链表等.(fs/buffer.c)
    6981:	a1 c4 fa 02 00       	mov    0x2fac4,%eax
    6986:	83 ec 0c             	sub    $0xc,%esp
    6989:	50                   	push   %eax
    698a:	e8 cf 8f 00 00       	call   f95e <buffer_init>
    698f:	83 c4 10             	add    $0x10,%esp
	hd_init();														// 硬盘初始化.	(blk_drv/hd.c)
    6992:	e8 6d 1b 01 00       	call   18504 <hd_init>
	floppy_init();													// 软驱初始化.	(blk_drv/floppy.c)
    6997:	e8 12 0d 01 00       	call   176ae <floppy_init>
	sti();															// 所有初始化工作都完了,于是开启中断.
    699c:	fb                   	sti    
	// 打印内核初始化完毕
	Log(LOG_INFO_TYPE, "<<<<< Linux0.12 Kernel Init Finished, Ready Start Process0 >>>>>\n");
    699d:	83 ec 08             	sub    $0x8,%esp
    69a0:	68 d8 29 02 00       	push   $0x229d8
    69a5:	6a 00                	push   $0x0
    69a7:	e8 98 bf 01 00       	call   22944 <Log>
    69ac:	83 c4 10             	add    $0x10,%esp
	// 下面过程通过在堆栈中设置的参数,利用中断返回指令启动任务0执行.
	move_to_user_mode();											// 移到用户模式下执行.(include/asm/system.h)
    69af:	89 e0                	mov    %esp,%eax
    69b1:	6a 17                	push   $0x17
    69b3:	50                   	push   %eax
    69b4:	9c                   	pushf  
    69b5:	6a 0f                	push   $0xf
    69b7:	68 bd 69 00 00       	push   $0x69bd
    69bc:	cf                   	iret   
    69bd:	b8 17 00 00 00       	mov    $0x17,%eax
    69c2:	8e d8                	mov    %eax,%ds
    69c4:	8e c0                	mov    %eax,%es
    69c6:	8e e0                	mov    %eax,%fs
    69c8:	8e e8                	mov    %eax,%gs
	if (!fork_for_process0()) {										/* we count on this going ok */
    69ca:	e8 ad fb ff ff       	call   657c <fork_for_process0>
    69cf:	85 c0                	test   %eax,%eax
    69d1:	75 05                	jne    69d8 <main+0x1d8>
		init();														// 在新建的子进程(任务1即init进程)中执行.
    69d3:	e8 4f 00 00 00       	call   6a27 <init>
	 * 我们就回到这里,一直循环执行'pause()'.
	 */
	// pause()系统调用(kernel/sched.c)会把任务0转换成可中断等待状态,再执行调度函数.但是调度函数只要发现系统中没有其他任务可以运行时就会切换
	// 到任务0,是不信赖于任务0的状态.
	for(;;)
		__asm__("int $0x80"::"a" (__NR_pause):);					// 即执行系统调用pause().
    69d8:	b8 1d 00 00 00       	mov    $0x1d,%eax
    69dd:	cd 80                	int    $0x80
    69df:	eb f7                	jmp    69d8 <main+0x1d8>

000069e1 <printf>:

// 下面函数产生格式化信息并输出到标准输出设备stdout(1),这里是指屏幕上显示.参数'*fmt'指定输出将采用的格式,参见标准C语言书籍.
// 该子程序正好是vsprintf如何使用的一个简单例子.该程序使用vsprintf()将格式化的字符串放入printbuf缓冲区,然后用write()将
// 缓冲区的内容输出到标准设备(1--stdout).vsprintf()函数的实现见kernel/vsprintf.c.
int printf(const char *fmt, ...)
{
    69e1:	83 ec 1c             	sub    $0x1c,%esp
	va_list args;
	int i;

	va_start(args, fmt);
    69e4:	8d 44 24 24          	lea    0x24(%esp),%eax
    69e8:	89 44 24 0c          	mov    %eax,0xc(%esp)
	write(1, printbuf, i = vsprintf(printbuf, fmt, args));
    69ec:	8b 44 24 20          	mov    0x20(%esp),%eax
    69f0:	83 ec 04             	sub    $0x4,%esp
    69f3:	ff 74 24 10          	pushl  0x10(%esp)
    69f7:	50                   	push   %eax
    69f8:	68 c0 f6 02 00       	push   $0x2f6c0
    69fd:	e8 74 25 00 00       	call   8f76 <vsprintf>
    6a02:	83 c4 10             	add    $0x10,%esp
    6a05:	89 44 24 08          	mov    %eax,0x8(%esp)
    6a09:	83 ec 04             	sub    $0x4,%esp
    6a0c:	ff 74 24 0c          	pushl  0xc(%esp)
    6a10:	68 c0 f6 02 00       	push   $0x2f6c0
    6a15:	6a 01                	push   $0x1
    6a17:	e8 fa bd 01 00       	call   22816 <write>
    6a1c:	83 c4 10             	add    $0x10,%esp
	va_end(args);
	return i;
    6a1f:	8b 44 24 08          	mov    0x8(%esp),%eax
}
    6a23:	83 c4 1c             	add    $0x1c,%esp
    6a26:	c3                   	ret    

00006a27 <init>:

// 在main()中已经进行子系统初始化,包括内存管理,各种硬件设备和驱动程序.init()函数在任务0第1次创建的子进程(任务1)中.它首先对第一个将要执行
// 的程序(shell)的环境进行初始化,然后以登录shell方式加载程序并执行之.
void init(void)
{
    6a27:	83 ec 1c             	sub    $0x1c,%esp
	int pid, i, fd;
	// setup()是一个系统调用.用于读取硬盘参数和分区表信息并加载虚拟盘(若存在的话)和安装根文件系统设备.该函数用25行上的宏定义,对就函数是sys_setup(),
	// 在块设备子目录kernel/blk_drv/hd.c.
	setup((void *) &drive_info);
    6a2a:	68 20 07 04 00       	push   $0x40720
    6a2f:	e8 e2 fa ff ff       	call   6516 <setup>
    6a34:	83 c4 04             	add    $0x4,%esp
	// 下面以读写访问方式打开设备"/dev/tty0",它对应终端控制台.由于这是第一次打开文件操作,因此产生的文件句柄号(文件描述符)肯定是0.该句柄是UNIX类操作
	// 系统默认的控制台标准输入句柄stdin.这里再把它以读和写的方式分别打开是为了复制产生标准输出(写)句柄stdout和标准出错输出句柄stderr.函数前面的"(void)"
	// 前缀用于表示强制函数无需返回值.
	(void) open("/dev/tty1", O_RDWR, 0);
    6a37:	83 ec 04             	sub    $0x4,%esp
    6a3a:	6a 00                	push   $0x0
    6a3c:	6a 02                	push   $0x2
    6a3e:	68 1a 2a 02 00       	push   $0x22a1a
    6a43:	e8 4e bd 01 00       	call   22796 <open>
    6a48:	83 c4 10             	add    $0x10,%esp
	(void) dup(0);													// 复制句柄,产生句柄1号--stdout标准输出设备.
    6a4b:	83 ec 0c             	sub    $0xc,%esp
    6a4e:	6a 00                	push   $0x0
    6a50:	e8 fe bd 01 00       	call   22853 <dup>
    6a55:	83 c4 10             	add    $0x10,%esp
	(void) dup(0);													// 复制句柄,产生句柄2号--stderr标准出错输出设备.
    6a58:	83 ec 0c             	sub    $0xc,%esp
    6a5b:	6a 00                	push   $0x0
    6a5d:	e8 f1 bd 01 00       	call   22853 <dup>
    6a62:	83 c4 10             	add    $0x10,%esp
	// 进程1执行的用户级代码的开始
	printf("<<<<< Process 1 console fd = %d >>>>>\n", fd);
    6a65:	83 ec 08             	sub    $0x8,%esp
    6a68:	ff 74 24 14          	pushl  0x14(%esp)
    6a6c:	68 24 2a 02 00       	push   $0x22a24
    6a71:	e8 6b ff ff ff       	call   69e1 <printf>
    6a76:	83 c4 10             	add    $0x10,%esp
	// 下面打印缓冲区块数和总字节数,每块1024字节,以及主内存区空闲内存字节数.
	printf("<<<<< %d buffers = %d bytes buffer space >>>>>\n\r", NR_BUFFERS,
    6a79:	a1 c0 20 03 00       	mov    0x320c0,%eax
    6a7e:	c1 e0 0a             	shl    $0xa,%eax
    6a81:	89 c2                	mov    %eax,%edx
    6a83:	a1 c0 20 03 00       	mov    0x320c0,%eax
    6a88:	83 ec 04             	sub    $0x4,%esp
    6a8b:	52                   	push   %edx
    6a8c:	50                   	push   %eax
    6a8d:	68 4c 2a 02 00       	push   $0x22a4c
    6a92:	e8 4a ff ff ff       	call   69e1 <printf>
    6a97:	83 c4 10             	add    $0x10,%esp
			NR_BUFFERS * BLOCK_SIZE);
	printf("<<<<< Free mem: %d bytes >>>>>\n\r", memory_end - main_memory_start);
    6a9a:	8b 15 c0 fa 02 00    	mov    0x2fac0,%edx
    6aa0:	a1 c8 fa 02 00       	mov    0x2fac8,%eax
    6aa5:	29 c2                	sub    %eax,%edx
    6aa7:	89 d0                	mov    %edx,%eax
    6aa9:	83 ec 08             	sub    $0x8,%esp
    6aac:	50                   	push   %eax
    6aad:	68 80 2a 02 00       	push   $0x22a80
    6ab2:	e8 2a ff ff ff       	call   69e1 <printf>
    6ab7:	83 c4 10             	add    $0x10,%esp
	// 下面fork()用于创建一个子进程(任务2).对于被创建的子进程,fork()将返回0值,对于原进程(父进程)则返回子进程的进程号pid.所以第202--206行是子进程执行的内容.
	// 该子进程关闭了句柄0(stdin),以只读方式打开/etc/rc文件,并使用execve()函数将进程自身替换成/bin/sh程序(即shell程序),然后执行/bin/sh程序.所携带的参数
	// 和环境变量分别由argv_rc和envp_rc数组给出.关闭句柄0并立刻打开/etc/rc文件的作用是把标准输入stdin重定向到/etc/rc/文件.这样shell程序/bin/sh就可以运行
	// rc文件中设置的命令.由于这里sh的运行方式是非交互式的,因此在执行完rc文件中的命令后就会立刻退出,进程2也随之结束.并于execve()函数说明请参见fs/exec.c程序.
	// 函数_exit()退出时的出错码1 - 操作未许可;2 -- 文件或目录不存在.
	if (!(pid = fork())) {
    6aba:	e8 f9 f9 ff ff       	call   64b8 <fork>
    6abf:	89 44 24 08          	mov    %eax,0x8(%esp)
    6ac3:	83 7c 24 08 00       	cmpl   $0x0,0x8(%esp)
    6ac8:	75 59                	jne    6b23 <init+0xfc>
		close(0);
    6aca:	83 ec 0c             	sub    $0xc,%esp
    6acd:	6a 00                	push   $0x0
    6acf:	e8 0b bd 01 00       	call   227df <close>
    6ad4:	83 c4 10             	add    $0x10,%esp
		if (open("/etc/rc", O_RDONLY, 0))
    6ad7:	83 ec 04             	sub    $0x4,%esp
    6ada:	6a 00                	push   $0x0
    6adc:	6a 00                	push   $0x0
    6ade:	68 a1 2a 02 00       	push   $0x22aa1
    6ae3:	e8 ae bc 01 00       	call   22796 <open>
    6ae8:	83 c4 10             	add    $0x10,%esp
    6aeb:	85 c0                	test   %eax,%eax
    6aed:	74 0d                	je     6afc <init+0xd5>
			_exit(1);												// 若打开文件失败,则退出(lib/_exit.c).
    6aef:	83 ec 0c             	sub    $0xc,%esp
    6af2:	6a 01                	push   $0x1
    6af4:	e8 8c bc 01 00       	call   22785 <_exit>
    6af9:	83 c4 10             	add    $0x10,%esp
		execve("/bin/sh", argv_rc, envp_rc);						// 替换成/bin/sh程序并执行.
    6afc:	83 ec 04             	sub    $0x4,%esp
    6aff:	68 08 e0 02 00       	push   $0x2e008
    6b04:	68 00 e0 02 00       	push   $0x2e000
    6b09:	68 a0 29 02 00       	push   $0x229a0
    6b0e:	e8 a6 bd 01 00       	call   228b9 <execve>
    6b13:	83 c4 10             	add    $0x10,%esp
		_exit(2);													// 若execve()执行失败则退出.
    6b16:	83 ec 0c             	sub    $0xc,%esp
    6b19:	6a 02                	push   $0x2
    6b1b:	e8 65 bc 01 00       	call   22785 <_exit>
    6b20:	83 c4 10             	add    $0x10,%esp
    }
	// 下面还是父进程（1）执行的语句。wait()等待子进程停止或终止，返回值应是子进程的进程号（pid)。这三句的作用是父进程等待子进程
	// 的结束。&i是存放返回状态信息的位置。如果wait()返回值不等于子进程号，则继续等待。
  	if (pid > 0)
    6b23:	83 7c 24 08 00       	cmpl   $0x0,0x8(%esp)
    6b28:	7e 17                	jle    6b41 <init+0x11a>
		while (pid != wait(&i));
    6b2a:	90                   	nop
    6b2b:	83 ec 0c             	sub    $0xc,%esp
    6b2e:	8d 44 24 10          	lea    0x10(%esp),%eax
    6b32:	50                   	push   %eax
    6b33:	e8 fb bd 01 00       	call   22933 <wait>
    6b38:	83 c4 10             	add    $0x10,%esp
    6b3b:	39 44 24 08          	cmp    %eax,0x8(%esp)
    6b3f:	75 ea                	jne    6b2b <init+0x104>
	// 失败”信息并继续执行。对于所创建的子进程将关闭所有以前还遗留的句柄（stdin、stdout、stderr），新创建一个会话并设置进程组号，
	// 然后重新打开/dev/tty0作为stdin，并复制成stdout和stderr。再次执行系统解释程序/bin/sh。但这次执行所选用的参数和环境数组另
	// 选了一套。然后父进程再次运行wait()等等。如果子进程又停止了执行，则在标准输出上显示出错信息“子进程pid停止了运行，返回码是i”，
	// 然后继续重试下去...，形成“大”死循环。
	while (1) {
		if ((pid = fork()) < 0) {
    6b41:	e8 72 f9 ff ff       	call   64b8 <fork>
    6b46:	89 44 24 08          	mov    %eax,0x8(%esp)
    6b4a:	83 7c 24 08 00       	cmpl   $0x0,0x8(%esp)
    6b4f:	79 17                	jns    6b68 <init+0x141>
			printf("Fork failed in init %c\r\n", ' ');
    6b51:	83 ec 08             	sub    $0x8,%esp
    6b54:	6a 20                	push   $0x20
    6b56:	68 a9 2a 02 00       	push   $0x22aa9
    6b5b:	e8 81 fe ff ff       	call   69e1 <printf>
    6b60:	83 c4 10             	add    $0x10,%esp
			continue;
    6b63:	e9 c2 00 00 00       	jmp    6c2a <init+0x203>
		}
		if (!pid) {                             					// 新的子进程。
    6b68:	83 7c 24 08 00       	cmpl   $0x0,0x8(%esp)
    6b6d:	0f 85 80 00 00 00    	jne    6bf3 <init+0x1cc>
			close(0); close(1); close(2);
    6b73:	83 ec 0c             	sub    $0xc,%esp
    6b76:	6a 00                	push   $0x0
    6b78:	e8 62 bc 01 00       	call   227df <close>
    6b7d:	83 c4 10             	add    $0x10,%esp
    6b80:	83 ec 0c             	sub    $0xc,%esp
    6b83:	6a 01                	push   $0x1
    6b85:	e8 55 bc 01 00       	call   227df <close>
    6b8a:	83 c4 10             	add    $0x10,%esp
    6b8d:	83 ec 0c             	sub    $0xc,%esp
    6b90:	6a 02                	push   $0x2
    6b92:	e8 48 bc 01 00       	call   227df <close>
    6b97:	83 c4 10             	add    $0x10,%esp
			setsid();                       						// 创建一新的会话期，见后面说明。
    6b9a:	e8 eb bc 01 00       	call   2288a <setsid>
			(void) open("/dev/tty1", O_RDWR, 0);
    6b9f:	83 ec 04             	sub    $0x4,%esp
    6ba2:	6a 00                	push   $0x0
    6ba4:	6a 02                	push   $0x2
    6ba6:	68 1a 2a 02 00       	push   $0x22a1a
    6bab:	e8 e6 bb 01 00       	call   22796 <open>
    6bb0:	83 c4 10             	add    $0x10,%esp
			(void) dup(0);
    6bb3:	83 ec 0c             	sub    $0xc,%esp
    6bb6:	6a 00                	push   $0x0
    6bb8:	e8 96 bc 01 00       	call   22853 <dup>
    6bbd:	83 c4 10             	add    $0x10,%esp
			(void) dup(0);
    6bc0:	83 ec 0c             	sub    $0xc,%esp
    6bc3:	6a 00                	push   $0x0
    6bc5:	e8 89 bc 01 00       	call   22853 <dup>
    6bca:	83 c4 10             	add    $0x10,%esp
			_exit(execve("/bin/sh", argv, envp));
    6bcd:	83 ec 04             	sub    $0x4,%esp
    6bd0:	68 1c e0 02 00       	push   $0x2e01c
    6bd5:	68 14 e0 02 00       	push   $0x2e014
    6bda:	68 a0 29 02 00       	push   $0x229a0
    6bdf:	e8 d5 bc 01 00       	call   228b9 <execve>
    6be4:	83 c4 10             	add    $0x10,%esp
    6be7:	83 ec 0c             	sub    $0xc,%esp
    6bea:	50                   	push   %eax
    6beb:	e8 95 bb 01 00       	call   22785 <_exit>
    6bf0:	83 c4 10             	add    $0x10,%esp
		}
		while (1)
			if (pid == wait(&i))
    6bf3:	83 ec 0c             	sub    $0xc,%esp
    6bf6:	8d 44 24 10          	lea    0x10(%esp),%eax
    6bfa:	50                   	push   %eax
    6bfb:	e8 33 bd 01 00       	call   22933 <wait>
    6c00:	83 c4 10             	add    $0x10,%esp
    6c03:	39 44 24 08          	cmp    %eax,0x8(%esp)
    6c07:	74 02                	je     6c0b <init+0x1e4>
    6c09:	eb e8                	jmp    6bf3 <init+0x1cc>
				break;
    6c0b:	90                   	nop
		printf("\n\rchild %d died with code %04x\n\r", pid, i);
    6c0c:	8b 44 24 04          	mov    0x4(%esp),%eax
    6c10:	83 ec 04             	sub    $0x4,%esp
    6c13:	50                   	push   %eax
    6c14:	ff 74 24 10          	pushl  0x10(%esp)
    6c18:	68 c4 2a 02 00       	push   $0x22ac4
    6c1d:	e8 bf fd ff ff       	call   69e1 <printf>
    6c22:	83 c4 10             	add    $0x10,%esp
		sync();
    6c25:	e8 23 f9 ff ff       	call   654d <sync>
		if ((pid = fork()) < 0) {
    6c2a:	e9 12 ff ff ff       	jmp    6b41 <init+0x11a>
    6c2f:	90                   	nop

00006c30 <show_task>:
// 除了SIGKILL和SIGSTOP信号以外其他信号都是可阻塞的.
#define _BLOCKABLE (~(_S(SIGKILL) | _S(SIGSTOP)))

// 内核调试函数.显示任务号nr的进程号,进程状态和内核堆栈空闲字节数(大约).
void show_task(int nr, struct task_struct * p)
{
    6c30:	53                   	push   %ebx
    6c31:	83 ec 18             	sub    $0x18,%esp
	int i, j = 4096 - sizeof(struct task_struct);
    6c34:	c7 44 24 08 7c 0b 00 	movl   $0xb7c,0x8(%esp)
    6c3b:	00 

	printk("%d: pid=%d, state=%d, father=%d, child=%d, ", nr, p->pid,
		p->state, p->p_pptr->pid, p->p_cptr ? p->p_cptr->pid : -1);
    6c3c:	8b 44 24 24          	mov    0x24(%esp),%eax
    6c40:	8b 80 c0 02 00 00    	mov    0x2c0(%eax),%eax
	printk("%d: pid=%d, state=%d, father=%d, child=%d, ", nr, p->pid,
    6c46:	85 c0                	test   %eax,%eax
    6c48:	74 12                	je     6c5c <show_task+0x2c>
		p->state, p->p_pptr->pid, p->p_cptr ? p->p_cptr->pid : -1);
    6c4a:	8b 44 24 24          	mov    0x24(%esp),%eax
    6c4e:	8b 80 c0 02 00 00    	mov    0x2c0(%eax),%eax
	printk("%d: pid=%d, state=%d, father=%d, child=%d, ", nr, p->pid,
    6c54:	8b 80 2c 02 00 00    	mov    0x22c(%eax),%eax
    6c5a:	eb 05                	jmp    6c61 <show_task+0x31>
    6c5c:	b8 ff ff ff ff       	mov    $0xffffffff,%eax
		p->state, p->p_pptr->pid, p->p_cptr ? p->p_cptr->pid : -1);
    6c61:	8b 54 24 24          	mov    0x24(%esp),%edx
    6c65:	8b 92 bc 02 00 00    	mov    0x2bc(%edx),%edx
	printk("%d: pid=%d, state=%d, father=%d, child=%d, ", nr, p->pid,
    6c6b:	8b 9a 2c 02 00 00    	mov    0x22c(%edx),%ebx
    6c71:	8b 54 24 24          	mov    0x24(%esp),%edx
    6c75:	8b 0a                	mov    (%edx),%ecx
    6c77:	8b 54 24 24          	mov    0x24(%esp),%edx
    6c7b:	8b 92 2c 02 00 00    	mov    0x22c(%edx),%edx
    6c81:	83 ec 08             	sub    $0x8,%esp
    6c84:	50                   	push   %eax
    6c85:	53                   	push   %ebx
    6c86:	51                   	push   %ecx
    6c87:	52                   	push   %edx
    6c88:	ff 74 24 38          	pushl  0x38(%esp)
    6c8c:	68 e8 2a 02 00       	push   $0x22ae8
    6c91:	e8 b0 1f 00 00       	call   8c46 <printk>
    6c96:	83 c4 20             	add    $0x20,%esp
	i = 0;
    6c99:	c7 44 24 0c 00 00 00 	movl   $0x0,0xc(%esp)
    6ca0:	00 
	while (i < j && !((char *)(p + 1))[i])				// 检测指定任务数据结构以后等于0的字节数.
    6ca1:	eb 05                	jmp    6ca8 <show_task+0x78>
		i++;
    6ca3:	83 44 24 0c 01       	addl   $0x1,0xc(%esp)
	while (i < j && !((char *)(p + 1))[i])				// 检测指定任务数据结构以后等于0的字节数.
    6ca8:	8b 44 24 0c          	mov    0xc(%esp),%eax
    6cac:	3b 44 24 08          	cmp    0x8(%esp),%eax
    6cb0:	7d 17                	jge    6cc9 <show_task+0x99>
    6cb2:	8b 44 24 24          	mov    0x24(%esp),%eax
    6cb6:	8d 90 84 04 00 00    	lea    0x484(%eax),%edx
    6cbc:	8b 44 24 0c          	mov    0xc(%esp),%eax
    6cc0:	01 d0                	add    %edx,%eax
    6cc2:	0f b6 00             	movzbl (%eax),%eax
    6cc5:	84 c0                	test   %al,%al
    6cc7:	74 da                	je     6ca3 <show_task+0x73>
	printk("%d/%d chars free in kstack\n\r", i, j);
    6cc9:	83 ec 04             	sub    $0x4,%esp
    6ccc:	ff 74 24 0c          	pushl  0xc(%esp)
    6cd0:	ff 74 24 14          	pushl  0x14(%esp)
    6cd4:	68 14 2b 02 00       	push   $0x22b14
    6cd9:	e8 68 1f 00 00       	call   8c46 <printk>
    6cde:	83 c4 10             	add    $0x10,%esp
	printk("   PC=%08X.", *(1019 + (unsigned long *) p));
    6ce1:	8b 44 24 24          	mov    0x24(%esp),%eax
    6ce5:	05 ec 0f 00 00       	add    $0xfec,%eax
    6cea:	8b 00                	mov    (%eax),%eax
    6cec:	83 ec 08             	sub    $0x8,%esp
    6cef:	50                   	push   %eax
    6cf0:	68 31 2b 02 00       	push   $0x22b31
    6cf5:	e8 4c 1f 00 00       	call   8c46 <printk>
    6cfa:	83 c4 10             	add    $0x10,%esp
	if (p->p_ysptr || p->p_osptr)
    6cfd:	8b 44 24 24          	mov    0x24(%esp),%eax
    6d01:	8b 80 c4 02 00 00    	mov    0x2c4(%eax),%eax
    6d07:	85 c0                	test   %eax,%eax
    6d09:	75 0e                	jne    6d19 <show_task+0xe9>
    6d0b:	8b 44 24 24          	mov    0x24(%esp),%eax
    6d0f:	8b 80 c8 02 00 00    	mov    0x2c8(%eax),%eax
    6d15:	85 c0                	test   %eax,%eax
    6d17:	74 5e                	je     6d77 <show_task+0x147>
		printk("   Younger sib=%d, older sib=%d\n\r",
			p->p_ysptr ? p->p_ysptr->pid : -1,
			p->p_osptr ? p->p_osptr->pid : -1);
    6d19:	8b 44 24 24          	mov    0x24(%esp),%eax
    6d1d:	8b 80 c8 02 00 00    	mov    0x2c8(%eax),%eax
		printk("   Younger sib=%d, older sib=%d\n\r",
    6d23:	85 c0                	test   %eax,%eax
    6d25:	74 12                	je     6d39 <show_task+0x109>
			p->p_osptr ? p->p_osptr->pid : -1);
    6d27:	8b 44 24 24          	mov    0x24(%esp),%eax
    6d2b:	8b 80 c8 02 00 00    	mov    0x2c8(%eax),%eax
		printk("   Younger sib=%d, older sib=%d\n\r",
    6d31:	8b 90 2c 02 00 00    	mov    0x22c(%eax),%edx
    6d37:	eb 05                	jmp    6d3e <show_task+0x10e>
    6d39:	ba ff ff ff ff       	mov    $0xffffffff,%edx
			p->p_ysptr ? p->p_ysptr->pid : -1,
    6d3e:	8b 44 24 24          	mov    0x24(%esp),%eax
    6d42:	8b 80 c4 02 00 00    	mov    0x2c4(%eax),%eax
		printk("   Younger sib=%d, older sib=%d\n\r",
    6d48:	85 c0                	test   %eax,%eax
    6d4a:	74 12                	je     6d5e <show_task+0x12e>
			p->p_ysptr ? p->p_ysptr->pid : -1,
    6d4c:	8b 44 24 24          	mov    0x24(%esp),%eax
    6d50:	8b 80 c4 02 00 00    	mov    0x2c4(%eax),%eax
		printk("   Younger sib=%d, older sib=%d\n\r",
    6d56:	8b 80 2c 02 00 00    	mov    0x22c(%eax),%eax
    6d5c:	eb 05                	jmp    6d63 <show_task+0x133>
    6d5e:	b8 ff ff ff ff       	mov    $0xffffffff,%eax
    6d63:	83 ec 04             	sub    $0x4,%esp
    6d66:	52                   	push   %edx
    6d67:	50                   	push   %eax
    6d68:	68 40 2b 02 00       	push   $0x22b40
    6d6d:	e8 d4 1e 00 00       	call   8c46 <printk>
    6d72:	83 c4 10             	add    $0x10,%esp
    6d75:	eb 10                	jmp    6d87 <show_task+0x157>
	else
		printk("\n\r");
    6d77:	83 ec 0c             	sub    $0xc,%esp
    6d7a:	68 62 2b 02 00       	push   $0x22b62
    6d7f:	e8 c2 1e 00 00       	call   8c46 <printk>
    6d84:	83 c4 10             	add    $0x10,%esp
}
    6d87:	90                   	nop
    6d88:	83 c4 18             	add    $0x18,%esp
    6d8b:	5b                   	pop    %ebx
    6d8c:	c3                   	ret    

00006d8d <show_state>:

// 显示所有任务的任务号,进程号,进程状态和内核堆栈空闲字节数(大约).
// NR_TASKS是系统能容纳的最大进程(任务)数量(64个),定义在include/kernel/sched.h
void show_state(void)
{
    6d8d:	83 ec 1c             	sub    $0x1c,%esp
	int i;

	printk("\rTask-info:\n\r");
    6d90:	83 ec 0c             	sub    $0xc,%esp
    6d93:	68 65 2b 02 00       	push   $0x22b65
    6d98:	e8 a9 1e 00 00       	call   8c46 <printk>
    6d9d:	83 c4 10             	add    $0x10,%esp
	for (i = 0; i < NR_TASKS; i++)
    6da0:	c7 44 24 0c 00 00 00 	movl   $0x0,0xc(%esp)
    6da7:	00 
    6da8:	eb 2f                	jmp    6dd9 <show_state+0x4c>
		if (task[i])
    6daa:	8b 44 24 0c          	mov    0xc(%esp),%eax
    6dae:	8b 04 85 c0 f1 02 00 	mov    0x2f1c0(,%eax,4),%eax
    6db5:	85 c0                	test   %eax,%eax
    6db7:	74 1b                	je     6dd4 <show_state+0x47>
			show_task(i, task[i]);
    6db9:	8b 44 24 0c          	mov    0xc(%esp),%eax
    6dbd:	8b 04 85 c0 f1 02 00 	mov    0x2f1c0(,%eax,4),%eax
    6dc4:	83 ec 08             	sub    $0x8,%esp
    6dc7:	50                   	push   %eax
    6dc8:	ff 74 24 18          	pushl  0x18(%esp)
    6dcc:	e8 5f fe ff ff       	call   6c30 <show_task>
    6dd1:	83 c4 10             	add    $0x10,%esp
	for (i = 0; i < NR_TASKS; i++)
    6dd4:	83 44 24 0c 01       	addl   $0x1,0xc(%esp)
    6dd9:	83 7c 24 0c 3f       	cmpl   $0x3f,0xc(%esp)
    6dde:	7e ca                	jle    6daa <show_state+0x1d>
}
    6de0:	90                   	nop
    6de1:	83 c4 1c             	add    $0x1c,%esp
    6de4:	c3                   	ret    

00006de5 <math_state_restore>:
 */
// 当任务被调度交换过以后,该函数用以保存原任务的协处理器状态(上下文)并恢复新调度进来的当前任务的协处理器执行状态.
void math_state_restore()
{
	// 如果任务没变则返回(上一个任务就是当前任务).这里"上一个任务"是指刚被交换出去的任务.
	if (last_task_used_math == current)
    6de5:	8b 15 0c fb 02 00    	mov    0x2fb0c,%edx
    6deb:	a1 a0 f1 02 00       	mov    0x2f1a0,%eax
    6df0:	39 c2                	cmp    %eax,%edx
    6df2:	74 4d                	je     6e41 <math_state_restore+0x5c>
		return;
	// 在发送协处理器命令之前要先必WAIT指令.如果上个任务使用了协处理器,则保存其状态.
	__asm__("fwait");
    6df4:	9b                   	fwait
	if (last_task_used_math) {
    6df5:	a1 0c fb 02 00       	mov    0x2fb0c,%eax
    6dfa:	85 c0                	test   %eax,%eax
    6dfc:	74 0b                	je     6e09 <math_state_restore+0x24>
		__asm__("fnsave %0"::"m" (last_task_used_math->tss.i387));
    6dfe:	a1 0c fb 02 00       	mov    0x2fb0c,%eax
    6e03:	dd b0 18 04 00 00    	fnsave 0x418(%eax)
	}
	// 现在,las_task_used_math指向当前任务,以备当前任务被交换出去时使用.此时如果当前任务用过协处理器,则恢复其状态.否则的话说明是第一次使用,
	// 于是就向协处理器发初始化命令,并设置使用协处理器标志.
	last_task_used_math = current;
    6e09:	a1 a0 f1 02 00       	mov    0x2f1a0,%eax
    6e0e:	a3 0c fb 02 00       	mov    %eax,0x2fb0c
	if (current->used_math) {
    6e13:	a1 a0 f1 02 00       	mov    0x2f1a0,%eax
    6e18:	0f b7 80 28 03 00 00 	movzwl 0x328(%eax),%eax
    6e1f:	66 85 c0             	test   %ax,%ax
    6e22:	74 0c                	je     6e30 <math_state_restore+0x4b>
		__asm__("frstor %0"::"m" (current->tss.i387));
    6e24:	a1 a0 f1 02 00       	mov    0x2f1a0,%eax
    6e29:	dd a0 18 04 00 00    	frstor 0x418(%eax)
    6e2f:	c3                   	ret    
	} else {
		__asm__("fninit"::);					// 向协处理器发初始化命令.
    6e30:	db e3                	fninit 
		current->used_math=1;					// 设置已使用协处理器标志.
    6e32:	a1 a0 f1 02 00       	mov    0x2f1a0,%eax
    6e37:	66 c7 80 28 03 00 00 	movw   $0x1,0x328(%eax)
    6e3e:	01 00 
    6e40:	c3                   	ret    
		return;
    6e41:	90                   	nop
	}
}
    6e42:	c3                   	ret    

00006e43 <schedule>:
 *
 * 注意!!任务0是个闲置('idle')任务,只有当没有其他任务可以运行时才调用它.它不能被杀死,也不睡眠.任务0中的状态信息'state'是从
 * 来不用的.
 */
void schedule(void)
{
    6e43:	83 ec 20             	sub    $0x20,%esp

	/* check alarm, wake up any interruptible tasks that have got a signal */
	/* 检测alarm(进程的报警定时值),唤醒任何已得到信号的可中断任务 */

	// 从任务数组中最后一个任务开始循环检测alarm.在循环时跳过空指针项.
	for(p = &LAST_TASK ; p > &FIRST_TASK ; --p)
    6e46:	c7 44 24 10 bc f2 02 	movl   $0x2f2bc,0x10(%esp)
    6e4d:	00 
    6e4e:	e9 e6 00 00 00       	jmp    6f39 <schedule+0xf6>
		if (*p) {
    6e53:	8b 44 24 10          	mov    0x10(%esp),%eax
    6e57:	8b 00                	mov    (%eax),%eax
    6e59:	85 c0                	test   %eax,%eax
    6e5b:	0f 84 d3 00 00 00    	je     6f34 <schedule+0xf1>
			// 如果设置过任务超时定时timeout,并且已经超时,则复位超时定时值,并且如果任务处于可中断睡眠状态TASK_INTERRUPTIBLE下,将其置为就绪
			// 状态(TASK_RUNNING).
			if ((*p)->timeout && (*p)->timeout < jiffies) {
    6e61:	8b 44 24 10          	mov    0x10(%esp),%eax
    6e65:	8b 00                	mov    (%eax),%eax
    6e67:	8b 80 d8 02 00 00    	mov    0x2d8(%eax),%eax
    6e6d:	85 c0                	test   %eax,%eax
    6e6f:	74 3e                	je     6eaf <schedule+0x6c>
    6e71:	8b 44 24 10          	mov    0x10(%esp),%eax
    6e75:	8b 00                	mov    (%eax),%eax
    6e77:	8b 90 d8 02 00 00    	mov    0x2d8(%eax),%edx
    6e7d:	a1 00 fb 02 00       	mov    0x2fb00,%eax
    6e82:	39 c2                	cmp    %eax,%edx
    6e84:	73 29                	jae    6eaf <schedule+0x6c>
				(*p)->timeout = 0;
    6e86:	8b 44 24 10          	mov    0x10(%esp),%eax
    6e8a:	8b 00                	mov    (%eax),%eax
    6e8c:	c7 80 d8 02 00 00 00 	movl   $0x0,0x2d8(%eax)
    6e93:	00 00 00 
				if ((*p)->state == TASK_INTERRUPTIBLE)
    6e96:	8b 44 24 10          	mov    0x10(%esp),%eax
    6e9a:	8b 00                	mov    (%eax),%eax
    6e9c:	8b 00                	mov    (%eax),%eax
    6e9e:	83 f8 01             	cmp    $0x1,%eax
    6ea1:	75 0c                	jne    6eaf <schedule+0x6c>
					(*p)->state = TASK_RUNNING;
    6ea3:	8b 44 24 10          	mov    0x10(%esp),%eax
    6ea7:	8b 00                	mov    (%eax),%eax
    6ea9:	c7 00 00 00 00 00    	movl   $0x0,(%eax)
			}
			// 如果设置过任务的定时值alarm,并且已经过期(alarm<jiffies),则在信号位图中置SIGALRM信号,即向任务发送SIGALARM信号.然后清alarm.
			// 该信号的默认操作是终止进程.jiffies是系统从开机开始算起的滴答数(10ms/滴答).定义在sched.h中.
			if ((*p)->alarm && (*p)->alarm < jiffies) {
    6eaf:	8b 44 24 10          	mov    0x10(%esp),%eax
    6eb3:	8b 00                	mov    (%eax),%eax
    6eb5:	8b 80 dc 02 00 00    	mov    0x2dc(%eax),%eax
    6ebb:	85 c0                	test   %eax,%eax
    6ebd:	74 3a                	je     6ef9 <schedule+0xb6>
    6ebf:	8b 44 24 10          	mov    0x10(%esp),%eax
    6ec3:	8b 00                	mov    (%eax),%eax
    6ec5:	8b 90 dc 02 00 00    	mov    0x2dc(%eax),%edx
    6ecb:	a1 00 fb 02 00       	mov    0x2fb00,%eax
    6ed0:	39 c2                	cmp    %eax,%edx
    6ed2:	73 25                	jae    6ef9 <schedule+0xb6>
				(*p)->signal |= (1 << (SIGALRM - 1));
    6ed4:	8b 44 24 10          	mov    0x10(%esp),%eax
    6ed8:	8b 00                	mov    (%eax),%eax
    6eda:	8b 50 0c             	mov    0xc(%eax),%edx
    6edd:	8b 44 24 10          	mov    0x10(%esp),%eax
    6ee1:	8b 00                	mov    (%eax),%eax
    6ee3:	80 ce 20             	or     $0x20,%dh
    6ee6:	89 50 0c             	mov    %edx,0xc(%eax)
				(*p)->alarm = 0;
    6ee9:	8b 44 24 10          	mov    0x10(%esp),%eax
    6eed:	8b 00                	mov    (%eax),%eax
    6eef:	c7 80 dc 02 00 00 00 	movl   $0x0,0x2dc(%eax)
    6ef6:	00 00 00 
			}
			// 如果信号位图中除被阻塞的信号外还有其他信号,并且任务处于可中断状态,则置任务为就绪状态.
			// 其中'~(_BLOCKABLE & (*p)->blocked)'用于忽略被阻塞的信号,但SIGKILL和SIGSTOP不能被阻塞.
			if (((*p)->signal & ~(_BLOCKABLE & (*p)->blocked)) && (*p)->state == TASK_INTERRUPTIBLE)
    6ef9:	8b 44 24 10          	mov    0x10(%esp),%eax
    6efd:	8b 00                	mov    (%eax),%eax
    6eff:	8b 50 0c             	mov    0xc(%eax),%edx
    6f02:	8b 44 24 10          	mov    0x10(%esp),%eax
    6f06:	8b 00                	mov    (%eax),%eax
    6f08:	8b 80 10 02 00 00    	mov    0x210(%eax),%eax
    6f0e:	25 ff fe fb ff       	and    $0xfffbfeff,%eax
    6f13:	f7 d0                	not    %eax
    6f15:	21 d0                	and    %edx,%eax
    6f17:	85 c0                	test   %eax,%eax
    6f19:	74 19                	je     6f34 <schedule+0xf1>
    6f1b:	8b 44 24 10          	mov    0x10(%esp),%eax
    6f1f:	8b 00                	mov    (%eax),%eax
    6f21:	8b 00                	mov    (%eax),%eax
    6f23:	83 f8 01             	cmp    $0x1,%eax
    6f26:	75 0c                	jne    6f34 <schedule+0xf1>
				(*p)->state = TASK_RUNNING;
    6f28:	8b 44 24 10          	mov    0x10(%esp),%eax
    6f2c:	8b 00                	mov    (%eax),%eax
    6f2e:	c7 00 00 00 00 00    	movl   $0x0,(%eax)
	for(p = &LAST_TASK ; p > &FIRST_TASK ; --p)
    6f34:	83 6c 24 10 04       	subl   $0x4,0x10(%esp)
    6f39:	81 7c 24 10 c0 f1 02 	cmpl   $0x2f1c0,0x10(%esp)
    6f40:	00 
    6f41:	0f 87 0c ff ff ff    	ja     6e53 <schedule+0x10>
		}

	/* this is the scheduler proper: */
	/* 这里是调度程序的主要部分 */
	while (1) {
		c = -1;
    6f47:	c7 44 24 14 ff ff ff 	movl   $0xffffffff,0x14(%esp)
    6f4e:	ff 
		next = 0;
    6f4f:	c7 44 24 18 00 00 00 	movl   $0x0,0x18(%esp)
    6f56:	00 
		i = NR_TASKS;
    6f57:	c7 44 24 1c 40 00 00 	movl   $0x40,0x1c(%esp)
    6f5e:	00 
		p = &task[NR_TASKS];
    6f5f:	c7 44 24 10 c0 f2 02 	movl   $0x2f2c0,0x10(%esp)
    6f66:	00 
		// 这段代码是从任务数组的最后一个任务开始循环处理,并跳过不含任务的数组糟.比较每个就绪状态任务的counter(任务运行时间的递减滴答计数)值,
		// 哪一个值大,运行时间还不长,next就指向哪个的任务号.
		while (--i) {
    6f67:	eb 41                	jmp    6faa <schedule+0x167>
			// 当前索引没有进程指针则跳过当前循环
			if (!*--p)
    6f69:	83 6c 24 10 04       	subl   $0x4,0x10(%esp)
    6f6e:	8b 44 24 10          	mov    0x10(%esp),%eax
    6f72:	8b 00                	mov    (%eax),%eax
    6f74:	85 c0                	test   %eax,%eax
    6f76:	75 02                	jne    6f7a <schedule+0x137>
				continue;
    6f78:	eb 30                	jmp    6faa <schedule+0x167>
			if ((*p)->state == TASK_RUNNING && (*p)->counter > c)
    6f7a:	8b 44 24 10          	mov    0x10(%esp),%eax
    6f7e:	8b 00                	mov    (%eax),%eax
    6f80:	8b 00                	mov    (%eax),%eax
    6f82:	85 c0                	test   %eax,%eax
    6f84:	75 24                	jne    6faa <schedule+0x167>
    6f86:	8b 44 24 10          	mov    0x10(%esp),%eax
    6f8a:	8b 00                	mov    (%eax),%eax
    6f8c:	8b 40 04             	mov    0x4(%eax),%eax
    6f8f:	39 44 24 14          	cmp    %eax,0x14(%esp)
    6f93:	7d 15                	jge    6faa <schedule+0x167>
				c = (*p)->counter, next = i;
    6f95:	8b 44 24 10          	mov    0x10(%esp),%eax
    6f99:	8b 00                	mov    (%eax),%eax
    6f9b:	8b 40 04             	mov    0x4(%eax),%eax
    6f9e:	89 44 24 14          	mov    %eax,0x14(%esp)
    6fa2:	8b 44 24 1c          	mov    0x1c(%esp),%eax
    6fa6:	89 44 24 18          	mov    %eax,0x18(%esp)
		while (--i) {
    6faa:	83 6c 24 1c 01       	subl   $0x1,0x1c(%esp)
    6faf:	83 7c 24 1c 00       	cmpl   $0x0,0x1c(%esp)
    6fb4:	75 b3                	jne    6f69 <schedule+0x126>
		}
		// 如果比较得出有counter值不等于0的结果,或者後方中没有一个可运行的任务存在(此时c仍然为-1,next=0),则退出开始的循环,执行161行上的任务切换
		// 操作.否则就根据每个任务的优先权值,更新每一个任务的counter值,然后回到125行重新比较.counter值的计算方式为counter = counter /2 +priority.
		// 注意,这里计算过程不考虑进程的状态.
		if (c) break;
    6fb6:	83 7c 24 14 00       	cmpl   $0x0,0x14(%esp)
    6fbb:	75 49                	jne    7006 <schedule+0x1c3>
		for(p = &LAST_TASK ; p > &FIRST_TASK ; --p)
    6fbd:	c7 44 24 10 bc f2 02 	movl   $0x2f2bc,0x10(%esp)
    6fc4:	00 
    6fc5:	eb 30                	jmp    6ff7 <schedule+0x1b4>
			if (*p)
    6fc7:	8b 44 24 10          	mov    0x10(%esp),%eax
    6fcb:	8b 00                	mov    (%eax),%eax
    6fcd:	85 c0                	test   %eax,%eax
    6fcf:	74 21                	je     6ff2 <schedule+0x1af>
				(*p)->counter = ((*p)->counter >> 1) + (*p)->priority;
    6fd1:	8b 44 24 10          	mov    0x10(%esp),%eax
    6fd5:	8b 00                	mov    (%eax),%eax
    6fd7:	8b 40 04             	mov    0x4(%eax),%eax
    6fda:	d1 f8                	sar    %eax
    6fdc:	89 c1                	mov    %eax,%ecx
    6fde:	8b 44 24 10          	mov    0x10(%esp),%eax
    6fe2:	8b 00                	mov    (%eax),%eax
    6fe4:	8b 50 08             	mov    0x8(%eax),%edx
    6fe7:	8b 44 24 10          	mov    0x10(%esp),%eax
    6feb:	8b 00                	mov    (%eax),%eax
    6fed:	01 ca                	add    %ecx,%edx
    6fef:	89 50 04             	mov    %edx,0x4(%eax)
		for(p = &LAST_TASK ; p > &FIRST_TASK ; --p)
    6ff2:	83 6c 24 10 04       	subl   $0x4,0x10(%esp)
    6ff7:	81 7c 24 10 c0 f1 02 	cmpl   $0x2f1c0,0x10(%esp)
    6ffe:	00 
    6fff:	77 c6                	ja     6fc7 <schedule+0x184>
		c = -1;
    7001:	e9 41 ff ff ff       	jmp    6f47 <schedule+0x104>
		if (c) break;
    7006:	90                   	nop
	}
	// 用下面的宏(定义在sched.h中)把当前任务指针current指向任务号为next的任务,并切换到该任务中运行.在146行上next被初始化为0.因此若系统中没有任何
	// 其他任务可运行时,则next始终为0.因此调度函数会在系统空闲时去执行任务0.此时任务0权执行pause()
	switch_to(next);					// 切换到任务号为next的任务,并运行之.
    7007:	8b 44 24 18          	mov    0x18(%esp),%eax
    700b:	c1 e0 04             	shl    $0x4,%eax
    700e:	8d 50 20             	lea    0x20(%eax),%edx
    7011:	8b 44 24 18          	mov    0x18(%esp),%eax
    7015:	8b 04 85 c0 f1 02 00 	mov    0x2f1c0(,%eax,4),%eax
    701c:	89 c1                	mov    %eax,%ecx
    701e:	39 0d a0 f1 02 00    	cmp    %ecx,0x2f1a0
    7024:	74 19                	je     703f <schedule+0x1fc>
    7026:	66 89 54 24 0c       	mov    %dx,0xc(%esp)
    702b:	87 0d a0 f1 02 00    	xchg   %ecx,0x2f1a0
    7031:	ff 6c 24 08          	ljmp   *0x8(%esp)
    7035:	39 0d 0c fb 02 00    	cmp    %ecx,0x2fb0c
    703b:	75 02                	jne    703f <schedule+0x1fc>
    703d:	0f 06                	clts   
}
    703f:	90                   	nop
    7040:	83 c4 20             	add    $0x20,%esp
    7043:	c3                   	ret    

00007044 <sys_pause>:
// pause()系统调用.转换当前任务的状态为可中断的等待状态,并重新调试.
// 该系统调用将导致进程进入睡眠状态,直到收到一个信号.该信号用于终止进程或者使进程调用一个信号捕获函数.只有当捕获了一个信号,并且信号捕获处理函数返回,
// pause()才会返回.此时pause()返回值应该是-1,并且errno被置为EINTR.这里还没有完全实现(直到0.95版).
int sys_pause(void)
{
	current->state = TASK_INTERRUPTIBLE;
    7044:	a1 a0 f1 02 00       	mov    0x2f1a0,%eax
    7049:	c7 00 01 00 00 00    	movl   $0x1,(%eax)
	schedule();
    704f:	e8 ef fd ff ff       	call   6e43 <schedule>
	return 0;
    7054:	b8 00 00 00 00       	mov    $0x0,%eax
}
    7059:	c3                   	ret    

0000705a <__sleep_on>:
// 是任务结构)会改变,因此为了能修改调用该函数程序中原来就是指针变量的值,就需要传递指针'*p'的指针,即'**p'.
// 参数state是任务睡眠使用的状态:TASK_INTERRUPTIBLE或TASK_INTERRUPTIBLE.处于不可中断睡眠状态(TASK_UNINTERRUPTIBLE)的任务需要内核程序利用
// wake_up()函数明确唤醒之.处于可中断睡眠状态(TASK_INTERRUPTIBLE)可以通过信号,任务起时等手段唤醒(置为就绪状态TASK_RUNNING).
// *** 注意,由于本内核代码不是很成熟,因此下列与睡眠相关的代码存在一些问题,不宜深究.
static inline void __sleep_on(struct task_struct **p, int state)
{
    705a:	83 ec 1c             	sub    $0x1c,%esp
	struct task_struct *tmp;

	// 若指针无效,则退出.(指针所指的对象可以是NULL,但指针本身不会为0).
	// 如果当前任务是任务0,则死机(impossible!).
	if (!p)
    705d:	83 7c 24 20 00       	cmpl   $0x0,0x20(%esp)
    7062:	0f 84 ae 00 00 00    	je     7116 <__sleep_on+0xbc>
		return;
	if (current == &(init_task.task))
    7068:	a1 a0 f1 02 00       	mov    0x2f1a0,%eax
    706d:	3d a0 e1 02 00       	cmp    $0x2e1a0,%eax
    7072:	75 10                	jne    7084 <__sleep_on+0x2a>
		panic("task[0] trying to sleep");
    7074:	83 ec 0c             	sub    $0xc,%esp
    7077:	68 73 2b 02 00       	push   $0x22b73
    707c:	e8 86 1b 00 00       	call   8c07 <panic>
    7081:	83 c4 10             	add    $0x10,%esp
	// 让tmp指向已经在等待队列上的任务(如果有的话),例如inode->i_wait.并且将睡眠队列头的等待指针指向当前任务.这样就把当前任务插入到了*p的等待队列中.然后
	// 将当前任务置为指定的等待状态,并执行重新调度.
	tmp = *p;
    7084:	8b 44 24 20          	mov    0x20(%esp),%eax
    7088:	8b 00                	mov    (%eax),%eax
    708a:	89 44 24 0c          	mov    %eax,0xc(%esp)
	*p = current;
    708e:	8b 15 a0 f1 02 00    	mov    0x2f1a0,%edx
    7094:	8b 44 24 20          	mov    0x20(%esp),%eax
    7098:	89 10                	mov    %edx,(%eax)
	current->state = state;
    709a:	a1 a0 f1 02 00       	mov    0x2f1a0,%eax
    709f:	8b 54 24 24          	mov    0x24(%esp),%edx
    70a3:	89 10                	mov    %edx,(%eax)
	// 将当前进程睡眠后立刻调用调度函数进行调度新的进程执行
repeat:	schedule();
    70a5:	e8 99 fd ff ff       	call   6e43 <schedule>
	// 只有当这个等待任务被唤醒时,程序才会返回到这里,表示进程已被明确地唤醒并执行.如果等待队列中还有等待任务,并且队列头指针*p所指向的任务不是当前任务时,说明
	// 在本任务插入等待队列后还有任务进入等待队列.于是我们应该也要唤醒这个任务,而我们自己应按顺序让这些后面进入队列的任务唤醒,因此这里将等待队列头所指任务先
	// 置为就绪状态,而自己则置为不可中断等待状态,即自己要等待这些后续队列的任务被唤醒而执行时来唤醒本任务.然后重新执行调度程序.
	if (*p && *p != current) {
    70aa:	8b 44 24 20          	mov    0x20(%esp),%eax
    70ae:	8b 00                	mov    (%eax),%eax
    70b0:	85 c0                	test   %eax,%eax
    70b2:	74 28                	je     70dc <__sleep_on+0x82>
    70b4:	8b 44 24 20          	mov    0x20(%esp),%eax
    70b8:	8b 10                	mov    (%eax),%edx
    70ba:	a1 a0 f1 02 00       	mov    0x2f1a0,%eax
    70bf:	39 c2                	cmp    %eax,%edx
    70c1:	74 19                	je     70dc <__sleep_on+0x82>
		(**p).state = 0;
    70c3:	8b 44 24 20          	mov    0x20(%esp),%eax
    70c7:	8b 00                	mov    (%eax),%eax
    70c9:	c7 00 00 00 00 00    	movl   $0x0,(%eax)
		current->state = TASK_UNINTERRUPTIBLE;
    70cf:	a1 a0 f1 02 00       	mov    0x2f1a0,%eax
    70d4:	c7 00 02 00 00 00    	movl   $0x2,(%eax)
		goto repeat;
    70da:	eb c9                	jmp    70a5 <__sleep_on+0x4b>
	}
	// 执行到这里,说明本任务真正被唤醒执行.此时等待队列头指针应该指向本任务,若它为空,则表明调度有问题,于是显示警告信息.最后我们让头指针指向在我们前面进入队列的
	// 任务(*p = tmp).若确实存在这样一个任务,即队列中还有任务(tmp不为空),就唤醒之.最先进入队列的任务在唤醒后运行时最终会把等待队列头指针置成NULL.
	if (!*p)
    70dc:	8b 44 24 20          	mov    0x20(%esp),%eax
    70e0:	8b 00                	mov    (%eax),%eax
    70e2:	85 c0                	test   %eax,%eax
    70e4:	75 10                	jne    70f6 <__sleep_on+0x9c>
		printk("Warning: *P = NULL\n\r");
    70e6:	83 ec 0c             	sub    $0xc,%esp
    70e9:	68 8b 2b 02 00       	push   $0x22b8b
    70ee:	e8 53 1b 00 00       	call   8c46 <printk>
    70f3:	83 c4 10             	add    $0x10,%esp
	if (*p = tmp)
    70f6:	8b 44 24 20          	mov    0x20(%esp),%eax
    70fa:	8b 54 24 0c          	mov    0xc(%esp),%edx
    70fe:	89 10                	mov    %edx,(%eax)
    7100:	8b 44 24 20          	mov    0x20(%esp),%eax
    7104:	8b 00                	mov    (%eax),%eax
    7106:	85 c0                	test   %eax,%eax
    7108:	74 0d                	je     7117 <__sleep_on+0xbd>
		tmp->state = 0;
    710a:	8b 44 24 0c          	mov    0xc(%esp),%eax
    710e:	c7 00 00 00 00 00    	movl   $0x0,(%eax)
    7114:	eb 01                	jmp    7117 <__sleep_on+0xbd>
		return;
    7116:	90                   	nop
}
    7117:	83 c4 1c             	add    $0x1c,%esp
    711a:	c3                   	ret    

0000711b <interruptible_sleep_on>:

// 将当前任务置为可中断的等待状态(TASK_INIERRUPTIBLE),并放入头指针*p指定的等待队列中.
void interruptible_sleep_on(struct task_struct **p)
{
    711b:	83 ec 0c             	sub    $0xc,%esp
	__sleep_on(p, TASK_INTERRUPTIBLE);
    711e:	83 ec 08             	sub    $0x8,%esp
    7121:	6a 01                	push   $0x1
    7123:	ff 74 24 1c          	pushl  0x1c(%esp)
    7127:	e8 2e ff ff ff       	call   705a <__sleep_on>
    712c:	83 c4 10             	add    $0x10,%esp
}
    712f:	90                   	nop
    7130:	83 c4 0c             	add    $0xc,%esp
    7133:	c3                   	ret    

00007134 <sleep_on>:

// 把当前任务置为不可中断的等待状态(TASK_UNINTERRUPTIBLE),并让睡眠队列头指针指向当前任务.只有明确地唤醒时才会返回.该函数提供了进程与中断处理程序之间的
// 同步机制.
void sleep_on(struct task_struct **p)
{
    7134:	83 ec 0c             	sub    $0xc,%esp
	__sleep_on(p, TASK_UNINTERRUPTIBLE);
    7137:	83 ec 08             	sub    $0x8,%esp
    713a:	6a 02                	push   $0x2
    713c:	ff 74 24 1c          	pushl  0x1c(%esp)
    7140:	e8 15 ff ff ff       	call   705a <__sleep_on>
    7145:	83 c4 10             	add    $0x10,%esp
}
    7148:	90                   	nop
    7149:	83 c4 0c             	add    $0xc,%esp
    714c:	c3                   	ret    

0000714d <wake_up>:

// 唤醒*p指向的任务.*p是任务等待队列头指针.由于新等待任务是插入在等待队列头指针处的,因此唤醒的是最后进入等待队列的任务.若该任务已经处于停止或
// 僵死状态,则显示警告信息.
void wake_up(struct task_struct **p)
{
    714d:	83 ec 0c             	sub    $0xc,%esp
	if (p && *p) {
    7150:	83 7c 24 10 00       	cmpl   $0x0,0x10(%esp)
    7155:	74 50                	je     71a7 <wake_up+0x5a>
    7157:	8b 44 24 10          	mov    0x10(%esp),%eax
    715b:	8b 00                	mov    (%eax),%eax
    715d:	85 c0                	test   %eax,%eax
    715f:	74 46                	je     71a7 <wake_up+0x5a>
		if ((**p).state == TASK_STOPPED)						// 处于停止状态.
    7161:	8b 44 24 10          	mov    0x10(%esp),%eax
    7165:	8b 00                	mov    (%eax),%eax
    7167:	8b 00                	mov    (%eax),%eax
    7169:	83 f8 04             	cmp    $0x4,%eax
    716c:	75 10                	jne    717e <wake_up+0x31>
			printk("wake_up: TASK_STOPPED");
    716e:	83 ec 0c             	sub    $0xc,%esp
    7171:	68 a0 2b 02 00       	push   $0x22ba0
    7176:	e8 cb 1a 00 00       	call   8c46 <printk>
    717b:	83 c4 10             	add    $0x10,%esp
		if ((**p).state == TASK_ZOMBIE)							// 处于僵死状态.
    717e:	8b 44 24 10          	mov    0x10(%esp),%eax
    7182:	8b 00                	mov    (%eax),%eax
    7184:	8b 00                	mov    (%eax),%eax
    7186:	83 f8 03             	cmp    $0x3,%eax
    7189:	75 10                	jne    719b <wake_up+0x4e>
			printk("wake_up: TASK_ZOMBIE");
    718b:	83 ec 0c             	sub    $0xc,%esp
    718e:	68 b6 2b 02 00       	push   $0x22bb6
    7193:	e8 ae 1a 00 00       	call   8c46 <printk>
    7198:	83 c4 10             	add    $0x10,%esp
		(**p).state=0;											// 置为就绪状态TASK_RUNNING.
    719b:	8b 44 24 10          	mov    0x10(%esp),%eax
    719f:	8b 00                	mov    (%eax),%eax
    71a1:	c7 00 00 00 00 00    	movl   $0x0,(%eax)
	}
}
    71a7:	90                   	nop
    71a8:	83 c4 0c             	add    $0xc,%esp
    71ab:	c3                   	ret    

000071ac <ticks_to_floppy_on>:

// 指定软驱启动到正常运转状态所需等待时间.
// 参数nr -- 软驱号(0--3),返回值为滴答.
// 局部变量selected是选中软驱标志(blk_drv/floppy.c).mask是所选软驱对应的数字输出寄存器中启动马达位.mask高4位是各软驱启动马达标志.
int ticks_to_floppy_on(unsigned int nr)
{
    71ac:	83 ec 1c             	sub    $0x1c,%esp
	extern unsigned char selected;
	unsigned char mask = 0x10 << nr;
    71af:	8b 44 24 20          	mov    0x20(%esp),%eax
    71b3:	ba 10 00 00 00       	mov    $0x10,%edx
    71b8:	89 c1                	mov    %eax,%ecx
    71ba:	d3 e2                	shl    %cl,%edx
    71bc:	89 d0                	mov    %edx,%eax
    71be:	88 44 24 0f          	mov    %al,0xf(%esp)

	// 系统最多有4个软驱.首先预先设置好指定软驱nr停转之前需要经过的时间(100秒).然后取当前DOR寄存器值到临时变量mask中,并把指定软驱的马达
	// 启动标志置位.
	if (nr > 3)
    71c2:	83 7c 24 20 03       	cmpl   $0x3,0x20(%esp)
    71c7:	76 10                	jbe    71d9 <ticks_to_floppy_on+0x2d>
		panic("floppy_on: nr>3");
    71c9:	83 ec 0c             	sub    $0xc,%esp
    71cc:	68 cb 2b 02 00       	push   $0x22bcb
    71d1:	e8 31 1a 00 00       	call   8c07 <panic>
    71d6:	83 c4 10             	add    $0x10,%esp
	moff_timer[nr] = 10000;							/* 100 s = very big :-) */	// 停转维持时间.
    71d9:	8b 44 24 20          	mov    0x20(%esp),%eax
    71dd:	c7 04 85 30 fb 02 00 	movl   $0x2710,0x2fb30(,%eax,4)
    71e4:	10 27 00 00 
	cli();											/* use floppy_off to turn it off */	// 关中断
    71e8:	fa                   	cli    
	mask |= current_DOR;
    71e9:	0f b6 05 c8 f2 02 00 	movzbl 0x2f2c8,%eax
    71f0:	08 44 24 0f          	or     %al,0xf(%esp)
	// 如果当前没有选择软驱,则首先复位其他软驱的选择位,然后指定软驱选择位.
	if (!selected) {
    71f4:	0f b6 05 58 21 03 00 	movzbl 0x32158,%eax
    71fb:	84 c0                	test   %al,%al
    71fd:	75 0d                	jne    720c <ticks_to_floppy_on+0x60>
		mask &= 0xFC;
    71ff:	80 64 24 0f fc       	andb   $0xfc,0xf(%esp)
		mask |= nr;
    7204:	8b 44 24 20          	mov    0x20(%esp),%eax
    7208:	08 44 24 0f          	or     %al,0xf(%esp)
	}
	// 如果数字输出寄存器的当前值与要求的值不同,则向FDC数字输出端口输出新值(mask),并且如果要求启动的马达还没有启动,则置相应软驱的马达启动
	// 定时器值(HZ/2 = 0.5秒或50个滴答).若已经启动,则再设置启动定时为2个滴答,能满足下面do_floppy_timer()中先递减后判断的要求.执行本次
	// 定时代码的要求即可.此后更新当前数字输出寄存器current_DOR.
	if (mask != current_DOR) {
    720c:	0f b6 05 c8 f2 02 00 	movzbl 0x2f2c8,%eax
    7213:	38 44 24 0f          	cmp    %al,0xf(%esp)
    7217:	74 5c                	je     7275 <ticks_to_floppy_on+0xc9>
		outb(mask, FD_DOR);
    7219:	0f b6 44 24 0f       	movzbl 0xf(%esp),%eax
    721e:	ba f2 03 00 00       	mov    $0x3f2,%edx
    7223:	ee                   	out    %al,(%dx)
		if ((mask ^ current_DOR) & 0xf0)
    7224:	0f b6 05 c8 f2 02 00 	movzbl 0x2f2c8,%eax
    722b:	32 44 24 0f          	xor    0xf(%esp),%al
    722f:	0f b6 c0             	movzbl %al,%eax
    7232:	25 f0 00 00 00       	and    $0xf0,%eax
    7237:	85 c0                	test   %eax,%eax
    7239:	74 11                	je     724c <ticks_to_floppy_on+0xa0>
			mon_timer[nr] = HZ / 2;
    723b:	8b 44 24 20          	mov    0x20(%esp),%eax
    723f:	c7 04 85 20 fb 02 00 	movl   $0x32,0x2fb20(,%eax,4)
    7246:	32 00 00 00 
    724a:	eb 1f                	jmp    726b <ticks_to_floppy_on+0xbf>
		else if (mon_timer[nr] < 2)
    724c:	8b 44 24 20          	mov    0x20(%esp),%eax
    7250:	8b 04 85 20 fb 02 00 	mov    0x2fb20(,%eax,4),%eax
    7257:	83 f8 01             	cmp    $0x1,%eax
    725a:	7f 0f                	jg     726b <ticks_to_floppy_on+0xbf>
			mon_timer[nr] = 2;
    725c:	8b 44 24 20          	mov    0x20(%esp),%eax
    7260:	c7 04 85 20 fb 02 00 	movl   $0x2,0x2fb20(,%eax,4)
    7267:	02 00 00 00 
		current_DOR = mask;
    726b:	0f b6 44 24 0f       	movzbl 0xf(%esp),%eax
    7270:	a2 c8 f2 02 00       	mov    %al,0x2f2c8
	}
	sti();											// 开中断.
    7275:	fb                   	sti    
	return mon_timer[nr];							// 最后返回启动马达所需的时间值.
    7276:	8b 44 24 20          	mov    0x20(%esp),%eax
    727a:	8b 04 85 20 fb 02 00 	mov    0x2fb20(,%eax,4),%eax
}
    7281:	83 c4 1c             	add    $0x1c,%esp
    7284:	c3                   	ret    

00007285 <floppy_on>:

// 等待指定软驱马达启动所需的一段时间,然后返回.
// 设置指定软驱的马达启动到正常转速所需的延时,然后睡眠等待.在定时中断过程中会一直递减判断这里设定的延时值.当延时到期,就会 这里的等待进程.
void floppy_on(unsigned int nr)
{
    7285:	83 ec 0c             	sub    $0xc,%esp
	// 关中断.如果马达启动定时还没到,就一直把当前进程置为不可中断睡眠状态并放入等待马达运行的队列中.然后开中断.
	cli();
    7288:	fa                   	cli    
	while (ticks_to_floppy_on(nr))
    7289:	eb 18                	jmp    72a3 <floppy_on+0x1e>
		sleep_on(nr + wait_motor);
    728b:	8b 44 24 10          	mov    0x10(%esp),%eax
    728f:	c1 e0 02             	shl    $0x2,%eax
    7292:	05 10 fb 02 00       	add    $0x2fb10,%eax
    7297:	83 ec 0c             	sub    $0xc,%esp
    729a:	50                   	push   %eax
    729b:	e8 94 fe ff ff       	call   7134 <sleep_on>
    72a0:	83 c4 10             	add    $0x10,%esp
	while (ticks_to_floppy_on(nr))
    72a3:	83 ec 0c             	sub    $0xc,%esp
    72a6:	ff 74 24 1c          	pushl  0x1c(%esp)
    72aa:	e8 fd fe ff ff       	call   71ac <ticks_to_floppy_on>
    72af:	83 c4 10             	add    $0x10,%esp
    72b2:	85 c0                	test   %eax,%eax
    72b4:	75 d5                	jne    728b <floppy_on+0x6>
	sti();
    72b6:	fb                   	sti    
}
    72b7:	90                   	nop
    72b8:	83 c4 0c             	add    $0xc,%esp
    72bb:	c3                   	ret    

000072bc <floppy_off>:

// 置关闭相应软驱马达停转定时器(3秒).
// 若不使用该函数明确关闭指定的软驱马达,则在马达开启100秒之后也会被关闭.
void floppy_off(unsigned int nr)
{
	moff_timer[nr] = 3 * HZ;
    72bc:	8b 44 24 04          	mov    0x4(%esp),%eax
    72c0:	c7 04 85 30 fb 02 00 	movl   $0x12c,0x2fb30(,%eax,4)
    72c7:	2c 01 00 00 
}
    72cb:	90                   	nop
    72cc:	c3                   	ret    

000072cd <do_floppy_timer>:

// 软盘定时处理子程序.更新马达启动定时值和马达关闭停转时值.该子程序会在时钟定时中断过程中被调用,因此系统每经过一个滴答(10ms)就会被
// 调用一次,随时更新马达开启或停转定时器的值.如果某一个马达停转定时到,则将数字输出寄存器马达启动位复位.
void do_floppy_timer(void)
{
    72cd:	83 ec 1c             	sub    $0x1c,%esp
	int i;
	unsigned char mask = 0x10;
    72d0:	c6 44 24 0b 10       	movb   $0x10,0xb(%esp)

	for (i = 0 ; i < 4 ; i++, mask <<= 1) {
    72d5:	c7 44 24 0c 00 00 00 	movl   $0x0,0xc(%esp)
    72dc:	00 
    72dd:	e9 be 00 00 00       	jmp    73a0 <do_floppy_timer+0xd3>
		if (!(mask & current_DOR))						// 如果不是DOR指定的马达则跳过.
    72e2:	0f b6 05 c8 f2 02 00 	movzbl 0x2f2c8,%eax
    72e9:	22 44 24 0b          	and    0xb(%esp),%al
    72ed:	84 c0                	test   %al,%al
    72ef:	0f 84 a1 00 00 00    	je     7396 <do_floppy_timer+0xc9>
			continue;
		if (mon_timer[i]) {								// 如果马达启动定时到则唤醒进程.
    72f5:	8b 44 24 0c          	mov    0xc(%esp),%eax
    72f9:	8b 04 85 20 fb 02 00 	mov    0x2fb20(,%eax,4),%eax
    7300:	85 c0                	test   %eax,%eax
    7302:	74 42                	je     7346 <do_floppy_timer+0x79>
			if (!--mon_timer[i])
    7304:	8b 44 24 0c          	mov    0xc(%esp),%eax
    7308:	8b 04 85 20 fb 02 00 	mov    0x2fb20(,%eax,4),%eax
    730f:	8d 50 ff             	lea    -0x1(%eax),%edx
    7312:	8b 44 24 0c          	mov    0xc(%esp),%eax
    7316:	89 14 85 20 fb 02 00 	mov    %edx,0x2fb20(,%eax,4)
    731d:	8b 44 24 0c          	mov    0xc(%esp),%eax
    7321:	8b 04 85 20 fb 02 00 	mov    0x2fb20(,%eax,4),%eax
    7328:	85 c0                	test   %eax,%eax
    732a:	75 6b                	jne    7397 <do_floppy_timer+0xca>
				wake_up(i + wait_motor);
    732c:	8b 44 24 0c          	mov    0xc(%esp),%eax
    7330:	c1 e0 02             	shl    $0x2,%eax
    7333:	05 10 fb 02 00       	add    $0x2fb10,%eax
    7338:	83 ec 0c             	sub    $0xc,%esp
    733b:	50                   	push   %eax
    733c:	e8 0c fe ff ff       	call   714d <wake_up>
    7341:	83 c4 10             	add    $0x10,%esp
    7344:	eb 51                	jmp    7397 <do_floppy_timer+0xca>
		} else if (!moff_timer[i]) {					// 如果马达停转定时到则复位相应马达启动位,并且更新数字输出寄存器.
    7346:	8b 44 24 0c          	mov    0xc(%esp),%eax
    734a:	8b 04 85 30 fb 02 00 	mov    0x2fb30(,%eax,4),%eax
    7351:	85 c0                	test   %eax,%eax
    7353:	75 26                	jne    737b <do_floppy_timer+0xae>
			current_DOR &= ~mask;
    7355:	0f b6 44 24 0b       	movzbl 0xb(%esp),%eax
    735a:	f7 d0                	not    %eax
    735c:	89 c2                	mov    %eax,%edx
    735e:	0f b6 05 c8 f2 02 00 	movzbl 0x2f2c8,%eax
    7365:	21 d0                	and    %edx,%eax
    7367:	a2 c8 f2 02 00       	mov    %al,0x2f2c8
			outb(current_DOR, FD_DOR);
    736c:	0f b6 05 c8 f2 02 00 	movzbl 0x2f2c8,%eax
    7373:	ba f2 03 00 00       	mov    $0x3f2,%edx
    7378:	ee                   	out    %al,(%dx)
    7379:	eb 1c                	jmp    7397 <do_floppy_timer+0xca>
		} else
			moff_timer[i]--;							// 否则马达停转计时递减.
    737b:	8b 44 24 0c          	mov    0xc(%esp),%eax
    737f:	8b 04 85 30 fb 02 00 	mov    0x2fb30(,%eax,4),%eax
    7386:	8d 50 ff             	lea    -0x1(%eax),%edx
    7389:	8b 44 24 0c          	mov    0xc(%esp),%eax
    738d:	89 14 85 30 fb 02 00 	mov    %edx,0x2fb30(,%eax,4)
    7394:	eb 01                	jmp    7397 <do_floppy_timer+0xca>
			continue;
    7396:	90                   	nop
	for (i = 0 ; i < 4 ; i++, mask <<= 1) {
    7397:	83 44 24 0c 01       	addl   $0x1,0xc(%esp)
    739c:	d0 64 24 0b          	shlb   0xb(%esp)
    73a0:	83 7c 24 0c 03       	cmpl   $0x3,0xc(%esp)
    73a5:	0f 8e 37 ff ff ff    	jle    72e2 <do_floppy_timer+0x15>
	}
}
    73ab:	90                   	nop
    73ac:	83 c4 1c             	add    $0x1c,%esp
    73af:	c3                   	ret    

000073b0 <add_timer>:

// 添加定时器.输入参数为指定的定时值(滴答数)和相应的处理程序指针.
// 软盘驱动程序(floppy.c)利用该函数执行启动或关闭马达的延时操作.
// 参数jiffies- 以10毫秒计的滴答数; *fn() - 定时时间到时执行的函数.
void add_timer(long jiffies, void (*fn)(void))
{
    73b0:	83 ec 1c             	sub    $0x1c,%esp
	struct timer_list * p;

	// 如果定时处理程序指针为空,则退出.否则关中断.
	if (!fn)
    73b3:	83 7c 24 24 00       	cmpl   $0x0,0x24(%esp)
    73b8:	0f 84 54 01 00 00    	je     7512 <add_timer+0x162>
		return;
	cli();
    73be:	fa                   	cli    
	// 如果定时值<=0,则立刻调用其处理程序.并且该定时器不加入链表中.
	if (jiffies <= 0)
    73bf:	83 7c 24 20 00       	cmpl   $0x0,0x20(%esp)
    73c4:	7f 0b                	jg     73d1 <add_timer+0x21>
		(fn)();
    73c6:	8b 44 24 24          	mov    0x24(%esp),%eax
    73ca:	ff d0                	call   *%eax
    73cc:	e9 3e 01 00 00       	jmp    750f <add_timer+0x15f>
	else {
		// 否则从定时器数组中,找一个空闲项.
		for (p = timer_list ; p < timer_list + TIME_REQUESTS ; p++)
    73d1:	c7 44 24 0c 40 fb 02 	movl   $0x2fb40,0xc(%esp)
    73d8:	00 
    73d9:	eb 10                	jmp    73eb <add_timer+0x3b>
			if (!p->fn)
    73db:	8b 44 24 0c          	mov    0xc(%esp),%eax
    73df:	8b 40 04             	mov    0x4(%eax),%eax
    73e2:	85 c0                	test   %eax,%eax
    73e4:	74 12                	je     73f8 <add_timer+0x48>
		for (p = timer_list ; p < timer_list + TIME_REQUESTS ; p++)
    73e6:	83 44 24 0c 0c       	addl   $0xc,0xc(%esp)
    73eb:	b8 40 fe 02 00       	mov    $0x2fe40,%eax
    73f0:	39 44 24 0c          	cmp    %eax,0xc(%esp)
    73f4:	72 e5                	jb     73db <add_timer+0x2b>
    73f6:	eb 01                	jmp    73f9 <add_timer+0x49>
				break;
    73f8:	90                   	nop
		// 如果已经用完了定时器数组,则系统崩溃.否则向定时器数据结构填入就信息,并链入链表头.
		if (p >= timer_list + TIME_REQUESTS)
    73f9:	b8 40 fe 02 00       	mov    $0x2fe40,%eax
    73fe:	39 44 24 0c          	cmp    %eax,0xc(%esp)
    7402:	72 10                	jb     7414 <add_timer+0x64>
			panic("No more time requests free");
    7404:	83 ec 0c             	sub    $0xc,%esp
    7407:	68 db 2b 02 00       	push   $0x22bdb
    740c:	e8 f6 17 00 00       	call   8c07 <panic>
    7411:	83 c4 10             	add    $0x10,%esp
		p->fn = fn;
    7414:	8b 44 24 0c          	mov    0xc(%esp),%eax
    7418:	8b 54 24 24          	mov    0x24(%esp),%edx
    741c:	89 50 04             	mov    %edx,0x4(%eax)
		p->jiffies = jiffies;
    741f:	8b 44 24 0c          	mov    0xc(%esp),%eax
    7423:	8b 54 24 20          	mov    0x20(%esp),%edx
    7427:	89 10                	mov    %edx,(%eax)
		p->next = next_timer;
    7429:	8b 15 40 fe 02 00    	mov    0x2fe40,%edx
    742f:	8b 44 24 0c          	mov    0xc(%esp),%eax
    7433:	89 50 08             	mov    %edx,0x8(%eax)
		next_timer = p;
    7436:	8b 44 24 0c          	mov    0xc(%esp),%eax
    743a:	a3 40 fe 02 00       	mov    %eax,0x2fe40
		// 链表项按定时值从小到大排序.在排序时减去排在前面需要的滴答数,这样在处理定时器时只要查看链表头的第一项的定时是否到期即可.
		// [[?? 这段程序好像没有考虑周全.如果新插入的定时器值小于原来关一个定时器值时则根本没会进入循环中,但此时还是应该将紧随后面
		// 的一个定时器值减去新的第1个的定时值.即如果第1个定时值<=第2个,则第2个定时值扣除第1个的值即可,否则进入下面循环中进行处理.]]
		while (p->next && p->next->jiffies < p->jiffies) {
    743f:	eb 72                	jmp    74b3 <add_timer+0x103>
			p->jiffies -= p->next->jiffies;
    7441:	8b 44 24 0c          	mov    0xc(%esp),%eax
    7445:	8b 10                	mov    (%eax),%edx
    7447:	8b 44 24 0c          	mov    0xc(%esp),%eax
    744b:	8b 40 08             	mov    0x8(%eax),%eax
    744e:	8b 00                	mov    (%eax),%eax
    7450:	29 c2                	sub    %eax,%edx
    7452:	8b 44 24 0c          	mov    0xc(%esp),%eax
    7456:	89 10                	mov    %edx,(%eax)
			fn = p->fn;
    7458:	8b 44 24 0c          	mov    0xc(%esp),%eax
    745c:	8b 40 04             	mov    0x4(%eax),%eax
    745f:	89 44 24 24          	mov    %eax,0x24(%esp)
			p->fn = p->next->fn;
    7463:	8b 44 24 0c          	mov    0xc(%esp),%eax
    7467:	8b 40 08             	mov    0x8(%eax),%eax
    746a:	8b 50 04             	mov    0x4(%eax),%edx
    746d:	8b 44 24 0c          	mov    0xc(%esp),%eax
    7471:	89 50 04             	mov    %edx,0x4(%eax)
			p->next->fn = fn;
    7474:	8b 44 24 0c          	mov    0xc(%esp),%eax
    7478:	8b 40 08             	mov    0x8(%eax),%eax
    747b:	8b 54 24 24          	mov    0x24(%esp),%edx
    747f:	89 50 04             	mov    %edx,0x4(%eax)
			jiffies = p->jiffies;
    7482:	8b 44 24 0c          	mov    0xc(%esp),%eax
    7486:	8b 00                	mov    (%eax),%eax
    7488:	89 44 24 20          	mov    %eax,0x20(%esp)
			p->jiffies = p->next->jiffies;
    748c:	8b 44 24 0c          	mov    0xc(%esp),%eax
    7490:	8b 40 08             	mov    0x8(%eax),%eax
    7493:	8b 10                	mov    (%eax),%edx
    7495:	8b 44 24 0c          	mov    0xc(%esp),%eax
    7499:	89 10                	mov    %edx,(%eax)
			p->next->jiffies = jiffies;
    749b:	8b 44 24 0c          	mov    0xc(%esp),%eax
    749f:	8b 40 08             	mov    0x8(%eax),%eax
    74a2:	8b 54 24 20          	mov    0x20(%esp),%edx
    74a6:	89 10                	mov    %edx,(%eax)
			p = p->next;
    74a8:	8b 44 24 0c          	mov    0xc(%esp),%eax
    74ac:	8b 40 08             	mov    0x8(%eax),%eax
    74af:	89 44 24 0c          	mov    %eax,0xc(%esp)
		while (p->next && p->next->jiffies < p->jiffies) {
    74b3:	8b 44 24 0c          	mov    0xc(%esp),%eax
    74b7:	8b 40 08             	mov    0x8(%eax),%eax
    74ba:	85 c0                	test   %eax,%eax
    74bc:	74 17                	je     74d5 <add_timer+0x125>
    74be:	8b 44 24 0c          	mov    0xc(%esp),%eax
    74c2:	8b 40 08             	mov    0x8(%eax),%eax
    74c5:	8b 10                	mov    (%eax),%edx
    74c7:	8b 44 24 0c          	mov    0xc(%esp),%eax
    74cb:	8b 00                	mov    (%eax),%eax
    74cd:	39 c2                	cmp    %eax,%edx
    74cf:	0f 8c 6c ff ff ff    	jl     7441 <add_timer+0x91>
		}
		// 修正上述问题.
		if(p->next && p->next->jiffies >= p->jiffies) {
    74d5:	8b 44 24 0c          	mov    0xc(%esp),%eax
    74d9:	8b 40 08             	mov    0x8(%eax),%eax
    74dc:	85 c0                	test   %eax,%eax
    74de:	74 2f                	je     750f <add_timer+0x15f>
    74e0:	8b 44 24 0c          	mov    0xc(%esp),%eax
    74e4:	8b 40 08             	mov    0x8(%eax),%eax
    74e7:	8b 10                	mov    (%eax),%edx
    74e9:	8b 44 24 0c          	mov    0xc(%esp),%eax
    74ed:	8b 00                	mov    (%eax),%eax
    74ef:	39 c2                	cmp    %eax,%edx
    74f1:	7c 1c                	jl     750f <add_timer+0x15f>
			p->next->jiffies -= p->jiffies;
    74f3:	8b 44 24 0c          	mov    0xc(%esp),%eax
    74f7:	8b 40 08             	mov    0x8(%eax),%eax
    74fa:	8b 08                	mov    (%eax),%ecx
    74fc:	8b 44 24 0c          	mov    0xc(%esp),%eax
    7500:	8b 10                	mov    (%eax),%edx
    7502:	8b 44 24 0c          	mov    0xc(%esp),%eax
    7506:	8b 40 08             	mov    0x8(%eax),%eax
    7509:	29 d1                	sub    %edx,%ecx
    750b:	89 ca                	mov    %ecx,%edx
    750d:	89 10                	mov    %edx,(%eax)
		}
	}
	sti();
    750f:	fb                   	sti    
    7510:	eb 01                	jmp    7513 <add_timer+0x163>
		return;
    7512:	90                   	nop
}
    7513:	83 c4 1c             	add    $0x1c,%esp
    7516:	c3                   	ret    

00007517 <do_timer>:

// 时钟中断C函数处理程序,在sys_call.s中的timer_interrupt被调用.
// 参数cpl是当前特权级0或3,是时钟中断发生时正被执行的代码选择符中的特权级.cpl=0时表示中断发生时正在执行内核代码,cpl=3时表示中断发生时正在执行用户
// 代码.对于一个进程由于执行时间片用完时,则进行任务切换.并执行一个计时更新工作.
void do_timer(long cpl)
{
    7517:	83 ec 1c             	sub    $0x1c,%esp
	static int blanked = 0;

	// 首先判断是否经过了一定时间而让屏幕黑屏(blankcount).如果blankcount计数不为零,或者黑屏延时间隔时间blankinterval为0的话,那么若已经处理黑屏状态
	// (黑屏标志blanked=1),则让屏幕恢复显示.若blnkcount计数不为零,则递减之,并且复位黑屏标志.
	if (blankcount || !blankinterval) {
    751a:	a1 28 fe 03 00       	mov    0x3fe28,%eax
    751f:	85 c0                	test   %eax,%eax
    7521:	75 09                	jne    752c <do_timer+0x15>
    7523:	a1 24 fe 03 00       	mov    0x3fe24,%eax
    7528:	85 c0                	test   %eax,%eax
    752a:	75 30                	jne    755c <do_timer+0x45>
		if (blanked)
    752c:	a1 44 fe 02 00       	mov    0x2fe44,%eax
    7531:	85 c0                	test   %eax,%eax
    7533:	74 05                	je     753a <do_timer+0x23>
			unblank_screen();
    7535:	e8 82 5f 01 00       	call   1d4bc <unblank_screen>
		if (blankcount)
    753a:	a1 28 fe 03 00       	mov    0x3fe28,%eax
    753f:	85 c0                	test   %eax,%eax
    7541:	74 0d                	je     7550 <do_timer+0x39>
			blankcount--;
    7543:	a1 28 fe 03 00       	mov    0x3fe28,%eax
    7548:	83 e8 01             	sub    $0x1,%eax
    754b:	a3 28 fe 03 00       	mov    %eax,0x3fe28
		blanked = 0;
    7550:	c7 05 44 fe 02 00 00 	movl   $0x0,0x2fe44
    7557:	00 00 00 
    755a:	eb 18                	jmp    7574 <do_timer+0x5d>
	// 否则的话若黑屏标志末置位,则让屏幕黑屏,并且设置黑屏标志.
	} else if (!blanked) {
    755c:	a1 44 fe 02 00       	mov    0x2fe44,%eax
    7561:	85 c0                	test   %eax,%eax
    7563:	75 0f                	jne    7574 <do_timer+0x5d>
		blank_screen();
    7565:	e8 3d 5f 01 00       	call   1d4a7 <blank_screen>
		blanked = 1;
    756a:	c7 05 44 fe 02 00 01 	movl   $0x1,0x2fe44
    7571:	00 00 00 
	}
	// 接着处理硬盘操作超时问题.如果硬盘超时计数递减之后为0,则进行硬盘访问超时处理.
	if (hd_timeout)
    7574:	a1 84 21 03 00       	mov    0x32184,%eax
    7579:	85 c0                	test   %eax,%eax
    757b:	74 1b                	je     7598 <do_timer+0x81>
		if (!--hd_timeout)
    757d:	a1 84 21 03 00       	mov    0x32184,%eax
    7582:	83 e8 01             	sub    $0x1,%eax
    7585:	a3 84 21 03 00       	mov    %eax,0x32184
    758a:	a1 84 21 03 00       	mov    0x32184,%eax
    758f:	85 c0                	test   %eax,%eax
    7591:	75 05                	jne    7598 <do_timer+0x81>
			hd_times_out();							// 硬盘访问超时处理(blk_drv/hd.c).
    7593:	e8 51 0c 01 00       	call   181e9 <hd_times_out>

	// 如果发声计数次数到,则关闭发声.(向0x61口发送命令,复位位0和1.位0控制8253计数器2的工作,位1控制扬声器.
	if (beepcount)									// 扬声器发声时间滴答数(chr_drv/console.c)
    7598:	a1 2c fe 03 00       	mov    0x3fe2c,%eax
    759d:	85 c0                	test   %eax,%eax
    759f:	74 1b                	je     75bc <do_timer+0xa5>
		if (!--beepcount)
    75a1:	a1 2c fe 03 00       	mov    0x3fe2c,%eax
    75a6:	83 e8 01             	sub    $0x1,%eax
    75a9:	a3 2c fe 03 00       	mov    %eax,0x3fe2c
    75ae:	a1 2c fe 03 00       	mov    0x3fe2c,%eax
    75b3:	85 c0                	test   %eax,%eax
    75b5:	75 05                	jne    75bc <do_timer+0xa5>
			sysbeepstop();
    75b7:	e8 9d 5d 01 00       	call   1d359 <sysbeepstop>

	// 如果当前特权级(cpl)为0(最高,表示是内核程序在工作),则将内核代码时间stime递增;[Linus把内核程序统称为超级用户(superviser)的
	// 程序.这种称呼来自Intel CPU手册.]如果cpl>0,则表示是一般用户程序在工作,增加utime.
	if (cpl)
    75bc:	83 7c 24 20 00       	cmpl   $0x0,0x20(%esp)
    75c1:	74 16                	je     75d9 <do_timer+0xc2>
		current->utime++;
    75c3:	a1 a0 f1 02 00       	mov    0x2f1a0,%eax
    75c8:	8b 90 e0 02 00 00    	mov    0x2e0(%eax),%edx
    75ce:	83 c2 01             	add    $0x1,%edx
    75d1:	89 90 e0 02 00 00    	mov    %edx,0x2e0(%eax)
    75d7:	eb 14                	jmp    75ed <do_timer+0xd6>
	else
		current->stime++;
    75d9:	a1 a0 f1 02 00       	mov    0x2f1a0,%eax
    75de:	8b 90 e4 02 00 00    	mov    0x2e4(%eax),%edx
    75e4:	83 c2 01             	add    $0x1,%edx
    75e7:	89 90 e4 02 00 00    	mov    %edx,0x2e4(%eax)

	// 如果有定时器存在,则将链表第1个定时器的值减1.如果已等于0,则调用相应的处理程序,并将该处理程序指针置空.然后去掉该项定时器.next_timer是
	// 定时器链表的头指针.
	if (next_timer) {
    75ed:	a1 40 fe 02 00       	mov    0x2fe40,%eax
    75f2:	85 c0                	test   %eax,%eax
    75f4:	74 4d                	je     7643 <do_timer+0x12c>
		next_timer->jiffies--;
    75f6:	a1 40 fe 02 00       	mov    0x2fe40,%eax
    75fb:	8b 10                	mov    (%eax),%edx
    75fd:	83 ea 01             	sub    $0x1,%edx
    7600:	89 10                	mov    %edx,(%eax)
		while (next_timer && next_timer->jiffies <= 0) {
    7602:	eb 2b                	jmp    762f <do_timer+0x118>
			void (*fn)(void);						// 这里插入了一个函数指针定义!!

			fn = next_timer->fn;
    7604:	a1 40 fe 02 00       	mov    0x2fe40,%eax
    7609:	8b 40 04             	mov    0x4(%eax),%eax
    760c:	89 44 24 0c          	mov    %eax,0xc(%esp)
			next_timer->fn = NULL;
    7610:	a1 40 fe 02 00       	mov    0x2fe40,%eax
    7615:	c7 40 04 00 00 00 00 	movl   $0x0,0x4(%eax)
			next_timer = next_timer->next;
    761c:	a1 40 fe 02 00       	mov    0x2fe40,%eax
    7621:	8b 40 08             	mov    0x8(%eax),%eax
    7624:	a3 40 fe 02 00       	mov    %eax,0x2fe40
			(fn)();									// 调用定时处理函数.
    7629:	8b 44 24 0c          	mov    0xc(%esp),%eax
    762d:	ff d0                	call   *%eax
		while (next_timer && next_timer->jiffies <= 0) {
    762f:	a1 40 fe 02 00       	mov    0x2fe40,%eax
    7634:	85 c0                	test   %eax,%eax
    7636:	74 0b                	je     7643 <do_timer+0x12c>
    7638:	a1 40 fe 02 00       	mov    0x2fe40,%eax
    763d:	8b 00                	mov    (%eax),%eax
    763f:	85 c0                	test   %eax,%eax
    7641:	7e c1                	jle    7604 <do_timer+0xed>
		}
	}
	// 如果当前软盘控制器FDC的数字输出寄存器中马达启动位有置位的,则执行软盘定时程序.
	if (current_DOR & 0xf0)
    7643:	0f b6 05 c8 f2 02 00 	movzbl 0x2f2c8,%eax
    764a:	0f b6 c0             	movzbl %al,%eax
    764d:	25 f0 00 00 00       	and    $0xf0,%eax
    7652:	85 c0                	test   %eax,%eax
    7654:	74 05                	je     765b <do_timer+0x144>
		do_floppy_timer();
    7656:	e8 72 fc ff ff       	call   72cd <do_floppy_timer>
	// 如果进程运行时间还没完,则退出.否则置当前任务运行计数值为0.并且若发生时钟中断时正在内核代码中运行则返回,否则调用执行调试函数.
	if ((--current->counter) > 0) return;
    765b:	a1 a0 f1 02 00       	mov    0x2f1a0,%eax
    7660:	8b 50 04             	mov    0x4(%eax),%edx
    7663:	83 ea 01             	sub    $0x1,%edx
    7666:	89 50 04             	mov    %edx,0x4(%eax)
    7669:	8b 40 04             	mov    0x4(%eax),%eax
    766c:	85 c0                	test   %eax,%eax
    766e:	7f 1a                	jg     768a <do_timer+0x173>
	current->counter = 0;
    7670:	a1 a0 f1 02 00       	mov    0x2f1a0,%eax
    7675:	c7 40 04 00 00 00 00 	movl   $0x0,0x4(%eax)
	if (!cpl) return;								// 对于内核态程序,不信赖counter值进行调试.
    767c:	83 7c 24 20 00       	cmpl   $0x0,0x20(%esp)
    7681:	74 0a                	je     768d <do_timer+0x176>
	schedule();
    7683:	e8 bb f7 ff ff       	call   6e43 <schedule>
    7688:	eb 04                	jmp    768e <do_timer+0x177>
	if ((--current->counter) > 0) return;
    768a:	90                   	nop
    768b:	eb 01                	jmp    768e <do_timer+0x177>
	if (!cpl) return;								// 对于内核态程序,不信赖counter值进行调试.
    768d:	90                   	nop
}
    768e:	83 c4 1c             	add    $0x1c,%esp
    7691:	c3                   	ret    

00007692 <sys_alarm>:
// 进程数据结构中报警定时值alarm的单位是系统滴答（1滴答为10毫秒），它是系统开机起到设置定时操作时系统滴答值jiffies和转换成滴答
// 单位的定时值之和，即'jiffies + HZ*定时秒值'。而参数给出的是以秒为单位的定时值，因此本函数的主要操作是进行两个单位的转换。
// 其中常数HZ = 100,是内核系统运行频率。定义在inlucde/sched.h上。
// 参数seconds是新的定时时间值，单位是秒。
int sys_alarm(long seconds)
{
    7692:	83 ec 10             	sub    $0x10,%esp
	int old = current->alarm;
    7695:	a1 a0 f1 02 00       	mov    0x2f1a0,%eax
    769a:	8b 80 dc 02 00 00    	mov    0x2dc(%eax),%eax
    76a0:	89 44 24 0c          	mov    %eax,0xc(%esp)

	if (old)
    76a4:	83 7c 24 0c 00       	cmpl   $0x0,0xc(%esp)
    76a9:	74 1d                	je     76c8 <sys_alarm+0x36>
		old = (old - jiffies) / HZ;
    76ab:	8b 54 24 0c          	mov    0xc(%esp),%edx
    76af:	a1 00 fb 02 00       	mov    0x2fb00,%eax
    76b4:	29 c2                	sub    %eax,%edx
    76b6:	89 d0                	mov    %edx,%eax
    76b8:	ba 1f 85 eb 51       	mov    $0x51eb851f,%edx
    76bd:	f7 e2                	mul    %edx
    76bf:	89 d0                	mov    %edx,%eax
    76c1:	c1 e8 05             	shr    $0x5,%eax
    76c4:	89 44 24 0c          	mov    %eax,0xc(%esp)
	current->alarm = (seconds>0)?(jiffies+HZ*seconds):0;
    76c8:	83 7c 24 14 00       	cmpl   $0x0,0x14(%esp)
    76cd:	7e 12                	jle    76e1 <sys_alarm+0x4f>
    76cf:	8b 44 24 14          	mov    0x14(%esp),%eax
    76d3:	6b c0 64             	imul   $0x64,%eax,%eax
    76d6:	89 c2                	mov    %eax,%edx
    76d8:	a1 00 fb 02 00       	mov    0x2fb00,%eax
    76dd:	01 c2                	add    %eax,%edx
    76df:	eb 05                	jmp    76e6 <sys_alarm+0x54>
    76e1:	ba 00 00 00 00       	mov    $0x0,%edx
    76e6:	a1 a0 f1 02 00       	mov    0x2f1a0,%eax
    76eb:	89 90 dc 02 00 00    	mov    %edx,0x2dc(%eax)
	return (old);
    76f1:	8b 44 24 0c          	mov    0xc(%esp),%eax
}
    76f5:	83 c4 10             	add    $0x10,%esp
    76f8:	c3                   	ret    

000076f9 <sys_getpid>:

// 取当前进程号pid。
int sys_getpid(void)
{
	return current->pid;
    76f9:	a1 a0 f1 02 00       	mov    0x2f1a0,%eax
    76fe:	8b 80 2c 02 00 00    	mov    0x22c(%eax),%eax
}
    7704:	c3                   	ret    

00007705 <sys_getppid>:

// 取父进程号ppid。
int sys_getppid(void)
{
	return current->p_pptr->pid;
    7705:	a1 a0 f1 02 00       	mov    0x2f1a0,%eax
    770a:	8b 80 bc 02 00 00    	mov    0x2bc(%eax),%eax
    7710:	8b 80 2c 02 00 00    	mov    0x22c(%eax),%eax
}
    7716:	c3                   	ret    

00007717 <sys_getuid>:

// 取用户uid。
int sys_getuid(void)
{
	return current->uid;
    7717:	a1 a0 f1 02 00       	mov    0x2f1a0,%eax
    771c:	0f b7 80 cc 02 00 00 	movzwl 0x2cc(%eax),%eax
    7723:	0f b7 c0             	movzwl %ax,%eax
}
    7726:	c3                   	ret    

00007727 <sys_geteuid>:

// 取有效的用户号euid。
int sys_geteuid(void)
{
	return current->euid;
    7727:	a1 a0 f1 02 00       	mov    0x2f1a0,%eax
    772c:	0f b7 80 ce 02 00 00 	movzwl 0x2ce(%eax),%eax
    7733:	0f b7 c0             	movzwl %ax,%eax
}
    7736:	c3                   	ret    

00007737 <sys_getgid>:

// 取组号gid。
int sys_getgid(void)
{
	return current->gid;
    7737:	a1 a0 f1 02 00       	mov    0x2f1a0,%eax
    773c:	0f b7 80 d2 02 00 00 	movzwl 0x2d2(%eax),%eax
    7743:	0f b7 c0             	movzwl %ax,%eax
}
    7746:	c3                   	ret    

00007747 <sys_getegid>:

// 取有效的组号egid。
int sys_getegid(void)
{
	return current->egid;
    7747:	a1 a0 f1 02 00       	mov    0x2f1a0,%eax
    774c:	0f b7 80 d4 02 00 00 	movzwl 0x2d4(%eax),%eax
    7753:	0f b7 c0             	movzwl %ax,%eax
}
    7756:	c3                   	ret    

00007757 <sys_nice>:

// 系统调用功能 -- 降低对CPU的使用优先权（有人会用吗？）。
// 应该限制increment为大于0的值，否则可使优先仅增大！！
int sys_nice(long increment)
{
	if (current->priority-increment > 0)
    7757:	a1 a0 f1 02 00       	mov    0x2f1a0,%eax
    775c:	8b 40 08             	mov    0x8(%eax),%eax
    775f:	2b 44 24 04          	sub    0x4(%esp),%eax
    7763:	85 c0                	test   %eax,%eax
    7765:	7e 14                	jle    777b <sys_nice+0x24>
		current->priority -= increment;
    7767:	a1 a0 f1 02 00       	mov    0x2f1a0,%eax
    776c:	8b 50 08             	mov    0x8(%eax),%edx
    776f:	a1 a0 f1 02 00       	mov    0x2f1a0,%eax
    7774:	2b 54 24 04          	sub    0x4(%esp),%edx
    7778:	89 50 08             	mov    %edx,0x8(%eax)
	return 0;
    777b:	b8 00 00 00 00       	mov    $0x0,%eax
}
    7780:	c3                   	ret    

00007781 <sched_init>:

// 内核调度程序的初始化子程序
void sched_init(void)
{
    7781:	55                   	push   %ebp
    7782:	57                   	push   %edi
    7783:	56                   	push   %esi
    7784:	53                   	push   %ebx
    7785:	83 ec 10             	sub    $0x10,%esp
		panic("Struct sigaction MUST be 16 bytes");
	// 在全局描述符表中设置初始任务(任务0)的任务状态段描述符和局部数据表描述符.
	// FIRST_TSS_ENTRY和FIRST_LDT_ENTRY的值分别是4和5,定义在include/linux/sched.h中.gdt是一个描述符表数组(include/linux/head.h),
	// 实际上对应程序head.s中的他已描述符表基址(gdt).因此gdt+FIRST_TSS_ENTRY即为gdt[FIRST_TSS_ENTRY](即是gdt[4]),即gdt数组第4项的地址
	// 参见include/asm/system.h
	set_tss_desc(gdt + FIRST_TSS_ENTRY, &(init_task.task.tss));
    7788:	ba d8 5c 00 00       	mov    $0x5cd8,%edx
    778d:	b9 da 5c 00 00       	mov    $0x5cda,%ecx
    7792:	bb dc 5c 00 00       	mov    $0x5cdc,%ebx
    7797:	be dd 5c 00 00       	mov    $0x5cdd,%esi
    779c:	bf de 5c 00 00       	mov    $0x5cde,%edi
    77a1:	bd df 5c 00 00       	mov    $0x5cdf,%ebp
    77a6:	b8 50 e5 02 00       	mov    $0x2e550,%eax
    77ab:	66 c7 02 68 00       	movw   $0x68,(%edx)
    77b0:	66 89 01             	mov    %ax,(%ecx)
    77b3:	c1 c8 10             	ror    $0x10,%eax
    77b6:	88 03                	mov    %al,(%ebx)
    77b8:	c6 06 89             	movb   $0x89,(%esi)
    77bb:	c6 07 00             	movb   $0x0,(%edi)
    77be:	88 65 00             	mov    %ah,0x0(%ebp)
    77c1:	c1 c8 10             	ror    $0x10,%eax
	set_ldt_desc(gdt + FIRST_LDT_ENTRY, &(init_task.task.ldt));
    77c4:	ba e0 5c 00 00       	mov    $0x5ce0,%edx
    77c9:	b9 e2 5c 00 00       	mov    $0x5ce2,%ecx
    77ce:	bb e4 5c 00 00       	mov    $0x5ce4,%ebx
    77d3:	be e5 5c 00 00       	mov    $0x5ce5,%esi
    77d8:	bf e6 5c 00 00       	mov    $0x5ce6,%edi
    77dd:	bd e7 5c 00 00       	mov    $0x5ce7,%ebp
    77e2:	b8 38 e5 02 00       	mov    $0x2e538,%eax
    77e7:	66 c7 02 68 00       	movw   $0x68,(%edx)
    77ec:	66 89 01             	mov    %ax,(%ecx)
    77ef:	c1 c8 10             	ror    $0x10,%eax
    77f2:	88 03                	mov    %al,(%ebx)
    77f4:	c6 06 82             	movb   $0x82,(%esi)
    77f7:	c6 07 00             	movb   $0x0,(%edi)
    77fa:	88 65 00             	mov    %ah,0x0(%ebp)
    77fd:	c1 c8 10             	ror    $0x10,%eax
	// 清任务数组和描述符表项(注意i=1开始,所以初始任务的描述符还在).描述符项结构定义在文件include/linux/head.h中.
	p = gdt + 2 + FIRST_TSS_ENTRY;
    7800:	c7 44 24 08 e8 5c 00 	movl   $0x5ce8,0x8(%esp)
    7807:	00 
	// 初始化除进程一以外的其他进程指针
	for(i = 1; i < NR_TASKS; i++) {
    7808:	c7 44 24 0c 01 00 00 	movl   $0x1,0xc(%esp)
    780f:	00 
    7810:	eb 4e                	jmp    7860 <sched_init+0xdf>
		task[i] = NULL;
    7812:	8b 44 24 0c          	mov    0xc(%esp),%eax
    7816:	c7 04 85 c0 f1 02 00 	movl   $0x0,0x2f1c0(,%eax,4)
    781d:	00 00 00 00 
		p->a = p->b = 0;
    7821:	8b 44 24 08          	mov    0x8(%esp),%eax
    7825:	c7 40 04 00 00 00 00 	movl   $0x0,0x4(%eax)
    782c:	8b 44 24 08          	mov    0x8(%esp),%eax
    7830:	8b 50 04             	mov    0x4(%eax),%edx
    7833:	8b 44 24 08          	mov    0x8(%esp),%eax
    7837:	89 10                	mov    %edx,(%eax)
		p++;
    7839:	83 44 24 08 08       	addl   $0x8,0x8(%esp)
		p->a = p->b = 0;
    783e:	8b 44 24 08          	mov    0x8(%esp),%eax
    7842:	c7 40 04 00 00 00 00 	movl   $0x0,0x4(%eax)
    7849:	8b 44 24 08          	mov    0x8(%esp),%eax
    784d:	8b 50 04             	mov    0x4(%eax),%edx
    7850:	8b 44 24 08          	mov    0x8(%esp),%eax
    7854:	89 10                	mov    %edx,(%eax)
		p++;
    7856:	83 44 24 08 08       	addl   $0x8,0x8(%esp)
	for(i = 1; i < NR_TASKS; i++) {
    785b:	83 44 24 0c 01       	addl   $0x1,0xc(%esp)
    7860:	83 7c 24 0c 3f       	cmpl   $0x3f,0xc(%esp)
    7865:	7e ab                	jle    7812 <sched_init+0x91>
	}
	/* Clear NT, so that we won't have troubles with that later on */
	/* 清除标志寄存器中的位NT,这样以后就不会有麻烦 */
	// EFLAGS中的NT标志位用于控制任务的嵌套调用.当NT位置位时,那么当前中断任务执行IRET指令时就会引起任务切换.NT指出TSS中的back_link字段是否有效.
	// NT=0时无效.
	__asm__("pushfl ; andl $0xffffbfff,(%esp) ; popfl");
    7867:	9c                   	pushf  
    7868:	81 24 24 ff bf ff ff 	andl   $0xffffbfff,(%esp)
    786f:	9d                   	popf   
	// 将任务0的TSS段选择符加载到任务寄存器tr.将局部描述符表段选择符加载到局部描述符表寄存器ldtr中.注意!!是将GDT中相应LDT描述符的选择符加载到ldtr.
	// 只明确加这一次,以后新任务LDT的加载,是CPU根据TSS中的LDT项自动加载.
	ltr(0);								// 定义在include/linux/sched.h
    7870:	b8 20 00 00 00       	mov    $0x20,%eax
    7875:	0f 00 d8             	ltr    %ax
	lldt(0);							// 其中参数(0)是任务号.
    7878:	b8 28 00 00 00       	mov    $0x28,%eax
    787d:	0f 00 d0             	lldt   %ax
	// 下面代码用于初始化8253定时器.通道0,选择工作方式3,二进制计数方式.通道0的输出引脚接在中断控制主芯片的IRQ0上,它每10毫秒发出一个IRQ0请求.
	// LATCH是初始定时计数值.
	outb_p(0x36, 0x43);					/* binary, mode 3, LSB/MSB, ch 0 */
    7880:	b8 36 00 00 00       	mov    $0x36,%eax
    7885:	ba 43 00 00 00       	mov    $0x43,%edx
    788a:	ee                   	out    %al,(%dx)
    788b:	eb 00                	jmp    788d <sched_init+0x10c>
    788d:	eb 00                	jmp    788f <sched_init+0x10e>
	outb_p(LATCH & 0xff, 0x40);			/* LSB */	// 定时值低字节
    788f:	b8 9b 00 00 00       	mov    $0x9b,%eax
    7894:	ba 40 00 00 00       	mov    $0x40,%edx
    7899:	ee                   	out    %al,(%dx)
    789a:	eb 00                	jmp    789c <sched_init+0x11b>
    789c:	eb 00                	jmp    789e <sched_init+0x11d>
	outb(LATCH >> 8, 0x40);				/* MSB */	// 定时值高字节
    789e:	b8 2e 00 00 00       	mov    $0x2e,%eax
    78a3:	ba 40 00 00 00       	mov    $0x40,%edx
    78a8:	ee                   	out    %al,(%dx)
	// 设置时钟中断处理程序句柄(设置时钟中断门).修改中断控制器屏蔽码,允许时钟中断.
	// 然后设置系统调用中断门.这两个设置中断描述衔表IDT中描述符的宏定义在文件include/asm/system.h中.两者的区别参见system.h文件开始处的说明.
	set_intr_gate(0x20, &timer_interrupt);
    78a9:	b9 b8 55 00 00       	mov    $0x55b8,%ecx
    78ae:	bb bc 55 00 00       	mov    $0x55bc,%ebx
    78b3:	ba 1c 7a 00 00       	mov    $0x7a1c,%edx
    78b8:	b8 00 00 08 00       	mov    $0x80000,%eax
    78bd:	66 89 d0             	mov    %dx,%ax
    78c0:	66 ba 00 8e          	mov    $0x8e00,%dx
    78c4:	89 01                	mov    %eax,(%ecx)
    78c6:	89 13                	mov    %edx,(%ebx)
	outb(inb_p(0x21) & ~0x01, 0x21);
    78c8:	b8 21 00 00 00       	mov    $0x21,%eax
    78cd:	89 c2                	mov    %eax,%edx
    78cf:	ec                   	in     (%dx),%al
    78d0:	eb 00                	jmp    78d2 <sched_init+0x151>
    78d2:	eb 00                	jmp    78d4 <sched_init+0x153>
    78d4:	88 44 24 07          	mov    %al,0x7(%esp)
    78d8:	0f b6 44 24 07       	movzbl 0x7(%esp),%eax
    78dd:	0f b6 c0             	movzbl %al,%eax
    78e0:	83 e0 fe             	and    $0xfffffffe,%eax
    78e3:	ba 21 00 00 00       	mov    $0x21,%edx
    78e8:	ee                   	out    %al,(%dx)
	set_system_gate(0x80, &system_call);
    78e9:	b9 b8 58 00 00       	mov    $0x58b8,%ecx
    78ee:	bb bc 58 00 00       	mov    $0x58bc,%ebx
    78f3:	ba 24 79 00 00       	mov    $0x7924,%edx
    78f8:	b8 00 00 08 00       	mov    $0x80000,%eax
    78fd:	66 89 d0             	mov    %dx,%ax
    7900:	66 ba 00 ef          	mov    $0xef00,%dx
    7904:	89 01                	mov    %eax,(%ecx)
    7906:	89 13                	mov    %edx,(%ebx)
}
    7908:	90                   	nop
    7909:	83 c4 10             	add    $0x10,%esp
    790c:	5b                   	pop    %ebx
    790d:	5e                   	pop    %esi
    790e:	5f                   	pop    %edi
    790f:	5d                   	pop    %ebp
    7910:	c3                   	ret    
    7911:	66 90                	xchg   %ax,%ax
    7913:	90                   	nop

00007914 <bad_sys_call>:
    7914:	6a da                	push   $0xffffffda
    7916:	eb 50                	jmp    7968 <ret_from_sys_call>

00007918 <reschedule>:
    7918:	68 68 79 00 00       	push   $0x7968
    791d:	e9 21 f5 ff ff       	jmp    6e43 <schedule>
    7922:	66 90                	xchg   %ax,%ax

00007924 <system_call>:
    7924:	1e                   	push   %ds
    7925:	06                   	push   %es
    7926:	0f a0                	push   %fs
    7928:	50                   	push   %eax
    7929:	52                   	push   %edx
    792a:	51                   	push   %ecx
    792b:	53                   	push   %ebx
    792c:	ba 10 00 00 00       	mov    $0x10,%edx
    7931:	8e da                	mov    %edx,%ds
    7933:	8e c2                	mov    %edx,%es
    7935:	ba 17 00 00 00       	mov    $0x17,%edx
    793a:	8e e2                	mov    %edx,%fs
    793c:	3b 05 9c e1 02 00    	cmp    0x2e19c,%eax
    7942:	73 d0                	jae    7914 <bad_sys_call>
    7944:	8b 1c 85 40 e0 02 00 	mov    0x2e040(,%eax,4),%ebx
    794b:	83 fb 00             	cmp    $0x0,%ebx
    794e:	75 05                	jne    7955 <sys_call>
    7950:	e8 f2 29 00 00       	call   a347 <sys_default>

00007955 <sys_call>:
    7955:	ff d3                	call   *%ebx
    7957:	50                   	push   %eax
    7958:	a1 a0 f1 02 00       	mov    0x2f1a0,%eax
    795d:	83 38 00             	cmpl   $0x0,(%eax)
    7960:	75 b6                	jne    7918 <reschedule>
    7962:	83 78 04 00          	cmpl   $0x0,0x4(%eax)
    7966:	74 b0                	je     7918 <reschedule>

00007968 <ret_from_sys_call>:
    7968:	a1 a0 f1 02 00       	mov    0x2f1a0,%eax
    796d:	3b 05 c0 f1 02 00    	cmp    0x2f1c0,%eax
    7973:	74 34                	je     79a9 <ret_from_sys_call+0x41>
    7975:	66 83 7c 24 24 0f    	cmpw   $0xf,0x24(%esp)
    797b:	75 2c                	jne    79a9 <ret_from_sys_call+0x41>
    797d:	66 83 7c 24 30 17    	cmpw   $0x17,0x30(%esp)
    7983:	75 24                	jne    79a9 <ret_from_sys_call+0x41>
    7985:	8b 58 0c             	mov    0xc(%eax),%ebx
    7988:	8b 88 10 02 00 00    	mov    0x210(%eax),%ecx
    798e:	f7 d1                	not    %ecx
    7990:	21 d9                	and    %ebx,%ecx
    7992:	0f bc c9             	bsf    %ecx,%ecx
    7995:	74 12                	je     79a9 <ret_from_sys_call+0x41>
    7997:	0f b3 cb             	btr    %ecx,%ebx
    799a:	89 58 0c             	mov    %ebx,0xc(%eax)
    799d:	41                   	inc    %ecx
    799e:	51                   	push   %ecx
    799f:	e8 47 3f 00 00       	call   b8eb <do_signal>
    79a4:	59                   	pop    %ecx
    79a5:	85 c0                	test   %eax,%eax
    79a7:	75 af                	jne    7958 <sys_call+0x3>
    79a9:	58                   	pop    %eax
    79aa:	5b                   	pop    %ebx
    79ab:	59                   	pop    %ecx
    79ac:	5a                   	pop    %edx
    79ad:	83 c4 04             	add    $0x4,%esp
    79b0:	0f a1                	pop    %fs
    79b2:	07                   	pop    %es
    79b3:	1f                   	pop    %ds
    79b4:	cf                   	iret   
    79b5:	8d 76 00             	lea    0x0(%esi),%esi

000079b8 <coprocessor_error>:
    79b8:	1e                   	push   %ds
    79b9:	06                   	push   %es
    79ba:	0f a0                	push   %fs
    79bc:	6a ff                	push   $0xffffffff
    79be:	52                   	push   %edx
    79bf:	51                   	push   %ecx
    79c0:	53                   	push   %ebx
    79c1:	50                   	push   %eax
    79c2:	b8 10 00 00 00       	mov    $0x10,%eax
    79c7:	8e d8                	mov    %eax,%ds
    79c9:	8e c0                	mov    %eax,%es
    79cb:	b8 17 00 00 00       	mov    $0x17,%eax
    79d0:	8e e0                	mov    %eax,%fs
    79d2:	68 68 79 00 00       	push   $0x7968
    79d7:	e9 a5 91 01 00       	jmp    20b81 <math_error>

000079dc <device_not_available>:
    79dc:	1e                   	push   %ds
    79dd:	06                   	push   %es
    79de:	0f a0                	push   %fs
    79e0:	6a ff                	push   $0xffffffff
    79e2:	52                   	push   %edx
    79e3:	51                   	push   %ecx
    79e4:	53                   	push   %ebx
    79e5:	50                   	push   %eax
    79e6:	b8 10 00 00 00       	mov    $0x10,%eax
    79eb:	8e d8                	mov    %eax,%ds
    79ed:	8e c0                	mov    %eax,%es
    79ef:	b8 17 00 00 00       	mov    $0x17,%eax
    79f4:	8e e0                	mov    %eax,%fs
    79f6:	68 68 79 00 00       	push   $0x7968
    79fb:	0f 06                	clts   
    79fd:	0f 20 c0             	mov    %cr0,%eax
    7a00:	a9 04 00 00 00       	test   $0x4,%eax
    7a05:	0f 84 da f3 ff ff    	je     6de5 <math_state_restore>
    7a0b:	55                   	push   %ebp
    7a0c:	56                   	push   %esi
    7a0d:	57                   	push   %edi
    7a0e:	6a 00                	push   $0x0
    7a10:	e8 77 8f 01 00       	call   2098c <math_emulate>
    7a15:	83 c4 04             	add    $0x4,%esp
    7a18:	5f                   	pop    %edi
    7a19:	5e                   	pop    %esi
    7a1a:	5d                   	pop    %ebp
    7a1b:	c3                   	ret    

00007a1c <timer_interrupt>:
    7a1c:	1e                   	push   %ds
    7a1d:	06                   	push   %es
    7a1e:	0f a0                	push   %fs
    7a20:	6a ff                	push   $0xffffffff
    7a22:	52                   	push   %edx
    7a23:	51                   	push   %ecx
    7a24:	53                   	push   %ebx
    7a25:	50                   	push   %eax
    7a26:	b8 10 00 00 00       	mov    $0x10,%eax
    7a2b:	8e d8                	mov    %eax,%ds
    7a2d:	8e c0                	mov    %eax,%es
    7a2f:	b8 17 00 00 00       	mov    $0x17,%eax
    7a34:	8e e0                	mov    %eax,%fs
    7a36:	ff 05 00 fb 02 00    	incl   0x2fb00
    7a3c:	b0 20                	mov    $0x20,%al
    7a3e:	e6 20                	out    %al,$0x20
    7a40:	8b 44 24 24          	mov    0x24(%esp),%eax
    7a44:	83 e0 03             	and    $0x3,%eax
    7a47:	50                   	push   %eax
    7a48:	e8 ca fa ff ff       	call   7517 <do_timer>
    7a4d:	83 c4 04             	add    $0x4,%esp
    7a50:	e9 13 ff ff ff       	jmp    7968 <ret_from_sys_call>
    7a55:	8d 76 00             	lea    0x0(%esi),%esi

00007a58 <sys_execve>:
    7a58:	8d 44 24 20          	lea    0x20(%esp),%eax
    7a5c:	50                   	push   %eax
    7a5d:	e8 00 9e 00 00       	call   11862 <do_execve>
    7a62:	83 c4 04             	add    $0x4,%esp
    7a65:	c3                   	ret    
    7a66:	66 90                	xchg   %ax,%ax

00007a68 <sys_fork>:
    7a68:	e8 e7 10 00 00       	call   8b54 <find_empty_process>
    7a6d:	85 c0                	test   %eax,%eax
    7a6f:	78 0e                	js     7a7f <sys_fork+0x17>
    7a71:	0f a8                	push   %gs
    7a73:	56                   	push   %esi
    7a74:	57                   	push   %edi
    7a75:	55                   	push   %ebp
    7a76:	50                   	push   %eax
    7a77:	e8 7b 0b 00 00       	call   85f7 <copy_process>
    7a7c:	83 c4 14             	add    $0x14,%esp
    7a7f:	c3                   	ret    

00007a80 <hd_interrupt>:
    7a80:	50                   	push   %eax
    7a81:	51                   	push   %ecx
    7a82:	52                   	push   %edx
    7a83:	1e                   	push   %ds
    7a84:	06                   	push   %es
    7a85:	0f a0                	push   %fs
    7a87:	b8 10 00 00 00       	mov    $0x10,%eax
    7a8c:	8e d8                	mov    %eax,%ds
    7a8e:	8e c0                	mov    %eax,%es
    7a90:	b8 17 00 00 00       	mov    $0x17,%eax
    7a95:	8e e0                	mov    %eax,%fs
    7a97:	b0 20                	mov    $0x20,%al
    7a99:	e6 a0                	out    %al,$0xa0
    7a9b:	eb 00                	jmp    7a9d <hd_interrupt+0x1d>
    7a9d:	eb 00                	jmp    7a9f <hd_interrupt+0x1f>
    7a9f:	31 d2                	xor    %edx,%edx
    7aa1:	89 15 84 21 03 00    	mov    %edx,0x32184
    7aa7:	87 15 80 21 03 00    	xchg   %edx,0x32180
    7aad:	85 d2                	test   %edx,%edx
    7aaf:	75 05                	jne    7ab6 <hd_interrupt+0x36>
    7ab1:	ba 28 80 01 00       	mov    $0x18028,%edx
    7ab6:	e6 20                	out    %al,$0x20
    7ab8:	ff d2                	call   *%edx
    7aba:	0f a1                	pop    %fs
    7abc:	07                   	pop    %es
    7abd:	1f                   	pop    %ds
    7abe:	5a                   	pop    %edx
    7abf:	59                   	pop    %ecx
    7ac0:	58                   	pop    %eax
    7ac1:	cf                   	iret   

00007ac2 <floppy_interrupt>:
    7ac2:	50                   	push   %eax
    7ac3:	51                   	push   %ecx
    7ac4:	52                   	push   %edx
    7ac5:	1e                   	push   %ds
    7ac6:	06                   	push   %es
    7ac7:	0f a0                	push   %fs
    7ac9:	b8 10 00 00 00       	mov    $0x10,%eax
    7ace:	8e d8                	mov    %eax,%ds
    7ad0:	8e c0                	mov    %eax,%es
    7ad2:	b8 17 00 00 00       	mov    $0x17,%eax
    7ad7:	8e e0                	mov    %eax,%fs
    7ad9:	b0 20                	mov    $0x20,%al
    7adb:	e6 20                	out    %al,$0x20
    7add:	31 c0                	xor    %eax,%eax
    7adf:	87 05 54 21 03 00    	xchg   %eax,0x32154
    7ae5:	85 c0                	test   %eax,%eax
    7ae7:	75 05                	jne    7aee <floppy_interrupt+0x2c>
    7ae9:	b8 8d 72 01 00       	mov    $0x1728d,%eax
    7aee:	ff d0                	call   *%eax
    7af0:	0f a1                	pop    %fs
    7af2:	07                   	pop    %es
    7af3:	1f                   	pop    %ds
    7af4:	5a                   	pop    %edx
    7af5:	59                   	pop    %ecx
    7af6:	58                   	pop    %eax
    7af7:	cf                   	iret   

00007af8 <parallel_interrupt>:
    7af8:	50                   	push   %eax
    7af9:	b0 20                	mov    $0x20,%al
    7afb:	e6 20                	out    %al,$0x20
    7afd:	58                   	pop    %eax
    7afe:	cf                   	iret   

00007aff <die>:
void alignment_check(void);					// int46(kernel/asm.s)

// 该子程序用来打印出错中断的名称,出错号,调用程序的EIP,EFLAGS,ESP,fs段寄存器值,段的基址,段的长度,进程号pid,任务号,10字节指令码.如果
// 堆栈在用户数据段,则还打印16字节堆栈内容.这些信息可用于程序调试.
static void die(char * str, long esp_ptr, long nr)
{
    7aff:	56                   	push   %esi
    7b00:	53                   	push   %ebx
    7b01:	83 ec 14             	sub    $0x14,%esp
	long * esp = (long *) esp_ptr;
    7b04:	8b 44 24 24          	mov    0x24(%esp),%eax
    7b08:	89 44 24 08          	mov    %eax,0x8(%esp)
	int i;

	printk("%s: %04x\n\r",str, nr & 0xffff);
    7b0c:	8b 44 24 28          	mov    0x28(%esp),%eax
    7b10:	0f b7 c0             	movzwl %ax,%eax
    7b13:	83 ec 04             	sub    $0x4,%esp
    7b16:	50                   	push   %eax
    7b17:	ff 74 24 28          	pushl  0x28(%esp)
    7b1b:	68 f8 2b 02 00       	push   $0x22bf8
    7b20:	e8 21 11 00 00       	call   8c46 <printk>
    7b25:	83 c4 10             	add    $0x10,%esp
	// 下行打印语句显示当前调用进程的CS:EIP,EFLAGS和SS:ESP的值.
	// (1) EIP:\t%04x:%p\n	-- esp[1]是段选择符(cs),esp[0]是eip
	// (2) EFLAGS:\t%p	-- esp[2]是eflags
	// (2) ESP:\t%04x:%p\n	-- esp[4]是原ss,esp[3]是原esp
	printk("EIP:\t%04x:%p\nEFLAGS:\t%p\nESP:\t%04x:%p\n",
		esp[1], esp[0], esp[2], esp[4], esp[3]);
    7b28:	8b 44 24 08          	mov    0x8(%esp),%eax
    7b2c:	83 c0 0c             	add    $0xc,%eax
	printk("EIP:\t%04x:%p\nEFLAGS:\t%p\nESP:\t%04x:%p\n",
    7b2f:	8b 30                	mov    (%eax),%esi
		esp[1], esp[0], esp[2], esp[4], esp[3]);
    7b31:	8b 44 24 08          	mov    0x8(%esp),%eax
    7b35:	83 c0 10             	add    $0x10,%eax
	printk("EIP:\t%04x:%p\nEFLAGS:\t%p\nESP:\t%04x:%p\n",
    7b38:	8b 18                	mov    (%eax),%ebx
		esp[1], esp[0], esp[2], esp[4], esp[3]);
    7b3a:	8b 44 24 08          	mov    0x8(%esp),%eax
    7b3e:	83 c0 08             	add    $0x8,%eax
	printk("EIP:\t%04x:%p\nEFLAGS:\t%p\nESP:\t%04x:%p\n",
    7b41:	8b 08                	mov    (%eax),%ecx
    7b43:	8b 44 24 08          	mov    0x8(%esp),%eax
    7b47:	8b 10                	mov    (%eax),%edx
		esp[1], esp[0], esp[2], esp[4], esp[3]);
    7b49:	8b 44 24 08          	mov    0x8(%esp),%eax
    7b4d:	83 c0 04             	add    $0x4,%eax
	printk("EIP:\t%04x:%p\nEFLAGS:\t%p\nESP:\t%04x:%p\n",
    7b50:	8b 00                	mov    (%eax),%eax
    7b52:	83 ec 08             	sub    $0x8,%esp
    7b55:	56                   	push   %esi
    7b56:	53                   	push   %ebx
    7b57:	51                   	push   %ecx
    7b58:	52                   	push   %edx
    7b59:	50                   	push   %eax
    7b5a:	68 04 2c 02 00       	push   $0x22c04
    7b5f:	e8 e2 10 00 00       	call   8c46 <printk>
    7b64:	83 c4 20             	add    $0x20,%esp
	printk("fs: %04x\n", _fs());
    7b67:	66 8c e0             	mov    %fs,%ax
    7b6a:	89 c3                	mov    %eax,%ebx
    7b6c:	89 d8                	mov    %ebx,%eax
    7b6e:	0f b7 c0             	movzwl %ax,%eax
    7b71:	83 ec 08             	sub    $0x8,%esp
    7b74:	50                   	push   %eax
    7b75:	68 2a 2c 02 00       	push   $0x22c2a
    7b7a:	e8 c7 10 00 00       	call   8c46 <printk>
    7b7f:	83 c4 10             	add    $0x10,%esp
	printk("base: %p, limit: %p\n", get_base(current->ldt[1]), get_limit(0x17));
    7b82:	b8 17 00 00 00       	mov    $0x17,%eax
    7b87:	0f 03 c0             	lsl    %ax,%eax
    7b8a:	40                   	inc    %eax
    7b8b:	89 44 24 04          	mov    %eax,0x4(%esp)
    7b8f:	8b 4c 24 04          	mov    0x4(%esp),%ecx
    7b93:	a1 a0 f1 02 00       	mov    0x2f1a0,%eax
    7b98:	05 a0 03 00 00       	add    $0x3a0,%eax
    7b9d:	83 c0 02             	add    $0x2,%eax
    7ba0:	8b 15 a0 f1 02 00    	mov    0x2f1a0,%edx
    7ba6:	81 c2 a0 03 00 00    	add    $0x3a0,%edx
    7bac:	8d 72 04             	lea    0x4(%edx),%esi
    7baf:	8b 1d a0 f1 02 00    	mov    0x2f1a0,%ebx
    7bb5:	81 c3 a0 03 00 00    	add    $0x3a0,%ebx
    7bbb:	83 c3 07             	add    $0x7,%ebx
    7bbe:	8a 33                	mov    (%ebx),%dh
    7bc0:	8a 16                	mov    (%esi),%dl
    7bc2:	c1 e2 10             	shl    $0x10,%edx
    7bc5:	66 8b 10             	mov    (%eax),%dx
    7bc8:	89 d0                	mov    %edx,%eax
    7bca:	89 04 24             	mov    %eax,(%esp)
    7bcd:	8b 04 24             	mov    (%esp),%eax
    7bd0:	83 ec 04             	sub    $0x4,%esp
    7bd3:	51                   	push   %ecx
    7bd4:	50                   	push   %eax
    7bd5:	68 34 2c 02 00       	push   $0x22c34
    7bda:	e8 67 10 00 00       	call   8c46 <printk>
    7bdf:	83 c4 10             	add    $0x10,%esp
	if (esp[4] == 0x17) {						// 或原ss值为0x17(用户栈),则还打印出用户栈的4个长字值(16字节).
    7be2:	8b 44 24 08          	mov    0x8(%esp),%eax
    7be6:	83 c0 10             	add    $0x10,%eax
    7be9:	8b 00                	mov    (%eax),%eax
    7beb:	83 f8 17             	cmp    $0x17,%eax
    7bee:	75 71                	jne    7c61 <die+0x162>
		printk("Stack: ");
    7bf0:	83 ec 0c             	sub    $0xc,%esp
    7bf3:	68 49 2c 02 00       	push   $0x22c49
    7bf8:	e8 49 10 00 00       	call   8c46 <printk>
    7bfd:	83 c4 10             	add    $0x10,%esp
		for (i = 0; i < 4; i++)
    7c00:	c7 44 24 0c 00 00 00 	movl   $0x0,0xc(%esp)
    7c07:	00 
    7c08:	eb 40                	jmp    7c4a <die+0x14b>
			printk("%p ", get_seg_long(0x17, i + (long *)esp[3]));
    7c0a:	8b 44 24 0c          	mov    0xc(%esp),%eax
    7c0e:	8d 14 85 00 00 00 00 	lea    0x0(,%eax,4),%edx
    7c15:	8b 44 24 08          	mov    0x8(%esp),%eax
    7c19:	83 c0 0c             	add    $0xc,%eax
    7c1c:	8b 00                	mov    (%eax),%eax
    7c1e:	01 d0                	add    %edx,%eax
    7c20:	89 c2                	mov    %eax,%edx
    7c22:	b8 17 00 00 00       	mov    $0x17,%eax
    7c27:	0f a0                	push   %fs
    7c29:	8e e0                	mov    %eax,%fs
    7c2b:	64 8b 02             	mov    %fs:(%edx),%eax
    7c2e:	0f a1                	pop    %fs
    7c30:	89 c3                	mov    %eax,%ebx
    7c32:	89 d8                	mov    %ebx,%eax
    7c34:	83 ec 08             	sub    $0x8,%esp
    7c37:	50                   	push   %eax
    7c38:	68 51 2c 02 00       	push   $0x22c51
    7c3d:	e8 04 10 00 00       	call   8c46 <printk>
    7c42:	83 c4 10             	add    $0x10,%esp
		for (i = 0; i < 4; i++)
    7c45:	83 44 24 0c 01       	addl   $0x1,0xc(%esp)
    7c4a:	83 7c 24 0c 03       	cmpl   $0x3,0xc(%esp)
    7c4f:	7e b9                	jle    7c0a <die+0x10b>
		printk("\n");
    7c51:	83 ec 0c             	sub    $0xc,%esp
    7c54:	68 55 2c 02 00       	push   $0x22c55
    7c59:	e8 e8 0f 00 00       	call   8c46 <printk>
    7c5e:	83 c4 10             	add    $0x10,%esp
	}
	str(i);										// 取当前运行任务的任务号(include/linux/sched.h).
    7c61:	b8 00 00 00 00       	mov    $0x0,%eax
    7c66:	66 0f 00 c8          	str    %ax
    7c6a:	83 e8 20             	sub    $0x20,%eax
    7c6d:	c1 e8 04             	shr    $0x4,%eax
    7c70:	89 44 24 0c          	mov    %eax,0xc(%esp)
	printk("Pid: %d, process nr: %d\n\r", current->pid, 0xffff & i);
    7c74:	8b 44 24 0c          	mov    0xc(%esp),%eax
    7c78:	0f b7 d0             	movzwl %ax,%edx
    7c7b:	a1 a0 f1 02 00       	mov    0x2f1a0,%eax
    7c80:	8b 80 2c 02 00 00    	mov    0x22c(%eax),%eax
    7c86:	83 ec 04             	sub    $0x4,%esp
    7c89:	52                   	push   %edx
    7c8a:	50                   	push   %eax
    7c8b:	68 57 2c 02 00       	push   $0x22c57
    7c90:	e8 b1 0f 00 00       	call   8c46 <printk>
    7c95:	83 c4 10             	add    $0x10,%esp
                        						// 进程号,任务号.
	for(i = 0; i < 10; i++)
    7c98:	c7 44 24 0c 00 00 00 	movl   $0x0,0xc(%esp)
    7c9f:	00 
    7ca0:	eb 40                	jmp    7ce2 <die+0x1e3>
		printk("%02x ", 0xff & get_seg_byte(esp[1], (i+(char *)esp[0])));
    7ca2:	8b 44 24 08          	mov    0x8(%esp),%eax
    7ca6:	83 c0 04             	add    $0x4,%eax
    7ca9:	8b 00                	mov    (%eax),%eax
    7cab:	8b 54 24 08          	mov    0x8(%esp),%edx
    7caf:	8b 12                	mov    (%edx),%edx
    7cb1:	89 d1                	mov    %edx,%ecx
    7cb3:	8b 54 24 0c          	mov    0xc(%esp),%edx
    7cb7:	01 ca                	add    %ecx,%edx
    7cb9:	0f a0                	push   %fs
    7cbb:	8e e0                	mov    %eax,%fs
    7cbd:	64 8a 02             	mov    %fs:(%edx),%al
    7cc0:	0f a1                	pop    %fs
    7cc2:	89 c3                	mov    %eax,%ebx
    7cc4:	89 d8                	mov    %ebx,%eax
    7cc6:	0f be c0             	movsbl %al,%eax
    7cc9:	0f b6 c0             	movzbl %al,%eax
    7ccc:	83 ec 08             	sub    $0x8,%esp
    7ccf:	50                   	push   %eax
    7cd0:	68 71 2c 02 00       	push   $0x22c71
    7cd5:	e8 6c 0f 00 00       	call   8c46 <printk>
    7cda:	83 c4 10             	add    $0x10,%esp
	for(i = 0; i < 10; i++)
    7cdd:	83 44 24 0c 01       	addl   $0x1,0xc(%esp)
    7ce2:	83 7c 24 0c 09       	cmpl   $0x9,0xc(%esp)
    7ce7:	7e b9                	jle    7ca2 <die+0x1a3>
	printk("\n\r");
    7ce9:	83 ec 0c             	sub    $0xc,%esp
    7cec:	68 77 2c 02 00       	push   $0x22c77
    7cf1:	e8 50 0f 00 00       	call   8c46 <printk>
    7cf6:	83 c4 10             	add    $0x10,%esp
	do_exit(11);								/* play segment exception */
    7cf9:	83 ec 0c             	sub    $0xc,%esp
    7cfc:	6a 0b                	push   $0xb
    7cfe:	e8 c7 30 00 00       	call   adca <do_exit>
    7d03:	83 c4 10             	add    $0x10,%esp
}
    7d06:	90                   	nop
    7d07:	83 c4 14             	add    $0x14,%esp
    7d0a:	5b                   	pop    %ebx
    7d0b:	5e                   	pop    %esi
    7d0c:	c3                   	ret    

00007d0d <do_double_fault>:

// 以下这些以do_开头的函数是asm.s中对应中断处理程序调用的C函数.
void do_double_fault(long esp, long error_code)
{
    7d0d:	83 ec 0c             	sub    $0xc,%esp
	die("double fault", esp, error_code);
    7d10:	83 ec 04             	sub    $0x4,%esp
    7d13:	ff 74 24 18          	pushl  0x18(%esp)
    7d17:	ff 74 24 18          	pushl  0x18(%esp)
    7d1b:	68 7a 2c 02 00       	push   $0x22c7a
    7d20:	e8 da fd ff ff       	call   7aff <die>
    7d25:	83 c4 10             	add    $0x10,%esp
}
    7d28:	90                   	nop
    7d29:	83 c4 0c             	add    $0xc,%esp
    7d2c:	c3                   	ret    

00007d2d <do_general_protection>:

void do_general_protection(long esp, long error_code)
{
    7d2d:	83 ec 0c             	sub    $0xc,%esp
	die("general protection", esp, error_code);
    7d30:	83 ec 04             	sub    $0x4,%esp
    7d33:	ff 74 24 18          	pushl  0x18(%esp)
    7d37:	ff 74 24 18          	pushl  0x18(%esp)
    7d3b:	68 87 2c 02 00       	push   $0x22c87
    7d40:	e8 ba fd ff ff       	call   7aff <die>
    7d45:	83 c4 10             	add    $0x10,%esp
}
    7d48:	90                   	nop
    7d49:	83 c4 0c             	add    $0xc,%esp
    7d4c:	c3                   	ret    

00007d4d <do_alignment_check>:

void do_alignment_check(long esp, long error_code)
{
    7d4d:	83 ec 0c             	sub    $0xc,%esp
    die("alignment check", esp, error_code);
    7d50:	83 ec 04             	sub    $0x4,%esp
    7d53:	ff 74 24 18          	pushl  0x18(%esp)
    7d57:	ff 74 24 18          	pushl  0x18(%esp)
    7d5b:	68 9a 2c 02 00       	push   $0x22c9a
    7d60:	e8 9a fd ff ff       	call   7aff <die>
    7d65:	83 c4 10             	add    $0x10,%esp
}
    7d68:	90                   	nop
    7d69:	83 c4 0c             	add    $0xc,%esp
    7d6c:	c3                   	ret    

00007d6d <do_divide_error>:

void do_divide_error(long esp, long error_code)
{
    7d6d:	83 ec 0c             	sub    $0xc,%esp
	die("divide error", esp, error_code);
    7d70:	83 ec 04             	sub    $0x4,%esp
    7d73:	ff 74 24 18          	pushl  0x18(%esp)
    7d77:	ff 74 24 18          	pushl  0x18(%esp)
    7d7b:	68 aa 2c 02 00       	push   $0x22caa
    7d80:	e8 7a fd ff ff       	call   7aff <die>
    7d85:	83 c4 10             	add    $0x10,%esp
}
    7d88:	90                   	nop
    7d89:	83 c4 0c             	add    $0xc,%esp
    7d8c:	c3                   	ret    

00007d8d <do_int3>:
// 参数是进入中断后被顺序压入堆栈的寄存器值.参见asm.s程序.
void do_int3(long * esp, long error_code,
		long fs, long es, long ds,
		long ebp, long esi, long edi,
		long edx, long ecx, long ebx, long eax)
{
    7d8d:	83 ec 1c             	sub    $0x1c,%esp
	int tr;

	__asm__("str %%ax":"=a" (tr):"0" (0));		// 取任务寄存器值->tr
    7d90:	b8 00 00 00 00       	mov    $0x0,%eax
    7d95:	66 0f 00 c8          	str    %ax
    7d99:	89 44 24 0c          	mov    %eax,0xc(%esp)
	printk("eax\t\tebx\t\tecx\t\tedx\n\r%8x\t%8x\t%8x\t%8x\n\r",
    7d9d:	83 ec 0c             	sub    $0xc,%esp
    7da0:	ff 74 24 4c          	pushl  0x4c(%esp)
    7da4:	ff 74 24 54          	pushl  0x54(%esp)
    7da8:	ff 74 24 5c          	pushl  0x5c(%esp)
    7dac:	ff 74 24 64          	pushl  0x64(%esp)
    7db0:	68 b8 2c 02 00       	push   $0x22cb8
    7db5:	e8 8c 0e 00 00       	call   8c46 <printk>
    7dba:	83 c4 20             	add    $0x20,%esp
		eax, ebx, ecx, edx);
	printk("esi\t\tedi\t\tebp\t\tesp\n\r%8x\t%8x\t%8x\t%8x\n\r",
    7dbd:	8b 44 24 20          	mov    0x20(%esp),%eax
    7dc1:	83 ec 0c             	sub    $0xc,%esp
    7dc4:	50                   	push   %eax
    7dc5:	ff 74 24 44          	pushl  0x44(%esp)
    7dc9:	ff 74 24 50          	pushl  0x50(%esp)
    7dcd:	ff 74 24 50          	pushl  0x50(%esp)
    7dd1:	68 e0 2c 02 00       	push   $0x22ce0
    7dd6:	e8 6b 0e 00 00       	call   8c46 <printk>
    7ddb:	83 c4 20             	add    $0x20,%esp
		esi, edi, ebp, (long) esp);
	printk("\n\rds\tes\tfs\ttr\n\r%4x\t%4x\t%4x\t%4x\n\r",
    7dde:	83 ec 0c             	sub    $0xc,%esp
    7de1:	ff 74 24 18          	pushl  0x18(%esp)
    7de5:	ff 74 24 38          	pushl  0x38(%esp)
    7de9:	ff 74 24 40          	pushl  0x40(%esp)
    7ded:	ff 74 24 48          	pushl  0x48(%esp)
    7df1:	68 08 2d 02 00       	push   $0x22d08
    7df6:	e8 4b 0e 00 00       	call   8c46 <printk>
    7dfb:	83 c4 20             	add    $0x20,%esp
		ds, es, fs, tr);
	printk("EIP: %8x   CS: %4x  EFLAGS: %8x\n\r", esp[0], esp[1], esp[2]);
    7dfe:	8b 44 24 20          	mov    0x20(%esp),%eax
    7e02:	83 c0 08             	add    $0x8,%eax
    7e05:	8b 08                	mov    (%eax),%ecx
    7e07:	8b 44 24 20          	mov    0x20(%esp),%eax
    7e0b:	83 c0 04             	add    $0x4,%eax
    7e0e:	8b 10                	mov    (%eax),%edx
    7e10:	8b 44 24 20          	mov    0x20(%esp),%eax
    7e14:	8b 00                	mov    (%eax),%eax
    7e16:	51                   	push   %ecx
    7e17:	52                   	push   %edx
    7e18:	50                   	push   %eax
    7e19:	68 2c 2d 02 00       	push   $0x22d2c
    7e1e:	e8 23 0e 00 00       	call   8c46 <printk>
    7e23:	83 c4 10             	add    $0x10,%esp
}
    7e26:	90                   	nop
    7e27:	83 c4 1c             	add    $0x1c,%esp
    7e2a:	c3                   	ret    

00007e2b <do_nmi>:

void do_nmi(long esp, long error_code)
{
    7e2b:	83 ec 0c             	sub    $0xc,%esp
	die("nmi", esp, error_code);
    7e2e:	83 ec 04             	sub    $0x4,%esp
    7e31:	ff 74 24 18          	pushl  0x18(%esp)
    7e35:	ff 74 24 18          	pushl  0x18(%esp)
    7e39:	68 4e 2d 02 00       	push   $0x22d4e
    7e3e:	e8 bc fc ff ff       	call   7aff <die>
    7e43:	83 c4 10             	add    $0x10,%esp
}
    7e46:	90                   	nop
    7e47:	83 c4 0c             	add    $0xc,%esp
    7e4a:	c3                   	ret    

00007e4b <do_debug>:

void do_debug(long esp, long error_code)
{
    7e4b:	83 ec 0c             	sub    $0xc,%esp
	die("debug", esp, error_code);
    7e4e:	83 ec 04             	sub    $0x4,%esp
    7e51:	ff 74 24 18          	pushl  0x18(%esp)
    7e55:	ff 74 24 18          	pushl  0x18(%esp)
    7e59:	68 52 2d 02 00       	push   $0x22d52
    7e5e:	e8 9c fc ff ff       	call   7aff <die>
    7e63:	83 c4 10             	add    $0x10,%esp
}
    7e66:	90                   	nop
    7e67:	83 c4 0c             	add    $0xc,%esp
    7e6a:	c3                   	ret    

00007e6b <do_overflow>:

void do_overflow(long esp, long error_code)
{
    7e6b:	83 ec 0c             	sub    $0xc,%esp
	die("overflow", esp, error_code);
    7e6e:	83 ec 04             	sub    $0x4,%esp
    7e71:	ff 74 24 18          	pushl  0x18(%esp)
    7e75:	ff 74 24 18          	pushl  0x18(%esp)
    7e79:	68 58 2d 02 00       	push   $0x22d58
    7e7e:	e8 7c fc ff ff       	call   7aff <die>
    7e83:	83 c4 10             	add    $0x10,%esp
}
    7e86:	90                   	nop
    7e87:	83 c4 0c             	add    $0xc,%esp
    7e8a:	c3                   	ret    

00007e8b <do_bounds>:

void do_bounds(long esp, long error_code)
{
    7e8b:	83 ec 0c             	sub    $0xc,%esp
	die("bounds", esp, error_code);
    7e8e:	83 ec 04             	sub    $0x4,%esp
    7e91:	ff 74 24 18          	pushl  0x18(%esp)
    7e95:	ff 74 24 18          	pushl  0x18(%esp)
    7e99:	68 61 2d 02 00       	push   $0x22d61
    7e9e:	e8 5c fc ff ff       	call   7aff <die>
    7ea3:	83 c4 10             	add    $0x10,%esp
}
    7ea6:	90                   	nop
    7ea7:	83 c4 0c             	add    $0xc,%esp
    7eaa:	c3                   	ret    

00007eab <do_invalid_op>:

void do_invalid_op(long esp, long error_code)
{
    7eab:	83 ec 0c             	sub    $0xc,%esp
	die("invalid operand", esp, error_code);
    7eae:	83 ec 04             	sub    $0x4,%esp
    7eb1:	ff 74 24 18          	pushl  0x18(%esp)
    7eb5:	ff 74 24 18          	pushl  0x18(%esp)
    7eb9:	68 68 2d 02 00       	push   $0x22d68
    7ebe:	e8 3c fc ff ff       	call   7aff <die>
    7ec3:	83 c4 10             	add    $0x10,%esp
}
    7ec6:	90                   	nop
    7ec7:	83 c4 0c             	add    $0xc,%esp
    7eca:	c3                   	ret    

00007ecb <do_device_not_available>:

void do_device_not_available(long esp, long error_code)
{
    7ecb:	83 ec 0c             	sub    $0xc,%esp
	die("device not available", esp, error_code);
    7ece:	83 ec 04             	sub    $0x4,%esp
    7ed1:	ff 74 24 18          	pushl  0x18(%esp)
    7ed5:	ff 74 24 18          	pushl  0x18(%esp)
    7ed9:	68 78 2d 02 00       	push   $0x22d78
    7ede:	e8 1c fc ff ff       	call   7aff <die>
    7ee3:	83 c4 10             	add    $0x10,%esp
}
    7ee6:	90                   	nop
    7ee7:	83 c4 0c             	add    $0xc,%esp
    7eea:	c3                   	ret    

00007eeb <do_coprocessor_segment_overrun>:

void do_coprocessor_segment_overrun(long esp, long error_code)
{
    7eeb:	83 ec 0c             	sub    $0xc,%esp
	die("coprocessor segment overrun", esp, error_code);
    7eee:	83 ec 04             	sub    $0x4,%esp
    7ef1:	ff 74 24 18          	pushl  0x18(%esp)
    7ef5:	ff 74 24 18          	pushl  0x18(%esp)
    7ef9:	68 8d 2d 02 00       	push   $0x22d8d
    7efe:	e8 fc fb ff ff       	call   7aff <die>
    7f03:	83 c4 10             	add    $0x10,%esp
}
    7f06:	90                   	nop
    7f07:	83 c4 0c             	add    $0xc,%esp
    7f0a:	c3                   	ret    

00007f0b <do_invalid_TSS>:

void do_invalid_TSS(long esp, long error_code)
{
    7f0b:	83 ec 0c             	sub    $0xc,%esp
	die("invalid TSS", esp, error_code);
    7f0e:	83 ec 04             	sub    $0x4,%esp
    7f11:	ff 74 24 18          	pushl  0x18(%esp)
    7f15:	ff 74 24 18          	pushl  0x18(%esp)
    7f19:	68 a9 2d 02 00       	push   $0x22da9
    7f1e:	e8 dc fb ff ff       	call   7aff <die>
    7f23:	83 c4 10             	add    $0x10,%esp
}
    7f26:	90                   	nop
    7f27:	83 c4 0c             	add    $0xc,%esp
    7f2a:	c3                   	ret    

00007f2b <do_segment_not_present>:

void do_segment_not_present(long esp, long error_code)
{
    7f2b:	83 ec 0c             	sub    $0xc,%esp
	die("segment not present", esp, error_code);
    7f2e:	83 ec 04             	sub    $0x4,%esp
    7f31:	ff 74 24 18          	pushl  0x18(%esp)
    7f35:	ff 74 24 18          	pushl  0x18(%esp)
    7f39:	68 b5 2d 02 00       	push   $0x22db5
    7f3e:	e8 bc fb ff ff       	call   7aff <die>
    7f43:	83 c4 10             	add    $0x10,%esp
}
    7f46:	90                   	nop
    7f47:	83 c4 0c             	add    $0xc,%esp
    7f4a:	c3                   	ret    

00007f4b <do_stack_segment>:

void do_stack_segment(long esp, long error_code)
{
    7f4b:	83 ec 0c             	sub    $0xc,%esp
	die("stack segment", esp, error_code);
    7f4e:	83 ec 04             	sub    $0x4,%esp
    7f51:	ff 74 24 18          	pushl  0x18(%esp)
    7f55:	ff 74 24 18          	pushl  0x18(%esp)
    7f59:	68 c9 2d 02 00       	push   $0x22dc9
    7f5e:	e8 9c fb ff ff       	call   7aff <die>
    7f63:	83 c4 10             	add    $0x10,%esp
}
    7f66:	90                   	nop
    7f67:	83 c4 0c             	add    $0xc,%esp
    7f6a:	c3                   	ret    

00007f6b <do_coprocessor_error>:

void do_coprocessor_error(long esp, long error_code)
{
    7f6b:	83 ec 0c             	sub    $0xc,%esp
	if (last_task_used_math != current)
    7f6e:	8b 15 0c fb 02 00    	mov    0x2fb0c,%edx
    7f74:	a1 a0 f1 02 00       	mov    0x2f1a0,%eax
    7f79:	39 c2                	cmp    %eax,%edx
    7f7b:	75 1a                	jne    7f97 <do_coprocessor_error+0x2c>
		return;
	die("coprocessor error", esp, error_code);
    7f7d:	83 ec 04             	sub    $0x4,%esp
    7f80:	ff 74 24 18          	pushl  0x18(%esp)
    7f84:	ff 74 24 18          	pushl  0x18(%esp)
    7f88:	68 d7 2d 02 00       	push   $0x22dd7
    7f8d:	e8 6d fb ff ff       	call   7aff <die>
    7f92:	83 c4 10             	add    $0x10,%esp
    7f95:	eb 01                	jmp    7f98 <do_coprocessor_error+0x2d>
		return;
    7f97:	90                   	nop
}
    7f98:	83 c4 0c             	add    $0xc,%esp
    7f9b:	c3                   	ret    

00007f9c <do_reserved>:

void do_reserved(long esp, long error_code)
{
    7f9c:	83 ec 0c             	sub    $0xc,%esp
	die("reserved (15,17-47) error", esp, error_code);
    7f9f:	83 ec 04             	sub    $0x4,%esp
    7fa2:	ff 74 24 18          	pushl  0x18(%esp)
    7fa6:	ff 74 24 18          	pushl  0x18(%esp)
    7faa:	68 e9 2d 02 00       	push   $0x22de9
    7faf:	e8 4b fb ff ff       	call   7aff <die>
    7fb4:	83 c4 10             	add    $0x10,%esp
}
    7fb7:	90                   	nop
    7fb8:	83 c4 0c             	add    $0xc,%esp
    7fbb:	c3                   	ret    

00007fbc <trap_init>:
// 下面是异常(陷阱)中断程序初始化子程序.设置它们的中断调用门(中断向量).
// set_trap_gate()与set_system_gate()都使用了中断描述符表IDT中的陷阱门(Trap Gate),它们之间的主要区别在于前者设置的特权级为0,
// 后者是3.因此断点陷阱中断int3,溢出中断overflow和边界出错中断bounds可以由任何程序调用.这两个函数均是嵌入式汇编宏程序,参见
// include/asm/system.h
void trap_init(void)
{
    7fbc:	53                   	push   %ebx
    7fbd:	83 ec 10             	sub    $0x10,%esp
	int i;

	set_trap_gate(0, &divide_error);							// 设置除操作出错的中断向量值.
    7fc0:	b9 b8 54 00 00       	mov    $0x54b8,%ecx
    7fc5:	bb bc 54 00 00       	mov    $0x54bc,%ebx
    7fca:	ba c3 82 00 00       	mov    $0x82c3,%edx
    7fcf:	b8 00 00 08 00       	mov    $0x80000,%eax
    7fd4:	66 89 d0             	mov    %dx,%ax
    7fd7:	66 ba 00 8f          	mov    $0x8f00,%dx
    7fdb:	89 01                	mov    %eax,(%ecx)
    7fdd:	89 13                	mov    %edx,(%ebx)
	set_trap_gate(1, &debug);
    7fdf:	b9 c0 54 00 00       	mov    $0x54c0,%ecx
    7fe4:	bb c4 54 00 00       	mov    $0x54c4,%ebx
    7fe9:	ba f8 82 00 00       	mov    $0x82f8,%edx
    7fee:	b8 00 00 08 00       	mov    $0x80000,%eax
    7ff3:	66 89 d0             	mov    %dx,%ax
    7ff6:	66 ba 00 8f          	mov    $0x8f00,%dx
    7ffa:	89 01                	mov    %eax,(%ecx)
    7ffc:	89 13                	mov    %edx,(%ebx)
	set_trap_gate(2, &nmi);
    7ffe:	b9 c8 54 00 00       	mov    $0x54c8,%ecx
    8003:	bb cc 54 00 00       	mov    $0x54cc,%ebx
    8008:	ba ff 82 00 00       	mov    $0x82ff,%edx
    800d:	b8 00 00 08 00       	mov    $0x80000,%eax
    8012:	66 89 d0             	mov    %dx,%ax
    8015:	66 ba 00 8f          	mov    $0x8f00,%dx
    8019:	89 01                	mov    %eax,(%ecx)
    801b:	89 13                	mov    %edx,(%ebx)
	set_system_gate(3, &int3);									/* int3-5 can be called from all */
    801d:	b9 d0 54 00 00       	mov    $0x54d0,%ecx
    8022:	bb d4 54 00 00       	mov    $0x54d4,%ebx
    8027:	ba 06 83 00 00       	mov    $0x8306,%edx
    802c:	b8 00 00 08 00       	mov    $0x80000,%eax
    8031:	66 89 d0             	mov    %dx,%ax
    8034:	66 ba 00 ef          	mov    $0xef00,%dx
    8038:	89 01                	mov    %eax,(%ecx)
    803a:	89 13                	mov    %edx,(%ebx)
	set_system_gate(4, &overflow);
    803c:	b9 d8 54 00 00       	mov    $0x54d8,%ecx
    8041:	bb dc 54 00 00       	mov    $0x54dc,%ebx
    8046:	ba 0d 83 00 00       	mov    $0x830d,%edx
    804b:	b8 00 00 08 00       	mov    $0x80000,%eax
    8050:	66 89 d0             	mov    %dx,%ax
    8053:	66 ba 00 ef          	mov    $0xef00,%dx
    8057:	89 01                	mov    %eax,(%ecx)
    8059:	89 13                	mov    %edx,(%ebx)
	set_system_gate(5, &bounds);
    805b:	b9 e0 54 00 00       	mov    $0x54e0,%ecx
    8060:	bb e4 54 00 00       	mov    $0x54e4,%ebx
    8065:	ba 14 83 00 00       	mov    $0x8314,%edx
    806a:	b8 00 00 08 00       	mov    $0x80000,%eax
    806f:	66 89 d0             	mov    %dx,%ax
    8072:	66 ba 00 ef          	mov    $0xef00,%dx
    8076:	89 01                	mov    %eax,(%ecx)
    8078:	89 13                	mov    %edx,(%ebx)
	set_trap_gate(6, &invalid_op);
    807a:	b9 e8 54 00 00       	mov    $0x54e8,%ecx
    807f:	bb ec 54 00 00       	mov    $0x54ec,%ebx
    8084:	ba 1b 83 00 00       	mov    $0x831b,%edx
    8089:	b8 00 00 08 00       	mov    $0x80000,%eax
    808e:	66 89 d0             	mov    %dx,%ax
    8091:	66 ba 00 8f          	mov    $0x8f00,%dx
    8095:	89 01                	mov    %eax,(%ecx)
    8097:	89 13                	mov    %edx,(%ebx)
	set_trap_gate(7, &device_not_available);					// 函数未实现
    8099:	b9 f0 54 00 00       	mov    $0x54f0,%ecx
    809e:	bb f4 54 00 00       	mov    $0x54f4,%ebx
    80a3:	ba dc 79 00 00       	mov    $0x79dc,%edx
    80a8:	b8 00 00 08 00       	mov    $0x80000,%eax
    80ad:	66 89 d0             	mov    %dx,%ax
    80b0:	66 ba 00 8f          	mov    $0x8f00,%dx
    80b4:	89 01                	mov    %eax,(%ecx)
    80b6:	89 13                	mov    %edx,(%ebx)
	set_trap_gate(8, &double_fault);
    80b8:	b9 f8 54 00 00       	mov    $0x54f8,%ecx
    80bd:	bb fc 54 00 00       	mov    $0x54fc,%ebx
    80c2:	ba 45 83 00 00       	mov    $0x8345,%edx
    80c7:	b8 00 00 08 00       	mov    $0x80000,%eax
    80cc:	66 89 d0             	mov    %dx,%ax
    80cf:	66 ba 00 8f          	mov    $0x8f00,%dx
    80d3:	89 01                	mov    %eax,(%ecx)
    80d5:	89 13                	mov    %edx,(%ebx)
	set_trap_gate(9, &coprocessor_segment_overrun);
    80d7:	b9 00 55 00 00       	mov    $0x5500,%ecx
    80dc:	bb 04 55 00 00       	mov    $0x5504,%ebx
    80e1:	ba 22 83 00 00       	mov    $0x8322,%edx
    80e6:	b8 00 00 08 00       	mov    $0x80000,%eax
    80eb:	66 89 d0             	mov    %dx,%ax
    80ee:	66 ba 00 8f          	mov    $0x8f00,%dx
    80f2:	89 01                	mov    %eax,(%ecx)
    80f4:	89 13                	mov    %edx,(%ebx)
	set_trap_gate(10, &invalid_TSS);
    80f6:	b9 08 55 00 00       	mov    $0x5508,%ecx
    80fb:	bb 0c 55 00 00       	mov    $0x550c,%ebx
    8100:	ba 7c 83 00 00       	mov    $0x837c,%edx
    8105:	b8 00 00 08 00       	mov    $0x80000,%eax
    810a:	66 89 d0             	mov    %dx,%ax
    810d:	66 ba 00 8f          	mov    $0x8f00,%dx
    8111:	89 01                	mov    %eax,(%ecx)
    8113:	89 13                	mov    %edx,(%ebx)
	set_trap_gate(11, &segment_not_present);
    8115:	b9 10 55 00 00       	mov    $0x5510,%ecx
    811a:	bb 14 55 00 00       	mov    $0x5514,%ebx
    811f:	ba 83 83 00 00       	mov    $0x8383,%edx
    8124:	b8 00 00 08 00       	mov    $0x80000,%eax
    8129:	66 89 d0             	mov    %dx,%ax
    812c:	66 ba 00 8f          	mov    $0x8f00,%dx
    8130:	89 01                	mov    %eax,(%ecx)
    8132:	89 13                	mov    %edx,(%ebx)
	set_trap_gate(12, &stack_segment);
    8134:	b9 18 55 00 00       	mov    $0x5518,%ecx
    8139:	bb 1c 55 00 00       	mov    $0x551c,%ebx
    813e:	ba 8a 83 00 00       	mov    $0x838a,%edx
    8143:	b8 00 00 08 00       	mov    $0x80000,%eax
    8148:	66 89 d0             	mov    %dx,%ax
    814b:	66 ba 00 8f          	mov    $0x8f00,%dx
    814f:	89 01                	mov    %eax,(%ecx)
    8151:	89 13                	mov    %edx,(%ebx)
	set_trap_gate(13, &general_protection);
    8153:	b9 20 55 00 00       	mov    $0x5520,%ecx
    8158:	bb 24 55 00 00       	mov    $0x5524,%ebx
    815d:	ba 91 83 00 00       	mov    $0x8391,%edx
    8162:	b8 00 00 08 00       	mov    $0x80000,%eax
    8167:	66 89 d0             	mov    %dx,%ax
    816a:	66 ba 00 8f          	mov    $0x8f00,%dx
    816e:	89 01                	mov    %eax,(%ecx)
    8170:	89 13                	mov    %edx,(%ebx)
	set_trap_gate(14, &page_fault);
    8172:	b9 28 55 00 00       	mov    $0x5528,%ecx
    8177:	bb 2c 55 00 00       	mov    $0x552c,%ebx
    817c:	ba 03 d3 00 00       	mov    $0xd303,%edx
    8181:	b8 00 00 08 00       	mov    $0x80000,%eax
    8186:	66 89 d0             	mov    %dx,%ax
    8189:	66 ba 00 8f          	mov    $0x8f00,%dx
    818d:	89 01                	mov    %eax,(%ecx)
    818f:	89 13                	mov    %edx,(%ebx)
	set_trap_gate(15, &reserved);
    8191:	b9 30 55 00 00       	mov    $0x5530,%ecx
    8196:	bb 34 55 00 00       	mov    $0x5534,%ebx
    819b:	ba 29 83 00 00       	mov    $0x8329,%edx
    81a0:	b8 00 00 08 00       	mov    $0x80000,%eax
    81a5:	66 89 d0             	mov    %dx,%ax
    81a8:	66 ba 00 8f          	mov    $0x8f00,%dx
    81ac:	89 01                	mov    %eax,(%ecx)
    81ae:	89 13                	mov    %edx,(%ebx)
	set_trap_gate(16, &coprocessor_error);						// 函数未实现
    81b0:	b9 38 55 00 00       	mov    $0x5538,%ecx
    81b5:	bb 3c 55 00 00       	mov    $0x553c,%ebx
    81ba:	ba b8 79 00 00       	mov    $0x79b8,%edx
    81bf:	b8 00 00 08 00       	mov    $0x80000,%eax
    81c4:	66 89 d0             	mov    %dx,%ax
    81c7:	66 ba 00 8f          	mov    $0x8f00,%dx
    81cb:	89 01                	mov    %eax,(%ecx)
    81cd:	89 13                	mov    %edx,(%ebx)
	set_trap_gate(17, &alignment_check);
    81cf:	b9 40 55 00 00       	mov    $0x5540,%ecx
    81d4:	bb 44 55 00 00       	mov    $0x5544,%ebx
    81d9:	ba 98 83 00 00       	mov    $0x8398,%edx
    81de:	b8 00 00 08 00       	mov    $0x80000,%eax
    81e3:	66 89 d0             	mov    %dx,%ax
    81e6:	66 ba 00 8f          	mov    $0x8f00,%dx
    81ea:	89 01                	mov    %eax,(%ecx)
    81ec:	89 13                	mov    %edx,(%ebx)
	// 下面把int17-47的陷阱门先均设置为reserved,以后各硬件初始化时会重新设置自己的陷阱门.
	for (i = 18; i < 48; i++)
    81ee:	c7 44 24 0c 12 00 00 	movl   $0x12,0xc(%esp)
    81f5:	00 
    81f6:	eb 36                	jmp    822e <trap_init+0x272>
		set_trap_gate(i, &reserved);
    81f8:	8b 44 24 0c          	mov    0xc(%esp),%eax
    81fc:	c1 e0 03             	shl    $0x3,%eax
    81ff:	8d 88 b8 54 00 00    	lea    0x54b8(%eax),%ecx
    8205:	8b 44 24 0c          	mov    0xc(%esp),%eax
    8209:	c1 e0 03             	shl    $0x3,%eax
    820c:	05 b8 54 00 00       	add    $0x54b8,%eax
    8211:	8d 58 04             	lea    0x4(%eax),%ebx
    8214:	ba 29 83 00 00       	mov    $0x8329,%edx
    8219:	b8 00 00 08 00       	mov    $0x80000,%eax
    821e:	66 89 d0             	mov    %dx,%ax
    8221:	66 ba 00 8f          	mov    $0x8f00,%dx
    8225:	89 01                	mov    %eax,(%ecx)
    8227:	89 13                	mov    %edx,(%ebx)
	for (i = 18; i < 48; i++)
    8229:	83 44 24 0c 01       	addl   $0x1,0xc(%esp)
    822e:	83 7c 24 0c 2f       	cmpl   $0x2f,0xc(%esp)
    8233:	7e c3                	jle    81f8 <trap_init+0x23c>
	// 设置协处理器中断0x2d(45)陷阱门描述符,并允许其产生中断请求.设置并行口中断描述符.
	set_trap_gate(45, &irq13);
    8235:	b9 20 56 00 00       	mov    $0x5620,%ecx
    823a:	bb 24 56 00 00       	mov    $0x5624,%ebx
    823f:	ba 30 83 00 00       	mov    $0x8330,%edx
    8244:	b8 00 00 08 00       	mov    $0x80000,%eax
    8249:	66 89 d0             	mov    %dx,%ax
    824c:	66 ba 00 8f          	mov    $0x8f00,%dx
    8250:	89 01                	mov    %eax,(%ecx)
    8252:	89 13                	mov    %edx,(%ebx)
	outb_p(inb_p(0x21)&0xfb, 0x21);								// 允许8259A主芯片的IRQ2中断请求(连接从芯片)
    8254:	b8 21 00 00 00       	mov    $0x21,%eax
    8259:	89 c2                	mov    %eax,%edx
    825b:	ec                   	in     (%dx),%al
    825c:	eb 00                	jmp    825e <trap_init+0x2a2>
    825e:	eb 00                	jmp    8260 <trap_init+0x2a4>
    8260:	88 44 24 0b          	mov    %al,0xb(%esp)
    8264:	0f b6 44 24 0b       	movzbl 0xb(%esp),%eax
    8269:	0f b6 c0             	movzbl %al,%eax
    826c:	25 fb 00 00 00       	and    $0xfb,%eax
    8271:	ba 21 00 00 00       	mov    $0x21,%edx
    8276:	ee                   	out    %al,(%dx)
    8277:	eb 00                	jmp    8279 <trap_init+0x2bd>
    8279:	eb 00                	jmp    827b <trap_init+0x2bf>
	outb(inb_p(0xA1)&0xdf, 0xA1);								// 允许8259A从芯片的IRQ13中断请求(协处理器中断)
    827b:	b8 a1 00 00 00       	mov    $0xa1,%eax
    8280:	89 c2                	mov    %eax,%edx
    8282:	ec                   	in     (%dx),%al
    8283:	eb 00                	jmp    8285 <trap_init+0x2c9>
    8285:	eb 00                	jmp    8287 <trap_init+0x2cb>
    8287:	88 44 24 0a          	mov    %al,0xa(%esp)
    828b:	0f b6 44 24 0a       	movzbl 0xa(%esp),%eax
    8290:	0f b6 c0             	movzbl %al,%eax
    8293:	25 df 00 00 00       	and    $0xdf,%eax
    8298:	ba a1 00 00 00       	mov    $0xa1,%edx
    829d:	ee                   	out    %al,(%dx)
	set_trap_gate(39, &parallel_interrupt);						// 设置并行口1的中断0x27陷阱门描述符.
    829e:	b9 f0 55 00 00       	mov    $0x55f0,%ecx
    82a3:	bb f4 55 00 00       	mov    $0x55f4,%ebx
    82a8:	ba f8 7a 00 00       	mov    $0x7af8,%edx
    82ad:	b8 00 00 08 00       	mov    $0x80000,%eax
    82b2:	66 89 d0             	mov    %dx,%ax
    82b5:	66 ba 00 8f          	mov    $0x8f00,%dx
    82b9:	89 01                	mov    %eax,(%ecx)
    82bb:	89 13                	mov    %edx,(%ebx)
}
    82bd:	90                   	nop
    82be:	83 c4 10             	add    $0x10,%esp
    82c1:	5b                   	pop    %ebx
    82c2:	c3                   	ret    

000082c3 <divide_error>:
    82c3:	68 6d 7d 00 00       	push   $0x7d6d

000082c8 <no_error_code>:
    82c8:	87 04 24             	xchg   %eax,(%esp)
    82cb:	53                   	push   %ebx
    82cc:	51                   	push   %ecx
    82cd:	52                   	push   %edx
    82ce:	57                   	push   %edi
    82cf:	56                   	push   %esi
    82d0:	55                   	push   %ebp
    82d1:	1e                   	push   %ds
    82d2:	06                   	push   %es
    82d3:	0f a0                	push   %fs
    82d5:	6a 00                	push   $0x0
    82d7:	8d 54 24 2c          	lea    0x2c(%esp),%edx
    82db:	52                   	push   %edx
    82dc:	ba 10 00 00 00       	mov    $0x10,%edx
    82e1:	8e da                	mov    %edx,%ds
    82e3:	8e c2                	mov    %edx,%es
    82e5:	8e e2                	mov    %edx,%fs
    82e7:	ff d0                	call   *%eax
    82e9:	83 c4 08             	add    $0x8,%esp
    82ec:	0f a1                	pop    %fs
    82ee:	07                   	pop    %es
    82ef:	1f                   	pop    %ds
    82f0:	5d                   	pop    %ebp
    82f1:	5e                   	pop    %esi
    82f2:	5f                   	pop    %edi
    82f3:	5a                   	pop    %edx
    82f4:	59                   	pop    %ecx
    82f5:	5b                   	pop    %ebx
    82f6:	58                   	pop    %eax
    82f7:	cf                   	iret   

000082f8 <debug>:
    82f8:	68 8d 7d 00 00       	push   $0x7d8d
    82fd:	eb c9                	jmp    82c8 <no_error_code>

000082ff <nmi>:
    82ff:	68 2b 7e 00 00       	push   $0x7e2b
    8304:	eb c2                	jmp    82c8 <no_error_code>

00008306 <int3>:
    8306:	68 8d 7d 00 00       	push   $0x7d8d
    830b:	eb bb                	jmp    82c8 <no_error_code>

0000830d <overflow>:
    830d:	68 6b 7e 00 00       	push   $0x7e6b
    8312:	eb b4                	jmp    82c8 <no_error_code>

00008314 <bounds>:
    8314:	68 8b 7e 00 00       	push   $0x7e8b
    8319:	eb ad                	jmp    82c8 <no_error_code>

0000831b <invalid_op>:
    831b:	68 ab 7e 00 00       	push   $0x7eab
    8320:	eb a6                	jmp    82c8 <no_error_code>

00008322 <coprocessor_segment_overrun>:
    8322:	68 eb 7e 00 00       	push   $0x7eeb
    8327:	eb 9f                	jmp    82c8 <no_error_code>

00008329 <reserved>:
    8329:	68 9c 7f 00 00       	push   $0x7f9c
    832e:	eb 98                	jmp    82c8 <no_error_code>

00008330 <irq13>:
    8330:	50                   	push   %eax
    8331:	30 c0                	xor    %al,%al
    8333:	e6 f0                	out    %al,$0xf0
    8335:	b0 20                	mov    $0x20,%al
    8337:	e6 20                	out    %al,$0x20
    8339:	eb 00                	jmp    833b <irq13+0xb>
    833b:	eb 00                	jmp    833d <irq13+0xd>
    833d:	e6 a0                	out    %al,$0xa0
    833f:	58                   	pop    %eax
    8340:	e9 73 f6 ff ff       	jmp    79b8 <coprocessor_error>

00008345 <double_fault>:
    8345:	68 0d 7d 00 00       	push   $0x7d0d

0000834a <error_code>:
    834a:	87 44 24 04          	xchg   %eax,0x4(%esp)
    834e:	87 1c 24             	xchg   %ebx,(%esp)
    8351:	51                   	push   %ecx
    8352:	52                   	push   %edx
    8353:	57                   	push   %edi
    8354:	56                   	push   %esi
    8355:	55                   	push   %ebp
    8356:	1e                   	push   %ds
    8357:	06                   	push   %es
    8358:	0f a0                	push   %fs
    835a:	50                   	push   %eax
    835b:	8d 44 24 2c          	lea    0x2c(%esp),%eax
    835f:	50                   	push   %eax
    8360:	b8 10 00 00 00       	mov    $0x10,%eax
    8365:	8e d8                	mov    %eax,%ds
    8367:	8e c0                	mov    %eax,%es
    8369:	8e e0                	mov    %eax,%fs
    836b:	ff d3                	call   *%ebx
    836d:	83 c4 08             	add    $0x8,%esp
    8370:	0f a1                	pop    %fs
    8372:	07                   	pop    %es
    8373:	1f                   	pop    %ds
    8374:	5d                   	pop    %ebp
    8375:	5e                   	pop    %esi
    8376:	5f                   	pop    %edi
    8377:	5a                   	pop    %edx
    8378:	59                   	pop    %ecx
    8379:	5b                   	pop    %ebx
    837a:	58                   	pop    %eax
    837b:	cf                   	iret   

0000837c <invalid_TSS>:
    837c:	68 0b 7f 00 00       	push   $0x7f0b
    8381:	eb c7                	jmp    834a <error_code>

00008383 <segment_not_present>:
    8383:	68 2b 7f 00 00       	push   $0x7f2b
    8388:	eb c0                	jmp    834a <error_code>

0000838a <stack_segment>:
    838a:	68 4b 7f 00 00       	push   $0x7f4b
    838f:	eb b9                	jmp    834a <error_code>

00008391 <general_protection>:
    8391:	68 2d 7d 00 00       	push   $0x7d2d
    8396:	eb b2                	jmp    834a <error_code>

00008398 <alignment_check>:
    8398:	68 4d 7d 00 00       	push   $0x7d4d
    839d:	eb ab                	jmp    834a <error_code>

0000839f <verify_area>:
// 可以通过设置该标志来达到使用本函数同样的目的.该函数对当前进程逻辑地址从addr到addr + size这一段范围以页为单位执行写操作前
// 的检测操作.由于检测判断是以页面为单位进行操作,因此程序首先需要找出addr所在页面开始地址start,然后start加上进程数据段基址,
// 使这个start变换成CPU 4GB线性空间中的地址.最后循环调用write_verify()对指定大小的内存空间进行写前验证.若页面是只读的,
// 则执行共享检验和复制页面操作(写时复制).
void verify_area(void * addr, int size)
{
    839f:	53                   	push   %ebx
    83a0:	83 ec 18             	sub    $0x18,%esp
	unsigned long start;

	// 首先将起始地址start调整为其所在页的左边界开始位置,同时相应地调整验证区域大小.下句中的start & 0xfff用来获得指定起始位置addr
	// (也即start)在所在页面中的偏移值,原验证范围size加上这个偏移值即扩展成以addr所在页面起始位置开始的范围值.因此在30行上也需要
	// 把验证开始位置start调整成页面边界值.
	start = (unsigned long) addr;
    83a3:	8b 44 24 20          	mov    0x20(%esp),%eax
    83a7:	89 44 24 0c          	mov    %eax,0xc(%esp)
	size += start & 0xfff;
    83ab:	8b 44 24 0c          	mov    0xc(%esp),%eax
    83af:	25 ff 0f 00 00       	and    $0xfff,%eax
    83b4:	89 c2                	mov    %eax,%edx
    83b6:	8b 44 24 24          	mov    0x24(%esp),%eax
    83ba:	01 d0                	add    %edx,%eax
    83bc:	89 44 24 24          	mov    %eax,0x24(%esp)
	start &= 0xfffff000;					// 此时start是当前进程空间中的逻辑地址.
    83c0:	81 64 24 0c 00 f0 ff 	andl   $0xfffff000,0xc(%esp)
    83c7:	ff 
	// 下面把start加上进程数据段在线性地址空间中的起始基址,变成系统整个线性空间中的地址位置.对于Linux0.1x内核,其数据段和代码段在
	// 线性地址空间中的基址和限长均相同.然后循环进行写页面验证.若页面不可写,则复制页面.(mm/memory.c)
	start += get_base(current->ldt[2]);
    83c8:	a1 a0 f1 02 00       	mov    0x2f1a0,%eax
    83cd:	05 a8 03 00 00       	add    $0x3a8,%eax
    83d2:	83 c0 02             	add    $0x2,%eax
    83d5:	8b 15 a0 f1 02 00    	mov    0x2f1a0,%edx
    83db:	81 c2 a8 03 00 00    	add    $0x3a8,%edx
    83e1:	8d 5a 04             	lea    0x4(%edx),%ebx
    83e4:	8b 0d a0 f1 02 00    	mov    0x2f1a0,%ecx
    83ea:	81 c1 a8 03 00 00    	add    $0x3a8,%ecx
    83f0:	83 c1 07             	add    $0x7,%ecx
    83f3:	8a 31                	mov    (%ecx),%dh
    83f5:	8a 13                	mov    (%ebx),%dl
    83f7:	c1 e2 10             	shl    $0x10,%edx
    83fa:	66 8b 10             	mov    (%eax),%dx
    83fd:	89 d0                	mov    %edx,%eax
    83ff:	89 44 24 08          	mov    %eax,0x8(%esp)
    8403:	8b 44 24 08          	mov    0x8(%esp),%eax
    8407:	01 44 24 0c          	add    %eax,0xc(%esp)
	while (size > 0) {
    840b:	eb 1f                	jmp    842c <verify_area+0x8d>
		size -= 4096;
    840d:	81 6c 24 24 00 10 00 	subl   $0x1000,0x24(%esp)
    8414:	00 
		write_verify(start);				// include/linux/sched.h
    8415:	83 ec 0c             	sub    $0xc,%esp
    8418:	ff 74 24 18          	pushl  0x18(%esp)
    841c:	e8 64 3f 00 00       	call   c385 <write_verify>
    8421:	83 c4 10             	add    $0x10,%esp
		start += 4096;
    8424:	81 44 24 0c 00 10 00 	addl   $0x1000,0xc(%esp)
    842b:	00 
	while (size > 0) {
    842c:	83 7c 24 24 00       	cmpl   $0x0,0x24(%esp)
    8431:	7f da                	jg     840d <verify_area+0x6e>
	}
}
    8433:	90                   	nop
    8434:	83 c4 18             	add    $0x18,%esp
    8437:	5b                   	pop    %ebx
    8438:	c3                   	ret    

00008439 <copy_mem>:
// 复制内存页表.
// 参数nr是新任务号;p是新任务数据结构指针.该函数为新任务在线性地址空间中设置代码段和数据段基址,限长,并复制页表.由于Linux系统采用写时
// 复制(copy on write)技术,因此这里仅为新进程设置自己的页目录表项和页表项,而没有实际为新进程分配物理内存页面.此时新进程与其父进程
// 共享所有内存页面.操作成功返回0,否则返回出错号.
int copy_mem(int nr, struct task_struct * p)
{
    8439:	56                   	push   %esi
    843a:	53                   	push   %ebx
    843b:	83 ec 34             	sub    $0x34,%esp

	// 首先取当前进程局部描述符表中代码段描述符和数据段描述符项中的段限长(字节数).
	// 0x0f是代码段选择符;0x17是数据段选择符.然后取当前进程代码段和数据段的线性地址空间中的基地址.由于Linux0.12内核还不支持代码和数据段分立的情况,
	// 因此这里需要检查代码段和数据段基址是否都相同,并且要求数据段的长度至少不小于代码段的长度,否则内核显示出错信息,并停止运行.
	// get_limit()和get_base()定义在include/linux/sched.h.
	code_limit = get_limit(0x0f);
    843e:	b8 0f 00 00 00       	mov    $0xf,%eax
    8443:	0f 03 c0             	lsl    %ax,%eax
    8446:	40                   	inc    %eax
    8447:	89 44 24 2c          	mov    %eax,0x2c(%esp)
    844b:	8b 44 24 2c          	mov    0x2c(%esp),%eax
    844f:	89 44 24 28          	mov    %eax,0x28(%esp)
	data_limit = get_limit(0x17);
    8453:	b8 17 00 00 00       	mov    $0x17,%eax
    8458:	0f 03 c0             	lsl    %ax,%eax
    845b:	40                   	inc    %eax
    845c:	89 44 24 24          	mov    %eax,0x24(%esp)
    8460:	8b 44 24 24          	mov    0x24(%esp),%eax
    8464:	89 44 24 20          	mov    %eax,0x20(%esp)
	old_code_base = get_base(current->ldt[1]);
    8468:	a1 a0 f1 02 00       	mov    0x2f1a0,%eax
    846d:	05 a0 03 00 00       	add    $0x3a0,%eax
    8472:	83 c0 02             	add    $0x2,%eax
    8475:	8b 15 a0 f1 02 00    	mov    0x2f1a0,%edx
    847b:	81 c2 a0 03 00 00    	add    $0x3a0,%edx
    8481:	8d 5a 04             	lea    0x4(%edx),%ebx
    8484:	8b 0d a0 f1 02 00    	mov    0x2f1a0,%ecx
    848a:	81 c1 a0 03 00 00    	add    $0x3a0,%ecx
    8490:	83 c1 07             	add    $0x7,%ecx
    8493:	8a 31                	mov    (%ecx),%dh
    8495:	8a 13                	mov    (%ebx),%dl
    8497:	c1 e2 10             	shl    $0x10,%edx
    849a:	66 8b 10             	mov    (%eax),%dx
    849d:	89 d0                	mov    %edx,%eax
    849f:	89 44 24 1c          	mov    %eax,0x1c(%esp)
    84a3:	8b 44 24 1c          	mov    0x1c(%esp),%eax
    84a7:	89 44 24 18          	mov    %eax,0x18(%esp)
	old_data_base = get_base(current->ldt[2]);
    84ab:	a1 a0 f1 02 00       	mov    0x2f1a0,%eax
    84b0:	05 a8 03 00 00       	add    $0x3a8,%eax
    84b5:	83 c0 02             	add    $0x2,%eax
    84b8:	8b 15 a0 f1 02 00    	mov    0x2f1a0,%edx
    84be:	81 c2 a8 03 00 00    	add    $0x3a8,%edx
    84c4:	8d 72 04             	lea    0x4(%edx),%esi
    84c7:	8b 0d a0 f1 02 00    	mov    0x2f1a0,%ecx
    84cd:	81 c1 a8 03 00 00    	add    $0x3a8,%ecx
    84d3:	83 c1 07             	add    $0x7,%ecx
    84d6:	8a 31                	mov    (%ecx),%dh
    84d8:	8a 16                	mov    (%esi),%dl
    84da:	c1 e2 10             	shl    $0x10,%edx
    84dd:	66 8b 10             	mov    (%eax),%dx
    84e0:	89 d0                	mov    %edx,%eax
    84e2:	89 44 24 14          	mov    %eax,0x14(%esp)
    84e6:	8b 44 24 14          	mov    0x14(%esp),%eax
    84ea:	89 44 24 10          	mov    %eax,0x10(%esp)
	if (old_data_base != old_code_base)
    84ee:	8b 44 24 10          	mov    0x10(%esp),%eax
    84f2:	3b 44 24 18          	cmp    0x18(%esp),%eax
    84f6:	74 10                	je     8508 <copy_mem+0xcf>
		panic("We don't support separate I&D");
    84f8:	83 ec 0c             	sub    $0xc,%esp
    84fb:	68 04 2e 02 00       	push   $0x22e04
    8500:	e8 02 07 00 00       	call   8c07 <panic>
    8505:	83 c4 10             	add    $0x10,%esp
	if (data_limit < code_limit)
    8508:	8b 44 24 20          	mov    0x20(%esp),%eax
    850c:	3b 44 24 28          	cmp    0x28(%esp),%eax
    8510:	73 10                	jae    8522 <copy_mem+0xe9>
		panic("Bad data_limit");
    8512:	83 ec 0c             	sub    $0xc,%esp
    8515:	68 22 2e 02 00       	push   $0x22e22
    851a:	e8 e8 06 00 00       	call   8c07 <panic>
    851f:	83 c4 10             	add    $0x10,%esp
	// 然后设置创建中的新进程在线性地址空间中的基地址等于(64MB*其任务号),并用该值设置新进程局部描述符表中段描述符中的基地址.接着设置新进程的页目录
	// 表项和页表项,即复制当前进程(父进程)的页目录表项和页表项.此时子进程共享父进程的内存页面.
	// 正常情况下copy_page_tables()返回0,否则表示出错,则释放刚申请的页表项.
	new_data_base = new_code_base = nr * TASK_SIZE;
    8522:	8b 44 24 40          	mov    0x40(%esp),%eax
    8526:	c1 e0 1a             	shl    $0x1a,%eax
    8529:	89 44 24 0c          	mov    %eax,0xc(%esp)
    852d:	8b 44 24 0c          	mov    0xc(%esp),%eax
    8531:	89 44 24 08          	mov    %eax,0x8(%esp)
	p->start_code = new_code_base;
    8535:	8b 44 24 44          	mov    0x44(%esp),%eax
    8539:	8b 54 24 0c          	mov    0xc(%esp),%edx
    853d:	89 90 18 02 00 00    	mov    %edx,0x218(%eax)
	set_base(p->ldt[1], new_code_base);
    8543:	8b 44 24 44          	mov    0x44(%esp),%eax
    8547:	05 a0 03 00 00       	add    $0x3a0,%eax
    854c:	8d 48 02             	lea    0x2(%eax),%ecx
    854f:	8b 44 24 44          	mov    0x44(%esp),%eax
    8553:	05 a0 03 00 00       	add    $0x3a0,%eax
    8558:	8d 58 04             	lea    0x4(%eax),%ebx
    855b:	8b 44 24 44          	mov    0x44(%esp),%eax
    855f:	05 a0 03 00 00       	add    $0x3a0,%eax
    8564:	8d 70 07             	lea    0x7(%eax),%esi
    8567:	8b 44 24 0c          	mov    0xc(%esp),%eax
    856b:	89 c2                	mov    %eax,%edx
    856d:	66 89 11             	mov    %dx,(%ecx)
    8570:	c1 ca 10             	ror    $0x10,%edx
    8573:	88 13                	mov    %dl,(%ebx)
    8575:	88 36                	mov    %dh,(%esi)
    8577:	89 d0                	mov    %edx,%eax
    8579:	89 44 24 04          	mov    %eax,0x4(%esp)
	set_base(p->ldt[2], new_data_base);
    857d:	8b 44 24 44          	mov    0x44(%esp),%eax
    8581:	05 a8 03 00 00       	add    $0x3a8,%eax
    8586:	8d 48 02             	lea    0x2(%eax),%ecx
    8589:	8b 44 24 44          	mov    0x44(%esp),%eax
    858d:	05 a8 03 00 00       	add    $0x3a8,%eax
    8592:	8d 58 04             	lea    0x4(%eax),%ebx
    8595:	8b 44 24 44          	mov    0x44(%esp),%eax
    8599:	05 a8 03 00 00       	add    $0x3a8,%eax
    859e:	8d 70 07             	lea    0x7(%eax),%esi
    85a1:	8b 44 24 08          	mov    0x8(%esp),%eax
    85a5:	89 c2                	mov    %eax,%edx
    85a7:	66 89 11             	mov    %dx,(%ecx)
    85aa:	c1 ca 10             	ror    $0x10,%edx
    85ad:	88 13                	mov    %dl,(%ebx)
    85af:	88 36                	mov    %dh,(%esi)
    85b1:	89 d0                	mov    %edx,%eax
    85b3:	89 04 24             	mov    %eax,(%esp)
	if (copy_page_tables(old_data_base, new_data_base, data_limit)) {
    85b6:	8b 44 24 20          	mov    0x20(%esp),%eax
    85ba:	83 ec 04             	sub    $0x4,%esp
    85bd:	50                   	push   %eax
    85be:	ff 74 24 10          	pushl  0x10(%esp)
    85c2:	ff 74 24 1c          	pushl  0x1c(%esp)
    85c6:	e8 b6 38 00 00       	call   be81 <copy_page_tables>
    85cb:	83 c4 10             	add    $0x10,%esp
    85ce:	85 c0                	test   %eax,%eax
    85d0:	74 1a                	je     85ec <copy_mem+0x1b3>
		free_page_tables(new_data_base, data_limit);
    85d2:	83 ec 08             	sub    $0x8,%esp
    85d5:	ff 74 24 28          	pushl  0x28(%esp)
    85d9:	ff 74 24 14          	pushl  0x14(%esp)
    85dd:	e8 6a 37 00 00       	call   bd4c <free_page_tables>
    85e2:	83 c4 10             	add    $0x10,%esp
		return -ENOMEM;
    85e5:	b8 f4 ff ff ff       	mov    $0xfffffff4,%eax
    85ea:	eb 05                	jmp    85f1 <copy_mem+0x1b8>
	}
	return 0;
    85ec:	b8 00 00 00 00       	mov    $0x0,%eax
}
    85f1:	83 c4 34             	add    $0x34,%esp
    85f4:	5b                   	pop    %ebx
    85f5:	5e                   	pop    %esi
    85f6:	c3                   	ret    

000085f7 <copy_process>:
// 其中参数nr是调用find_empty_process()分配的任务数组项号.
int copy_process(int nr, long ebp, long edi, long esi, long gs, long none,
		long ebx, long ecx, long edx, long orig_eax,
		long fs, long es, long ds,
		long eip, long cs, long eflags, long esp, long ss)
{
    85f7:	55                   	push   %ebp
    85f8:	57                   	push   %edi
    85f9:	56                   	push   %esi
    85fa:	53                   	push   %ebx
    85fb:	83 ec 1c             	sub    $0x1c,%esp
	int i;
	struct file *f;

	// 首先为新任务数据结构分配内存.如果内存分配出错,则返回出错码并退出.然后将新任务结构指针放入任务数组的nr项中.其中nr为任务号,由前面
	// find_empty_process()返回.接着把当前进程任务结构复制到刚申请到的内存页面p开始处.
	p = (struct task_struct *) get_free_page();
    85fe:	e8 5e 4a 00 00       	call   d061 <get_free_page>
    8603:	89 44 24 08          	mov    %eax,0x8(%esp)
	if (!p)
    8607:	83 7c 24 08 00       	cmpl   $0x0,0x8(%esp)
    860c:	75 0a                	jne    8618 <copy_process+0x21>
		return -EAGAIN;
    860e:	b8 f5 ff ff ff       	mov    $0xfffffff5,%eax
    8613:	e9 34 05 00 00       	jmp    8b4c <copy_process+0x555>
	task[nr] = p;
    8618:	8b 44 24 30          	mov    0x30(%esp),%eax
    861c:	8b 54 24 08          	mov    0x8(%esp),%edx
    8620:	89 14 85 c0 f1 02 00 	mov    %edx,0x2f1c0(,%eax,4)
	*p = *current;							/* NOTE! this doesn't copy the supervisor stack */	/* 注意!这样不会复制超级用户堆栈(只复制进程结构) */
    8627:	a1 a0 f1 02 00       	mov    0x2f1a0,%eax
    862c:	8b 54 24 08          	mov    0x8(%esp),%edx
    8630:	89 c3                	mov    %eax,%ebx
    8632:	b8 21 01 00 00       	mov    $0x121,%eax
    8637:	89 d7                	mov    %edx,%edi
    8639:	89 de                	mov    %ebx,%esi
    863b:	89 c1                	mov    %eax,%ecx
    863d:	f3 a5                	rep movsl %ds:(%esi),%es:(%edi)
	//	memcpy(p, current, sizeof(struct task_struct));
	// 随后对复制来的进程结构内容进行一些修改,作为新进程的任务结构.先将新进程的状态置为不可中断等待状态,以防止内核调试其执行.然后设置新进程
	// 的进程号pid,并初始化进程运行时间片值等于其priorty值(一般为16个嘀嗒).接着复位新进程的信号位图,报警定时值,会话(session)领导标志
	// leader,进程及其子进程在内核和用户态运行时间统计值,还设置进程开始运行的系统时间start_time.
	p->state = TASK_UNINTERRUPTIBLE;
    863f:	8b 44 24 08          	mov    0x8(%esp),%eax
    8643:	c7 00 02 00 00 00    	movl   $0x2,(%eax)
	p->pid = last_pid;						// 新进程号.也由find_empty_process()得到.
    8649:	8b 15 48 fe 02 00    	mov    0x2fe48,%edx
    864f:	8b 44 24 08          	mov    0x8(%esp),%eax
    8653:	89 90 2c 02 00 00    	mov    %edx,0x22c(%eax)
	p->counter = p->priority;				// 运行时间片值(嘀嗒数).
    8659:	8b 44 24 08          	mov    0x8(%esp),%eax
    865d:	8b 50 08             	mov    0x8(%eax),%edx
    8660:	8b 44 24 08          	mov    0x8(%esp),%eax
    8664:	89 50 04             	mov    %edx,0x4(%eax)
	p->signal = 0;							// 信号位图.
    8667:	8b 44 24 08          	mov    0x8(%esp),%eax
    866b:	c7 40 0c 00 00 00 00 	movl   $0x0,0xc(%eax)
	p->alarm = 0;							// 报警定时值(嘀嗒数).
    8672:	8b 44 24 08          	mov    0x8(%esp),%eax
    8676:	c7 80 dc 02 00 00 00 	movl   $0x0,0x2dc(%eax)
    867d:	00 00 00 
	p->leader = 0;							/* process leadership doesn't inherit */	/* 进程的领导权是不能继承的 */
    8680:	8b 44 24 08          	mov    0x8(%esp),%eax
    8684:	c7 80 38 02 00 00 00 	movl   $0x0,0x238(%eax)
    868b:	00 00 00 
	p->utime = p->stime = 0;				// 用户态时间和核心态运行时间.
    868e:	8b 44 24 08          	mov    0x8(%esp),%eax
    8692:	c7 80 e4 02 00 00 00 	movl   $0x0,0x2e4(%eax)
    8699:	00 00 00 
    869c:	8b 44 24 08          	mov    0x8(%esp),%eax
    86a0:	8b 90 e4 02 00 00    	mov    0x2e4(%eax),%edx
    86a6:	8b 44 24 08          	mov    0x8(%esp),%eax
    86aa:	89 90 e0 02 00 00    	mov    %edx,0x2e0(%eax)
	p->cutime = p->cstime = 0;				// 子进程用户态和核心态运行时间.
    86b0:	8b 44 24 08          	mov    0x8(%esp),%eax
    86b4:	c7 80 ec 02 00 00 00 	movl   $0x0,0x2ec(%eax)
    86bb:	00 00 00 
    86be:	8b 44 24 08          	mov    0x8(%esp),%eax
    86c2:	8b 90 ec 02 00 00    	mov    0x2ec(%eax),%edx
    86c8:	8b 44 24 08          	mov    0x8(%esp),%eax
    86cc:	89 90 e8 02 00 00    	mov    %edx,0x2e8(%eax)
	p->start_time = jiffies;				// 进程开始运行时间(当前时间滴答数).
    86d2:	a1 00 fb 02 00       	mov    0x2fb00,%eax
    86d7:	89 c2                	mov    %eax,%edx
    86d9:	8b 44 24 08          	mov    0x8(%esp),%eax
    86dd:	89 90 f0 02 00 00    	mov    %edx,0x2f0(%eax)
	// 再修改任务状态段TSS数据.由于系统给任务结构p分配了1页新内存,所以(PAGE_SIZE + (long) p)让esp0正好指向该页顶端.ss0:esp0用作程序在内核
	// 态执行时的栈.另外,在第3章中我们已经知道,每个任务在GDT表中都有两个段描述符,一个是任务的TSS段描述符,另一个是任务的LDT表段描述符.下面语句就是
	// 把GDT中本任务LDT段描述符的选择符保存在本任务的TSS段.当CPU执行切换任务时,会自动从TSS中把LDT段描述符的选择符加载到ldtr寄存器中.
	p->tss.back_link = 0;
    86e3:	8b 44 24 08          	mov    0x8(%esp),%eax
    86e7:	c7 80 b0 03 00 00 00 	movl   $0x0,0x3b0(%eax)
    86ee:	00 00 00 
	p->tss.esp0 = PAGE_SIZE + (long) p;		// 任务内核态栈指针.
    86f1:	8b 44 24 08          	mov    0x8(%esp),%eax
    86f5:	8d 90 00 10 00 00    	lea    0x1000(%eax),%edx
    86fb:	8b 44 24 08          	mov    0x8(%esp),%eax
    86ff:	89 90 b4 03 00 00    	mov    %edx,0x3b4(%eax)
	p->tss.ss0 = 0x10;              		// 内核态栈的段选择符(与内核数据段相同).
    8705:	8b 44 24 08          	mov    0x8(%esp),%eax
    8709:	c7 80 b8 03 00 00 10 	movl   $0x10,0x3b8(%eax)
    8710:	00 00 00 
	p->tss.eip = eip;						// 指令代码指针.
    8713:	8b 44 24 08          	mov    0x8(%esp),%eax
    8717:	8b 54 24 64          	mov    0x64(%esp),%edx
    871b:	89 90 d0 03 00 00    	mov    %edx,0x3d0(%eax)
	p->tss.eflags = eflags;					// 标志寄存器.
    8721:	8b 44 24 08          	mov    0x8(%esp),%eax
    8725:	8b 54 24 6c          	mov    0x6c(%esp),%edx
    8729:	89 90 d4 03 00 00    	mov    %edx,0x3d4(%eax)
	p->tss.eax = 0;							// 这是当fork()返回时新进程会返回0的原因所在.
    872f:	8b 44 24 08          	mov    0x8(%esp),%eax
    8733:	c7 80 d8 03 00 00 00 	movl   $0x0,0x3d8(%eax)
    873a:	00 00 00 
	p->tss.ecx = ecx;
    873d:	8b 44 24 08          	mov    0x8(%esp),%eax
    8741:	8b 54 24 4c          	mov    0x4c(%esp),%edx
    8745:	89 90 dc 03 00 00    	mov    %edx,0x3dc(%eax)
	p->tss.edx = edx;
    874b:	8b 44 24 08          	mov    0x8(%esp),%eax
    874f:	8b 54 24 50          	mov    0x50(%esp),%edx
    8753:	89 90 e0 03 00 00    	mov    %edx,0x3e0(%eax)
	p->tss.ebx = ebx;
    8759:	8b 44 24 08          	mov    0x8(%esp),%eax
    875d:	8b 54 24 48          	mov    0x48(%esp),%edx
    8761:	89 90 e4 03 00 00    	mov    %edx,0x3e4(%eax)
	p->tss.esp = esp;
    8767:	8b 44 24 08          	mov    0x8(%esp),%eax
    876b:	8b 54 24 70          	mov    0x70(%esp),%edx
    876f:	89 90 e8 03 00 00    	mov    %edx,0x3e8(%eax)
	p->tss.ebp = ebp;
    8775:	8b 44 24 08          	mov    0x8(%esp),%eax
    8779:	8b 54 24 34          	mov    0x34(%esp),%edx
    877d:	89 90 ec 03 00 00    	mov    %edx,0x3ec(%eax)
	p->tss.esi = esi;
    8783:	8b 44 24 08          	mov    0x8(%esp),%eax
    8787:	8b 54 24 3c          	mov    0x3c(%esp),%edx
    878b:	89 90 f0 03 00 00    	mov    %edx,0x3f0(%eax)
	p->tss.edi = edi;
    8791:	8b 44 24 08          	mov    0x8(%esp),%eax
    8795:	8b 54 24 38          	mov    0x38(%esp),%edx
    8799:	89 90 f4 03 00 00    	mov    %edx,0x3f4(%eax)
	p->tss.es = es & 0xffff;				// 段寄存器仅16位有效.
    879f:	8b 44 24 5c          	mov    0x5c(%esp),%eax
    87a3:	0f b7 d0             	movzwl %ax,%edx
    87a6:	8b 44 24 08          	mov    0x8(%esp),%eax
    87aa:	89 90 f8 03 00 00    	mov    %edx,0x3f8(%eax)
	p->tss.cs = cs & 0xffff;
    87b0:	8b 44 24 68          	mov    0x68(%esp),%eax
    87b4:	0f b7 d0             	movzwl %ax,%edx
    87b7:	8b 44 24 08          	mov    0x8(%esp),%eax
    87bb:	89 90 fc 03 00 00    	mov    %edx,0x3fc(%eax)
	p->tss.ss = ss & 0xffff;
    87c1:	8b 44 24 74          	mov    0x74(%esp),%eax
    87c5:	0f b7 d0             	movzwl %ax,%edx
    87c8:	8b 44 24 08          	mov    0x8(%esp),%eax
    87cc:	89 90 00 04 00 00    	mov    %edx,0x400(%eax)
	p->tss.ds = ds & 0xffff;
    87d2:	8b 44 24 60          	mov    0x60(%esp),%eax
    87d6:	0f b7 d0             	movzwl %ax,%edx
    87d9:	8b 44 24 08          	mov    0x8(%esp),%eax
    87dd:	89 90 04 04 00 00    	mov    %edx,0x404(%eax)
	p->tss.fs = fs & 0xffff;
    87e3:	8b 44 24 58          	mov    0x58(%esp),%eax
    87e7:	0f b7 d0             	movzwl %ax,%edx
    87ea:	8b 44 24 08          	mov    0x8(%esp),%eax
    87ee:	89 90 08 04 00 00    	mov    %edx,0x408(%eax)
	p->tss.gs = gs & 0xffff;
    87f4:	8b 44 24 40          	mov    0x40(%esp),%eax
    87f8:	0f b7 d0             	movzwl %ax,%edx
    87fb:	8b 44 24 08          	mov    0x8(%esp),%eax
    87ff:	89 90 0c 04 00 00    	mov    %edx,0x40c(%eax)
	p->tss.ldt = _LDT(nr);					// 任务局部表描述符的选择符(LDT描述符在GET中).
    8805:	8b 44 24 30          	mov    0x30(%esp),%eax
    8809:	c1 e0 04             	shl    $0x4,%eax
    880c:	83 c0 28             	add    $0x28,%eax
    880f:	89 c2                	mov    %eax,%edx
    8811:	8b 44 24 08          	mov    0x8(%esp),%eax
    8815:	89 90 10 04 00 00    	mov    %edx,0x410(%eax)
	p->tss.trace_bitmap = 0x80000000;		// (高16位有效).
    881b:	8b 44 24 08          	mov    0x8(%esp),%eax
    881f:	c7 80 14 04 00 00 00 	movl   $0x80000000,0x414(%eax)
    8826:	00 00 80 
	// 如果当前任务使用了协处理器,就保存其上下文.汇编指令clts用于清除控制寄存器CR0中的任务已交换(TS)标志.每当发生任务切换,CPU都会设置该标志.该标志用于管理
	// 数学协处理器:如果该标志置位,那么每个ESC指令都会被捕获(异常7).如果协处理器存在标志MP也同时置位的话,那么WAIT指令也会捕获.因此,如果任务切换发生在一个
	// ESC指令开始执行之后,则协处理器中的内容就可能需要在执行新的ESC指令之前保存起来.捕获处理句柄会保存协处理器的内容并复位TS标志.指令fnsave用于把协处理器的
	// 所有状态保存到目的操作数指定的内存区域中(tss.i387).
	if (last_task_used_math == current)
    8829:	8b 15 0c fb 02 00    	mov    0x2fb0c,%edx
    882f:	a1 a0 f1 02 00       	mov    0x2f1a0,%eax
    8834:	39 c2                	cmp    %eax,%edx
    8836:	75 12                	jne    884a <copy_process+0x253>
		__asm__("clts ; fnsave %0 ; frstor %0"::"m" (p->tss.i387));
    8838:	8b 44 24 08          	mov    0x8(%esp),%eax
    883c:	0f 06                	clts   
    883e:	dd b0 18 04 00 00    	fnsave 0x418(%eax)
    8844:	dd a0 18 04 00 00    	frstor 0x418(%eax)
	// 接下来复制进程页表.即在线性地址空间设置新任务代码段和数据段描述符中的基址和限长,并复制页表.如果出错(返回值不是0),则复位任务数组中相应项并
	// 释放为该新任务分配的用于任务结构的内存页.
	if (copy_mem(nr, p)) {					// 返回不为0示出错.
    884a:	83 ec 08             	sub    $0x8,%esp
    884d:	ff 74 24 10          	pushl  0x10(%esp)
    8851:	ff 74 24 3c          	pushl  0x3c(%esp)
    8855:	e8 df fb ff ff       	call   8439 <copy_mem>
    885a:	83 c4 10             	add    $0x10,%esp
    885d:	85 c0                	test   %eax,%eax
    885f:	74 29                	je     888a <copy_process+0x293>
		task[nr] = NULL;
    8861:	8b 44 24 30          	mov    0x30(%esp),%eax
    8865:	c7 04 85 c0 f1 02 00 	movl   $0x0,0x2f1c0(,%eax,4)
    886c:	00 00 00 00 
		free_page((long) p);
    8870:	8b 44 24 08          	mov    0x8(%esp),%eax
    8874:	83 ec 0c             	sub    $0xc,%esp
    8877:	50                   	push   %eax
    8878:	e8 55 34 00 00       	call   bcd2 <free_page>
    887d:	83 c4 10             	add    $0x10,%esp
		return -EAGAIN;
    8880:	b8 f5 ff ff ff       	mov    $0xfffffff5,%eax
    8885:	e9 c2 02 00 00       	jmp    8b4c <copy_process+0x555>
	}
	// 如果父进程中有文件是打开的,则将对应文件的打开次数增1.因为这里创建的子进程会与父进程共享这些打开的文件.将当前进程(父进程)的pwd,root和
	// executable引用次数均增1.与上面同样的道理,子进程也引用了这些i节点.
	for (i = 0; i < NR_OPEN; i++)
    888a:	c7 44 24 0c 00 00 00 	movl   $0x0,0xc(%esp)
    8891:	00 
    8892:	eb 35                	jmp    88c9 <copy_process+0x2d2>
		if (f = p->filp[i])
    8894:	8b 44 24 08          	mov    0x8(%esp),%eax
    8898:	8b 54 24 0c          	mov    0xc(%esp),%edx
    889c:	81 c2 d0 00 00 00    	add    $0xd0,%edx
    88a2:	8b 44 90 08          	mov    0x8(%eax,%edx,4),%eax
    88a6:	89 44 24 04          	mov    %eax,0x4(%esp)
    88aa:	83 7c 24 04 00       	cmpl   $0x0,0x4(%esp)
    88af:	74 13                	je     88c4 <copy_process+0x2cd>
			f->f_count++;
    88b1:	8b 44 24 04          	mov    0x4(%esp),%eax
    88b5:	0f b7 40 04          	movzwl 0x4(%eax),%eax
    88b9:	8d 50 01             	lea    0x1(%eax),%edx
    88bc:	8b 44 24 04          	mov    0x4(%esp),%eax
    88c0:	66 89 50 04          	mov    %dx,0x4(%eax)
	for (i = 0; i < NR_OPEN; i++)
    88c4:	83 44 24 0c 01       	addl   $0x1,0xc(%esp)
    88c9:	83 7c 24 0c 13       	cmpl   $0x13,0xc(%esp)
    88ce:	7e c4                	jle    8894 <copy_process+0x29d>
	if (current->pwd)
    88d0:	a1 a0 f1 02 00       	mov    0x2f1a0,%eax
    88d5:	8b 80 34 03 00 00    	mov    0x334(%eax),%eax
    88db:	85 c0                	test   %eax,%eax
    88dd:	74 16                	je     88f5 <copy_process+0x2fe>
		current->pwd->i_count++;
    88df:	a1 a0 f1 02 00       	mov    0x2f1a0,%eax
    88e4:	8b 80 34 03 00 00    	mov    0x334(%eax),%eax
    88ea:	0f b7 50 34          	movzwl 0x34(%eax),%edx
    88ee:	83 c2 01             	add    $0x1,%edx
    88f1:	66 89 50 34          	mov    %dx,0x34(%eax)
	if (current->root)
    88f5:	a1 a0 f1 02 00       	mov    0x2f1a0,%eax
    88fa:	8b 80 38 03 00 00    	mov    0x338(%eax),%eax
    8900:	85 c0                	test   %eax,%eax
    8902:	74 16                	je     891a <copy_process+0x323>
		current->root->i_count++;
    8904:	a1 a0 f1 02 00       	mov    0x2f1a0,%eax
    8909:	8b 80 38 03 00 00    	mov    0x338(%eax),%eax
    890f:	0f b7 50 34          	movzwl 0x34(%eax),%edx
    8913:	83 c2 01             	add    $0x1,%edx
    8916:	66 89 50 34          	mov    %dx,0x34(%eax)
	if (current->executable)
    891a:	a1 a0 f1 02 00       	mov    0x2f1a0,%eax
    891f:	8b 80 3c 03 00 00    	mov    0x33c(%eax),%eax
    8925:	85 c0                	test   %eax,%eax
    8927:	74 16                	je     893f <copy_process+0x348>
		current->executable->i_count++;
    8929:	a1 a0 f1 02 00       	mov    0x2f1a0,%eax
    892e:	8b 80 3c 03 00 00    	mov    0x33c(%eax),%eax
    8934:	0f b7 50 34          	movzwl 0x34(%eax),%edx
    8938:	83 c2 01             	add    $0x1,%edx
    893b:	66 89 50 34          	mov    %dx,0x34(%eax)
	if (current->library)
    893f:	a1 a0 f1 02 00       	mov    0x2f1a0,%eax
    8944:	8b 80 40 03 00 00    	mov    0x340(%eax),%eax
    894a:	85 c0                	test   %eax,%eax
    894c:	74 16                	je     8964 <copy_process+0x36d>
		current->library->i_count++;
    894e:	a1 a0 f1 02 00       	mov    0x2f1a0,%eax
    8953:	8b 80 40 03 00 00    	mov    0x340(%eax),%eax
    8959:	0f b7 50 34          	movzwl 0x34(%eax),%edx
    895d:	83 c2 01             	add    $0x1,%edx
    8960:	66 89 50 34          	mov    %dx,0x34(%eax)
	// 设置等于父进程的最新子进程指针.若当前进程确实还有其他子进程,则让比邻老兄进程的最年轻进程指针p_yspter指向新进程.最后把当前进程的最新子进程指针指向这个新进程.
	// 然后把新进程设置成就绪态.最后返回新进程号.
	// 另外,set_tss_desc()和set_ldt_desc()定义在include/asm/system.h文件中."gdt+(nr<<1)+FIRST_TSS_ENTRY"是任务nr的TSS描述符项在全局表中的地址.
	// 因为每个任务占用GDT表中2项,因此上式中要包括'(nr<<1)'.
	// 请注意,在任务切换时,任务寄存器tr会由CPU自动加载.
	set_tss_desc(gdt + (nr << 1) + FIRST_TSS_ENTRY, &(p->tss));
    8964:	8b 44 24 08          	mov    0x8(%esp),%eax
    8968:	05 b0 03 00 00       	add    $0x3b0,%eax
    896d:	8b 54 24 30          	mov    0x30(%esp),%edx
    8971:	01 d2                	add    %edx,%edx
    8973:	83 c2 04             	add    $0x4,%edx
    8976:	c1 e2 03             	shl    $0x3,%edx
    8979:	81 c2 b8 5c 00 00    	add    $0x5cb8,%edx
    897f:	8b 4c 24 30          	mov    0x30(%esp),%ecx
    8983:	01 c9                	add    %ecx,%ecx
    8985:	83 c1 04             	add    $0x4,%ecx
    8988:	c1 e1 03             	shl    $0x3,%ecx
    898b:	83 c1 02             	add    $0x2,%ecx
    898e:	81 c1 b8 5c 00 00    	add    $0x5cb8,%ecx
    8994:	8b 5c 24 30          	mov    0x30(%esp),%ebx
    8998:	01 db                	add    %ebx,%ebx
    899a:	83 c3 04             	add    $0x4,%ebx
    899d:	c1 e3 03             	shl    $0x3,%ebx
    89a0:	83 c3 04             	add    $0x4,%ebx
    89a3:	81 c3 b8 5c 00 00    	add    $0x5cb8,%ebx
    89a9:	8b 74 24 30          	mov    0x30(%esp),%esi
    89ad:	01 f6                	add    %esi,%esi
    89af:	83 c6 04             	add    $0x4,%esi
    89b2:	c1 e6 03             	shl    $0x3,%esi
    89b5:	83 c6 05             	add    $0x5,%esi
    89b8:	81 c6 b8 5c 00 00    	add    $0x5cb8,%esi
    89be:	8b 7c 24 30          	mov    0x30(%esp),%edi
    89c2:	01 ff                	add    %edi,%edi
    89c4:	83 c7 04             	add    $0x4,%edi
    89c7:	c1 e7 03             	shl    $0x3,%edi
    89ca:	83 c7 06             	add    $0x6,%edi
    89cd:	81 c7 b8 5c 00 00    	add    $0x5cb8,%edi
    89d3:	8b 6c 24 30          	mov    0x30(%esp),%ebp
    89d7:	01 ed                	add    %ebp,%ebp
    89d9:	83 c5 04             	add    $0x4,%ebp
    89dc:	c1 e5 03             	shl    $0x3,%ebp
    89df:	83 c5 07             	add    $0x7,%ebp
    89e2:	81 c5 b8 5c 00 00    	add    $0x5cb8,%ebp
    89e8:	66 c7 02 68 00       	movw   $0x68,(%edx)
    89ed:	66 89 01             	mov    %ax,(%ecx)
    89f0:	c1 c8 10             	ror    $0x10,%eax
    89f3:	88 03                	mov    %al,(%ebx)
    89f5:	c6 06 89             	movb   $0x89,(%esi)
    89f8:	c6 07 00             	movb   $0x0,(%edi)
    89fb:	88 65 00             	mov    %ah,0x0(%ebp)
    89fe:	c1 c8 10             	ror    $0x10,%eax
	set_ldt_desc(gdt + (nr << 1) + FIRST_LDT_ENTRY, &(p->ldt));
    8a01:	8b 44 24 08          	mov    0x8(%esp),%eax
    8a05:	05 98 03 00 00       	add    $0x398,%eax
    8a0a:	8b 54 24 30          	mov    0x30(%esp),%edx
    8a0e:	01 d2                	add    %edx,%edx
    8a10:	83 c2 05             	add    $0x5,%edx
    8a13:	c1 e2 03             	shl    $0x3,%edx
    8a16:	81 c2 b8 5c 00 00    	add    $0x5cb8,%edx
    8a1c:	8b 4c 24 30          	mov    0x30(%esp),%ecx
    8a20:	01 c9                	add    %ecx,%ecx
    8a22:	83 c1 05             	add    $0x5,%ecx
    8a25:	c1 e1 03             	shl    $0x3,%ecx
    8a28:	83 c1 02             	add    $0x2,%ecx
    8a2b:	81 c1 b8 5c 00 00    	add    $0x5cb8,%ecx
    8a31:	8b 5c 24 30          	mov    0x30(%esp),%ebx
    8a35:	01 db                	add    %ebx,%ebx
    8a37:	83 c3 05             	add    $0x5,%ebx
    8a3a:	c1 e3 03             	shl    $0x3,%ebx
    8a3d:	83 c3 04             	add    $0x4,%ebx
    8a40:	81 c3 b8 5c 00 00    	add    $0x5cb8,%ebx
    8a46:	8b 74 24 30          	mov    0x30(%esp),%esi
    8a4a:	01 f6                	add    %esi,%esi
    8a4c:	83 c6 05             	add    $0x5,%esi
    8a4f:	c1 e6 03             	shl    $0x3,%esi
    8a52:	83 c6 05             	add    $0x5,%esi
    8a55:	81 c6 b8 5c 00 00    	add    $0x5cb8,%esi
    8a5b:	8b 7c 24 30          	mov    0x30(%esp),%edi
    8a5f:	01 ff                	add    %edi,%edi
    8a61:	83 c7 05             	add    $0x5,%edi
    8a64:	c1 e7 03             	shl    $0x3,%edi
    8a67:	83 c7 06             	add    $0x6,%edi
    8a6a:	81 c7 b8 5c 00 00    	add    $0x5cb8,%edi
    8a70:	8b 6c 24 30          	mov    0x30(%esp),%ebp
    8a74:	01 ed                	add    %ebp,%ebp
    8a76:	83 c5 05             	add    $0x5,%ebp
    8a79:	c1 e5 03             	shl    $0x3,%ebp
    8a7c:	83 c5 07             	add    $0x7,%ebp
    8a7f:	81 c5 b8 5c 00 00    	add    $0x5cb8,%ebp
    8a85:	66 c7 02 68 00       	movw   $0x68,(%edx)
    8a8a:	66 89 01             	mov    %ax,(%ecx)
    8a8d:	c1 c8 10             	ror    $0x10,%eax
    8a90:	88 03                	mov    %al,(%ebx)
    8a92:	c6 06 82             	movb   $0x82,(%esi)
    8a95:	c6 07 00             	movb   $0x0,(%edi)
    8a98:	88 65 00             	mov    %ah,0x0(%ebp)
    8a9b:	c1 c8 10             	ror    $0x10,%eax
	p->p_pptr = current;				// 设置新进程的父进程指针.
    8a9e:	8b 15 a0 f1 02 00    	mov    0x2f1a0,%edx
    8aa4:	8b 44 24 08          	mov    0x8(%esp),%eax
    8aa8:	89 90 bc 02 00 00    	mov    %edx,0x2bc(%eax)
	p->p_cptr = 0;						// 复位新进程的最新子进程指针.
    8aae:	8b 44 24 08          	mov    0x8(%esp),%eax
    8ab2:	c7 80 c0 02 00 00 00 	movl   $0x0,0x2c0(%eax)
    8ab9:	00 00 00 
	p->p_ysptr = 0;						// 复位新进程的比邻年轻兄弟进程指针.
    8abc:	8b 44 24 08          	mov    0x8(%esp),%eax
    8ac0:	c7 80 c4 02 00 00 00 	movl   $0x0,0x2c4(%eax)
    8ac7:	00 00 00 
	p->p_osptr = current->p_cptr;		// 设置新进程的比邻老兄兄弟进程指针.
    8aca:	a1 a0 f1 02 00       	mov    0x2f1a0,%eax
    8acf:	8b 90 c0 02 00 00    	mov    0x2c0(%eax),%edx
    8ad5:	8b 44 24 08          	mov    0x8(%esp),%eax
    8ad9:	89 90 c8 02 00 00    	mov    %edx,0x2c8(%eax)
	if (p->p_osptr)						// 若新进程有老兄兄弟进程,则让其年轻进程兄弟指针指向新进程
    8adf:	8b 44 24 08          	mov    0x8(%esp),%eax
    8ae3:	8b 80 c8 02 00 00    	mov    0x2c8(%eax),%eax
    8ae9:	85 c0                	test   %eax,%eax
    8aeb:	74 14                	je     8b01 <copy_process+0x50a>
		p->p_osptr->p_ysptr = p;
    8aed:	8b 44 24 08          	mov    0x8(%esp),%eax
    8af1:	8b 80 c8 02 00 00    	mov    0x2c8(%eax),%eax
    8af7:	8b 54 24 08          	mov    0x8(%esp),%edx
    8afb:	89 90 c4 02 00 00    	mov    %edx,0x2c4(%eax)
	current->p_cptr = p;				// 让当前进程最新子进程指针指向新进程.
    8b01:	a1 a0 f1 02 00       	mov    0x2f1a0,%eax
    8b06:	8b 54 24 08          	mov    0x8(%esp),%edx
    8b0a:	89 90 c0 02 00 00    	mov    %edx,0x2c0(%eax)
	p->state = TASK_RUNNING;			/* do this last, just in case */        /* 设置进程状态为待运行状态栏 */
    8b10:	8b 44 24 08          	mov    0x8(%esp),%eax
    8b14:	c7 00 00 00 00 00    	movl   $0x0,(%eax)
	Log(LOG_INFO_TYPE, "<<<<< fork new process current_pid = %d, child_pid = %d, nr = %d >>>>>\n", current->pid, p->pid, nr);
    8b1a:	8b 44 24 08          	mov    0x8(%esp),%eax
    8b1e:	8b 90 2c 02 00 00    	mov    0x22c(%eax),%edx
    8b24:	a1 a0 f1 02 00       	mov    0x2f1a0,%eax
    8b29:	8b 80 2c 02 00 00    	mov    0x22c(%eax),%eax
    8b2f:	83 ec 0c             	sub    $0xc,%esp
    8b32:	ff 74 24 3c          	pushl  0x3c(%esp)
    8b36:	52                   	push   %edx
    8b37:	50                   	push   %eax
    8b38:	68 34 2e 02 00       	push   $0x22e34
    8b3d:	6a 00                	push   $0x0
    8b3f:	e8 00 9e 01 00       	call   22944 <Log>
    8b44:	83 c4 20             	add    $0x20,%esp
	return last_pid;        			// 返回新进程号
    8b47:	a1 48 fe 02 00       	mov    0x2fe48,%eax
}
    8b4c:	83 c4 1c             	add    $0x1c,%esp
    8b4f:	5b                   	pop    %ebx
    8b50:	5e                   	pop    %esi
    8b51:	5f                   	pop    %edi
    8b52:	5d                   	pop    %ebp
    8b53:	c3                   	ret    

00008b54 <find_empty_process>:

// 为新进程取得不重复的进程号last_pid.函数返回在任务数组中的任务号(数组项).
int find_empty_process(void)
{
    8b54:	83 ec 10             	sub    $0x10,%esp
    8b57:	eb 01                	jmp    8b5a <find_empty_process+0x6>
	int i;

	// 首先获取新的进程号.如果last_pid增1后超出进程号的正数表示范围,则重新从1开始使用pid号.然后在任务数组中搜索刚设置的pid号是
	// 否已经被任何任务使用.如果是则跳转到函数开始处理重新获得一个pid号.接着在任务数组中为新任务寻找一个空闲项,并返回项号.last_pid是一
	// 个全局变量,不用返回.如果此时任务数组中64个项已经被全部占用,则返回出错码.
	repeat:
    8b59:	90                   	nop
		if ((++last_pid) < 0) last_pid = 1;
    8b5a:	a1 48 fe 02 00       	mov    0x2fe48,%eax
    8b5f:	83 c0 01             	add    $0x1,%eax
    8b62:	a3 48 fe 02 00       	mov    %eax,0x2fe48
    8b67:	a1 48 fe 02 00       	mov    0x2fe48,%eax
    8b6c:	85 c0                	test   %eax,%eax
    8b6e:	79 0a                	jns    8b7a <find_empty_process+0x26>
    8b70:	c7 05 48 fe 02 00 01 	movl   $0x1,0x2fe48
    8b77:	00 00 00 
		for(i = 0 ; i < NR_TASKS ; i++)
    8b7a:	c7 44 24 0c 00 00 00 	movl   $0x0,0xc(%esp)
    8b81:	00 
    8b82:	eb 48                	jmp    8bcc <find_empty_process+0x78>
			if (task[i] && ((task[i]->pid == last_pid) ||
    8b84:	8b 44 24 0c          	mov    0xc(%esp),%eax
    8b88:	8b 04 85 c0 f1 02 00 	mov    0x2f1c0(,%eax,4),%eax
    8b8f:	85 c0                	test   %eax,%eax
    8b91:	74 34                	je     8bc7 <find_empty_process+0x73>
    8b93:	8b 44 24 0c          	mov    0xc(%esp),%eax
    8b97:	8b 04 85 c0 f1 02 00 	mov    0x2f1c0(,%eax,4),%eax
    8b9e:	8b 90 2c 02 00 00    	mov    0x22c(%eax),%edx
    8ba4:	a1 48 fe 02 00       	mov    0x2fe48,%eax
    8ba9:	39 c2                	cmp    %eax,%edx
    8bab:	74 ac                	je     8b59 <find_empty_process+0x5>
				        (task[i]->pgrp == last_pid)))
    8bad:	8b 44 24 0c          	mov    0xc(%esp),%eax
    8bb1:	8b 04 85 c0 f1 02 00 	mov    0x2f1c0(,%eax,4),%eax
    8bb8:	8b 90 30 02 00 00    	mov    0x230(%eax),%edx
    8bbe:	a1 48 fe 02 00       	mov    0x2fe48,%eax
			if (task[i] && ((task[i]->pid == last_pid) ||
    8bc3:	39 c2                	cmp    %eax,%edx
    8bc5:	74 92                	je     8b59 <find_empty_process+0x5>
		for(i = 0 ; i < NR_TASKS ; i++)
    8bc7:	83 44 24 0c 01       	addl   $0x1,0xc(%esp)
    8bcc:	83 7c 24 0c 3f       	cmpl   $0x3f,0xc(%esp)
    8bd1:	7e b1                	jle    8b84 <find_empty_process+0x30>
				goto repeat;
	for(i = 1 ; i < NR_TASKS ; i++)
    8bd3:	c7 44 24 0c 01 00 00 	movl   $0x1,0xc(%esp)
    8bda:	00 
    8bdb:	eb 1a                	jmp    8bf7 <find_empty_process+0xa3>
		if (!task[i])
    8bdd:	8b 44 24 0c          	mov    0xc(%esp),%eax
    8be1:	8b 04 85 c0 f1 02 00 	mov    0x2f1c0(,%eax,4),%eax
    8be8:	85 c0                	test   %eax,%eax
    8bea:	75 06                	jne    8bf2 <find_empty_process+0x9e>
			return i;
    8bec:	8b 44 24 0c          	mov    0xc(%esp),%eax
    8bf0:	eb 11                	jmp    8c03 <find_empty_process+0xaf>
	for(i = 1 ; i < NR_TASKS ; i++)
    8bf2:	83 44 24 0c 01       	addl   $0x1,0xc(%esp)
    8bf7:	83 7c 24 0c 3f       	cmpl   $0x3f,0xc(%esp)
    8bfc:	7e df                	jle    8bdd <find_empty_process+0x89>
	return -EAGAIN;
    8bfe:	b8 f5 ff ff ff       	mov    $0xfffffff5,%eax
}
    8c03:	83 c4 10             	add    $0x10,%esp
    8c06:	c3                   	ret    

00008c07 <panic>:
// 如果当前进程是任务0的话,还说明是交换任务出错,并且还没有运行文件系统同步函数.
// 函数名前的关键字volatile用于告诉编译器gcc该函数不会返回.这样可让gcc产生更好一些的代码,更重要的是使用这个关键字
// 以避免产生某些(未初始化变量的)假警告信息.
// 等同于现在gcc的函数属性说明:void panic(const char *s) __attribute__((noreturn));
void panic(const char * s)
{
    8c07:	83 ec 0c             	sub    $0xc,%esp
	printk("Kernel panic: %s\n\r", s);
    8c0a:	83 ec 08             	sub    $0x8,%esp
    8c0d:	ff 74 24 18          	pushl  0x18(%esp)
    8c11:	68 7c 2e 02 00       	push   $0x22e7c
    8c16:	e8 2b 00 00 00       	call   8c46 <printk>
    8c1b:	83 c4 10             	add    $0x10,%esp
	if (current == task[0])
    8c1e:	8b 15 c0 f1 02 00    	mov    0x2f1c0,%edx
    8c24:	a1 a0 f1 02 00       	mov    0x2f1a0,%eax
    8c29:	39 c2                	cmp    %eax,%edx
    8c2b:	75 12                	jne    8c3f <panic+0x38>
		printk("In swapper task - not syncing\n\r");
    8c2d:	83 ec 0c             	sub    $0xc,%esp
    8c30:	68 90 2e 02 00       	push   $0x22e90
    8c35:	e8 0c 00 00 00       	call   8c46 <printk>
    8c3a:	83 c4 10             	add    $0x10,%esp
    8c3d:	eb 05                	jmp    8c44 <panic+0x3d>
	else
		sys_sync();
    8c3f:	e8 d3 62 00 00       	call   ef17 <sys_sync>
	for(;;);
    8c44:	eb fe                	jmp    8c44 <panic+0x3d>

00008c46 <printk>:
// 函数vsprintf()定义在linux/kernel/vsprintf.c中
extern int vsprintf(char * buf, const char * fmt, va_list args);

// 内核使用的显示函数.
int printk(const char *fmt, ...)
{
    8c46:	83 ec 1c             	sub    $0x1c,%esp
	va_list args;							// va_list实际上是一个字符指针类型.
	int i;

	// 运行参数处理开始函数.然后使用格式串fmt将参数列表args输出到buf中.返回值i等于输出字符串的长度.再运行参数处理结束函数.最后调用控制台显示
	// 函数并返回显示字符数.
	va_start(args, fmt);
    8c49:	8d 44 24 24          	lea    0x24(%esp),%eax
    8c4d:	89 44 24 0c          	mov    %eax,0xc(%esp)
	i = vsprintf(buf, fmt, args);
    8c51:	8b 44 24 20          	mov    0x20(%esp),%eax
    8c55:	83 ec 04             	sub    $0x4,%esp
    8c58:	ff 74 24 10          	pushl  0x10(%esp)
    8c5c:	50                   	push   %eax
    8c5d:	68 60 fe 02 00       	push   $0x2fe60
    8c62:	e8 0f 03 00 00       	call   8f76 <vsprintf>
    8c67:	83 c4 10             	add    $0x10,%esp
    8c6a:	89 44 24 08          	mov    %eax,0x8(%esp)
	va_end(args);
	console_print(buf);						// chr_drv/console.c
    8c6e:	83 ec 0c             	sub    $0xc,%esp
    8c71:	68 60 fe 02 00       	push   $0x2fe60
    8c76:	e8 56 48 01 00       	call   1d4d1 <console_print>
    8c7b:	83 c4 10             	add    $0x10,%esp
	return i;
    8c7e:	8b 44 24 08          	mov    0x8(%esp),%eax
}
    8c82:	83 c4 1c             	add    $0x1c,%esp
    8c85:	c3                   	ret    

00008c86 <strlen>:
// 计算字符串长度.
// 参数:s - 字符串
// %0 - ecx(__res),%1 - edi(字符串指针s),%2 - eax(0),%3 - ecx(0xffffffff).
// 返回:返回字符串长度.
static inline int strlen(const char * s)
{
    8c86:	57                   	push   %edi
register int __res __asm__("cx");       					// __res是寄存器变量(ecx).
__asm__(
    8c87:	8b 54 24 08          	mov    0x8(%esp),%edx
    8c8b:	b8 00 00 00 00       	mov    $0x0,%eax
    8c90:	b9 ff ff ff ff       	mov    $0xffffffff,%ecx
    8c95:	89 d7                	mov    %edx,%edi
    8c97:	fc                   	cld    
    8c98:	f2 ae                	repnz scas %es:(%edi),%al
    8c9a:	f7 d1                	not    %ecx
    8c9c:	49                   	dec    %ecx
	"repne\n\t"												// al(0)与字符串中字符es:[edi比较,
	"scasb\n\t"												// 若不相等就一直比较.
	"notl %0\n\t"											// ecx取反.
	"decl %0"												// ecx--,得字符串的长度值.
	:"=c" (__res):"D" (s), "a" (0), "0" (0xffffffff));
return __res;												// 返回字符串长度值.
    8c9d:	89 c8                	mov    %ecx,%eax
}
    8c9f:	5f                   	pop    %edi
    8ca0:	c3                   	ret    

00008ca1 <skip_atoi>:
/* 我们使用下面的定义,这样我们就可以不使用ctype库了 */
#define is_digit(c)	((c) >= '0' && (c) <= '9')	// 判断字符c是否为数字字符.

// 该函数将字符数字串转换成整数.输入是数字串指针的指针,返回是结果数值.另外指针将前移.
static int skip_atoi(const char **s)
{
    8ca1:	53                   	push   %ebx
    8ca2:	83 ec 10             	sub    $0x10,%esp
	int i = 0;
    8ca5:	c7 44 24 0c 00 00 00 	movl   $0x0,0xc(%esp)
    8cac:	00 

	while (is_digit(**s))
    8cad:	eb 2d                	jmp    8cdc <skip_atoi+0x3b>
		i = i*10 + *((*s)++) - '0';
    8caf:	8b 54 24 0c          	mov    0xc(%esp),%edx
    8cb3:	89 d0                	mov    %edx,%eax
    8cb5:	c1 e0 02             	shl    $0x2,%eax
    8cb8:	01 d0                	add    %edx,%eax
    8cba:	01 c0                	add    %eax,%eax
    8cbc:	89 c3                	mov    %eax,%ebx
    8cbe:	8b 44 24 18          	mov    0x18(%esp),%eax
    8cc2:	8b 00                	mov    (%eax),%eax
    8cc4:	8d 48 01             	lea    0x1(%eax),%ecx
    8cc7:	8b 54 24 18          	mov    0x18(%esp),%edx
    8ccb:	89 0a                	mov    %ecx,(%edx)
    8ccd:	0f b6 00             	movzbl (%eax),%eax
    8cd0:	0f be c0             	movsbl %al,%eax
    8cd3:	01 d8                	add    %ebx,%eax
    8cd5:	83 e8 30             	sub    $0x30,%eax
    8cd8:	89 44 24 0c          	mov    %eax,0xc(%esp)
	while (is_digit(**s))
    8cdc:	8b 44 24 18          	mov    0x18(%esp),%eax
    8ce0:	8b 00                	mov    (%eax),%eax
    8ce2:	0f b6 00             	movzbl (%eax),%eax
    8ce5:	3c 2f                	cmp    $0x2f,%al
    8ce7:	7e 0d                	jle    8cf6 <skip_atoi+0x55>
    8ce9:	8b 44 24 18          	mov    0x18(%esp),%eax
    8ced:	8b 00                	mov    (%eax),%eax
    8cef:	0f b6 00             	movzbl (%eax),%eax
    8cf2:	3c 39                	cmp    $0x39,%al
    8cf4:	7e b9                	jle    8caf <skip_atoi+0xe>
	return i;
    8cf6:	8b 44 24 0c          	mov    0xc(%esp),%eax
}
    8cfa:	83 c4 10             	add    $0x10,%esp
    8cfd:	5b                   	pop    %ebx
    8cfe:	c3                   	ret    

00008cff <number>:
// 将整数转换为指定进制的字符串.
// 输入: num-整数; base-进制; size-字符串长度;precision-数字长度(精度);type-类型选项.
// 输出: 数字转换成字符串后指向该字符串末端后面的指针.
static char * number(char * str, int num, int base, int size, int precision
	,int type)
{
    8cff:	83 ec 40             	sub    $0x40,%esp
	char c,sign,tmp[36];
	const char *digits="0123456789ABCDEFGHIJKLMNOPQRSTUVWXYZ";
    8d02:	c7 44 24 38 b0 2e 02 	movl   $0x22eb0,0x38(%esp)
    8d09:	00 
	int i;

	// 如果类型type指出用小写字母,则定义小写字母集.
	// 如果类型指出要左调整(靠左边界),则屏蔽类型中的填零标志.
	// 如果进制基数小于2或大于36,则退出处理,即本程序只能处理基数在2-36之间的数.
	if (type & SMALL) digits = "0123456789abcdefghijklmnopqrstuvwxyz";
    8d0a:	8b 44 24 58          	mov    0x58(%esp),%eax
    8d0e:	83 e0 40             	and    $0x40,%eax
    8d11:	85 c0                	test   %eax,%eax
    8d13:	74 08                	je     8d1d <number+0x1e>
    8d15:	c7 44 24 38 d8 2e 02 	movl   $0x22ed8,0x38(%esp)
    8d1c:	00 
	if (type & LEFT) type &= ~ZEROPAD;
    8d1d:	8b 44 24 58          	mov    0x58(%esp),%eax
    8d21:	83 e0 10             	and    $0x10,%eax
    8d24:	85 c0                	test   %eax,%eax
    8d26:	74 05                	je     8d2d <number+0x2e>
    8d28:	83 64 24 58 fe       	andl   $0xfffffffe,0x58(%esp)
	if (base < 2 || base > 36)
    8d2d:	83 7c 24 4c 01       	cmpl   $0x1,0x4c(%esp)
    8d32:	7e 07                	jle    8d3b <number+0x3c>
    8d34:	83 7c 24 4c 24       	cmpl   $0x24,0x4c(%esp)
    8d39:	7e 0a                	jle    8d45 <number+0x46>
		return 0;
    8d3b:	b8 00 00 00 00       	mov    $0x0,%eax
    8d40:	e9 2d 02 00 00       	jmp    8f72 <number+0x273>
	// 如果类型指出要填零,则置字符变量c='0',否则c等于空格字符.
	// 如果类型指出是带符号数并且数值num小于0,则置符号变量sign=负号,并使num取绝对值.
	// 否则如果类型指出是加号,则置sign=加号,否则若类型带空格标志则sign=空格,否则置0.
	c = (type & ZEROPAD) ? '0' : ' ' ;
    8d45:	8b 44 24 58          	mov    0x58(%esp),%eax
    8d49:	83 e0 01             	and    $0x1,%eax
    8d4c:	85 c0                	test   %eax,%eax
    8d4e:	74 07                	je     8d57 <number+0x58>
    8d50:	b8 30 00 00 00       	mov    $0x30,%eax
    8d55:	eb 05                	jmp    8d5c <number+0x5d>
    8d57:	b8 20 00 00 00       	mov    $0x20,%eax
    8d5c:	88 44 24 33          	mov    %al,0x33(%esp)
	if (type & SIGN && num < 0) {
    8d60:	8b 44 24 58          	mov    0x58(%esp),%eax
    8d64:	83 e0 02             	and    $0x2,%eax
    8d67:	85 c0                	test   %eax,%eax
    8d69:	74 12                	je     8d7d <number+0x7e>
    8d6b:	83 7c 24 48 00       	cmpl   $0x0,0x48(%esp)
    8d70:	79 0b                	jns    8d7d <number+0x7e>
		sign = '-';
    8d72:	c6 44 24 3f 2d       	movb   $0x2d,0x3f(%esp)
		num = -num;
    8d77:	f7 5c 24 48          	negl   0x48(%esp)
    8d7b:	eb 20                	jmp    8d9d <number+0x9e>
	} else
		sign = (type & PLUS) ? '+' : ((type & SPACE) ? ' ' : 0);
    8d7d:	8b 44 24 58          	mov    0x58(%esp),%eax
    8d81:	83 e0 04             	and    $0x4,%eax
    8d84:	85 c0                	test   %eax,%eax
    8d86:	75 0c                	jne    8d94 <number+0x95>
    8d88:	8b 44 24 58          	mov    0x58(%esp),%eax
    8d8c:	c1 e0 02             	shl    $0x2,%eax
    8d8f:	83 e0 20             	and    $0x20,%eax
    8d92:	eb 05                	jmp    8d99 <number+0x9a>
    8d94:	b8 2b 00 00 00       	mov    $0x2b,%eax
    8d99:	88 44 24 3f          	mov    %al,0x3f(%esp)
	// 若带符号,则宽度值减1.若类型指出是特殊转换,则对十六进制宽度再减少2位(用于0x),对于八进制宽度减1(用于八进制转换结果前放一个零).
	if (sign) size--;
    8d9d:	80 7c 24 3f 00       	cmpb   $0x0,0x3f(%esp)
    8da2:	74 05                	je     8da9 <number+0xaa>
    8da4:	83 6c 24 50 01       	subl   $0x1,0x50(%esp)
	if (type & SPECIAL)
    8da9:	8b 44 24 58          	mov    0x58(%esp),%eax
    8dad:	83 e0 20             	and    $0x20,%eax
    8db0:	85 c0                	test   %eax,%eax
    8db2:	74 1a                	je     8dce <number+0xcf>
		if (base == 16) size -= 2;
    8db4:	83 7c 24 4c 10       	cmpl   $0x10,0x4c(%esp)
    8db9:	75 07                	jne    8dc2 <number+0xc3>
    8dbb:	83 6c 24 50 02       	subl   $0x2,0x50(%esp)
    8dc0:	eb 0c                	jmp    8dce <number+0xcf>
		else if (base == 8) size--;
    8dc2:	83 7c 24 4c 08       	cmpl   $0x8,0x4c(%esp)
    8dc7:	75 05                	jne    8dce <number+0xcf>
    8dc9:	83 6c 24 50 01       	subl   $0x1,0x50(%esp)
	// 如果数值num为0,则临时字符串='0';否则根据给定的基数将数值num转换成字符形式.
	i = 0;
    8dce:	c7 44 24 34 00 00 00 	movl   $0x0,0x34(%esp)
    8dd5:	00 
	if (num == 0)
    8dd6:	83 7c 24 48 00       	cmpl   $0x0,0x48(%esp)
    8ddb:	75 48                	jne    8e25 <number+0x126>
		tmp[i++] = '0';
    8ddd:	8b 44 24 34          	mov    0x34(%esp),%eax
    8de1:	8d 50 01             	lea    0x1(%eax),%edx
    8de4:	89 54 24 34          	mov    %edx,0x34(%esp)
    8de8:	c6 44 04 08 30       	movb   $0x30,0x8(%esp,%eax,1)
    8ded:	eb 3d                	jmp    8e2c <number+0x12d>
	else while (num != 0)
		tmp[i++] = digits[do_div(num, base)];
    8def:	8b 44 24 48          	mov    0x48(%esp),%eax
    8df3:	ba 00 00 00 00       	mov    $0x0,%edx
    8df8:	8b 4c 24 4c          	mov    0x4c(%esp),%ecx
    8dfc:	f7 f1                	div    %ecx
    8dfe:	89 44 24 48          	mov    %eax,0x48(%esp)
    8e02:	89 54 24 2c          	mov    %edx,0x2c(%esp)
    8e06:	8b 44 24 2c          	mov    0x2c(%esp),%eax
    8e0a:	89 c2                	mov    %eax,%edx
    8e0c:	8b 44 24 38          	mov    0x38(%esp),%eax
    8e10:	8d 0c 02             	lea    (%edx,%eax,1),%ecx
    8e13:	8b 44 24 34          	mov    0x34(%esp),%eax
    8e17:	8d 50 01             	lea    0x1(%eax),%edx
    8e1a:	89 54 24 34          	mov    %edx,0x34(%esp)
    8e1e:	0f b6 11             	movzbl (%ecx),%edx
    8e21:	88 54 04 08          	mov    %dl,0x8(%esp,%eax,1)
	else while (num != 0)
    8e25:	83 7c 24 48 00       	cmpl   $0x0,0x48(%esp)
    8e2a:	75 c3                	jne    8def <number+0xf0>
	// 若数值字符个数大于精度值,则精度值扩展为数字个数值.
	// 宽度值size减去用于存放数值字符的个数.
	if (i > precision) precision = i;
    8e2c:	8b 44 24 34          	mov    0x34(%esp),%eax
    8e30:	3b 44 24 54          	cmp    0x54(%esp),%eax
    8e34:	7e 08                	jle    8e3e <number+0x13f>
    8e36:	8b 44 24 34          	mov    0x34(%esp),%eax
    8e3a:	89 44 24 54          	mov    %eax,0x54(%esp)
	size -= precision;
    8e3e:	8b 44 24 54          	mov    0x54(%esp),%eax
    8e42:	29 44 24 50          	sub    %eax,0x50(%esp)
	// 从这里真正开始形成所需要的转换结果,并暂时放在字符串str中.
	// 若类型中没有填零(ZEROPAD)和左靠齐(左调整)标志,则在str中首先填放剩余宽度值指出的空格数.若需带符号位,则存入符号.
	if (!(type & (ZEROPAD + LEFT)))
    8e46:	8b 44 24 58          	mov    0x58(%esp),%eax
    8e4a:	83 e0 11             	and    $0x11,%eax
    8e4d:	85 c0                	test   %eax,%eax
    8e4f:	75 1f                	jne    8e70 <number+0x171>
		while(size-- > 0)
    8e51:	eb 0e                	jmp    8e61 <number+0x162>
			*str++ = ' ';
    8e53:	8b 44 24 44          	mov    0x44(%esp),%eax
    8e57:	8d 50 01             	lea    0x1(%eax),%edx
    8e5a:	89 54 24 44          	mov    %edx,0x44(%esp)
    8e5e:	c6 00 20             	movb   $0x20,(%eax)
		while(size-- > 0)
    8e61:	8b 44 24 50          	mov    0x50(%esp),%eax
    8e65:	8d 50 ff             	lea    -0x1(%eax),%edx
    8e68:	89 54 24 50          	mov    %edx,0x50(%esp)
    8e6c:	85 c0                	test   %eax,%eax
    8e6e:	7f e3                	jg     8e53 <number+0x154>
	if (sign)
    8e70:	80 7c 24 3f 00       	cmpb   $0x0,0x3f(%esp)
    8e75:	74 12                	je     8e89 <number+0x18a>
		*str++ = sign;
    8e77:	8b 44 24 44          	mov    0x44(%esp),%eax
    8e7b:	8d 50 01             	lea    0x1(%eax),%edx
    8e7e:	89 54 24 44          	mov    %edx,0x44(%esp)
    8e82:	0f b6 54 24 3f       	movzbl 0x3f(%esp),%edx
    8e87:	88 10                	mov    %dl,(%eax)
	// 若类型指出是特殊转换,则对于八进制转换结果头一位放置一个'0';而对于十六进制则存放'0x'.
	if (type & SPECIAL)
    8e89:	8b 44 24 58          	mov    0x58(%esp),%eax
    8e8d:	83 e0 20             	and    $0x20,%eax
    8e90:	85 c0                	test   %eax,%eax
    8e92:	74 41                	je     8ed5 <number+0x1d6>
		if (base == 8)
    8e94:	83 7c 24 4c 08       	cmpl   $0x8,0x4c(%esp)
    8e99:	75 10                	jne    8eab <number+0x1ac>
			*str++ = '0';
    8e9b:	8b 44 24 44          	mov    0x44(%esp),%eax
    8e9f:	8d 50 01             	lea    0x1(%eax),%edx
    8ea2:	89 54 24 44          	mov    %edx,0x44(%esp)
    8ea6:	c6 00 30             	movb   $0x30,(%eax)
    8ea9:	eb 2a                	jmp    8ed5 <number+0x1d6>
		else if (base == 16) {
    8eab:	83 7c 24 4c 10       	cmpl   $0x10,0x4c(%esp)
    8eb0:	75 23                	jne    8ed5 <number+0x1d6>
			*str++ = '0';
    8eb2:	8b 44 24 44          	mov    0x44(%esp),%eax
    8eb6:	8d 50 01             	lea    0x1(%eax),%edx
    8eb9:	89 54 24 44          	mov    %edx,0x44(%esp)
    8ebd:	c6 00 30             	movb   $0x30,(%eax)
			*str++ = digits[33];						// 'X'或'x'
    8ec0:	8b 44 24 44          	mov    0x44(%esp),%eax
    8ec4:	8d 50 01             	lea    0x1(%eax),%edx
    8ec7:	89 54 24 44          	mov    %edx,0x44(%esp)
    8ecb:	8b 54 24 38          	mov    0x38(%esp),%edx
    8ecf:	0f b6 52 21          	movzbl 0x21(%edx),%edx
    8ed3:	88 10                	mov    %dl,(%eax)
		}
	// 若类型中没有左调整(左靠齐)标志,则在剩余宽度中存放c字符('0'或空格)
	if (!(type & LEFT))
    8ed5:	8b 44 24 58          	mov    0x58(%esp),%eax
    8ed9:	83 e0 10             	and    $0x10,%eax
    8edc:	85 c0                	test   %eax,%eax
    8ede:	75 33                	jne    8f13 <number+0x214>
		while(size-- > 0)
    8ee0:	eb 12                	jmp    8ef4 <number+0x1f5>
			*str++ = c;
    8ee2:	8b 44 24 44          	mov    0x44(%esp),%eax
    8ee6:	8d 50 01             	lea    0x1(%eax),%edx
    8ee9:	89 54 24 44          	mov    %edx,0x44(%esp)
    8eed:	0f b6 54 24 33       	movzbl 0x33(%esp),%edx
    8ef2:	88 10                	mov    %dl,(%eax)
		while(size-- > 0)
    8ef4:	8b 44 24 50          	mov    0x50(%esp),%eax
    8ef8:	8d 50 ff             	lea    -0x1(%eax),%edx
    8efb:	89 54 24 50          	mov    %edx,0x50(%esp)
    8eff:	85 c0                	test   %eax,%eax
    8f01:	7f df                	jg     8ee2 <number+0x1e3>
	// 此时i存有数值num的数字个数.若数字个数小于精度值,则str中放入(精度值-i)个'0'.
	while(i < precision--)
    8f03:	eb 0e                	jmp    8f13 <number+0x214>
		*str++ = '0';
    8f05:	8b 44 24 44          	mov    0x44(%esp),%eax
    8f09:	8d 50 01             	lea    0x1(%eax),%edx
    8f0c:	89 54 24 44          	mov    %edx,0x44(%esp)
    8f10:	c6 00 30             	movb   $0x30,(%eax)
	while(i < precision--)
    8f13:	8b 44 24 54          	mov    0x54(%esp),%eax
    8f17:	8d 50 ff             	lea    -0x1(%eax),%edx
    8f1a:	89 54 24 54          	mov    %edx,0x54(%esp)
    8f1e:	39 44 24 34          	cmp    %eax,0x34(%esp)
    8f22:	7c e1                	jl     8f05 <number+0x206>
	// 将数值转换好的数字字符填入str中.共i个.
	while(i-- > 0)
    8f24:	eb 1a                	jmp    8f40 <number+0x241>
		*str++ = tmp[i];
    8f26:	8b 44 24 44          	mov    0x44(%esp),%eax
    8f2a:	8d 50 01             	lea    0x1(%eax),%edx
    8f2d:	89 54 24 44          	mov    %edx,0x44(%esp)
    8f31:	8d 4c 24 08          	lea    0x8(%esp),%ecx
    8f35:	8b 54 24 34          	mov    0x34(%esp),%edx
    8f39:	01 ca                	add    %ecx,%edx
    8f3b:	0f b6 12             	movzbl (%edx),%edx
    8f3e:	88 10                	mov    %dl,(%eax)
	while(i-- > 0)
    8f40:	8b 44 24 34          	mov    0x34(%esp),%eax
    8f44:	8d 50 ff             	lea    -0x1(%eax),%edx
    8f47:	89 54 24 34          	mov    %edx,0x34(%esp)
    8f4b:	85 c0                	test   %eax,%eax
    8f4d:	7f d7                	jg     8f26 <number+0x227>
	// 若宽度值仍大于零,则表示类型标志中有左靠齐标志.则在剩余宽度中放入空格.
	while(size-- > 0)
    8f4f:	eb 0e                	jmp    8f5f <number+0x260>
		*str++ = ' ';
    8f51:	8b 44 24 44          	mov    0x44(%esp),%eax
    8f55:	8d 50 01             	lea    0x1(%eax),%edx
    8f58:	89 54 24 44          	mov    %edx,0x44(%esp)
    8f5c:	c6 00 20             	movb   $0x20,(%eax)
	while(size-- > 0)
    8f5f:	8b 44 24 50          	mov    0x50(%esp),%eax
    8f63:	8d 50 ff             	lea    -0x1(%eax),%edx
    8f66:	89 54 24 50          	mov    %edx,0x50(%esp)
    8f6a:	85 c0                	test   %eax,%eax
    8f6c:	7f e3                	jg     8f51 <number+0x252>
	return str;											// 返回转换好的指向字符串末端后的指针.
    8f6e:	8b 44 24 44          	mov    0x44(%esp),%eax
}
    8f72:	83 c4 40             	add    $0x40,%esp
    8f75:	c3                   	ret    

00008f76 <vsprintf>:

// 下面函数是送格式化输出到字符串中.
// 为了能在内核中使用格式化的输出,Linus在内核实现了该C标准函数.
// 其中参数fmt是格式字符串;args是个数变化的值;buf是输出字符串缓冲区.
int vsprintf(char *buf, const char *fmt, va_list args)
{
    8f76:	83 ec 30             	sub    $0x30,%esp
				   											number of chars for from string */
														/* min.整数数字个数;max.字符串中字符个数 */
	int qualifier;										/* 'h', 'l', or 'L' for integer fields */	/* 'h','l',或 'L'用于整数字段 */

	// 首先将字符指针指向buf,然后扫描格式字符串,对各个格式转换指示进行相应的处理.
	for (str=buf ; *fmt ; ++fmt) {
    8f79:	8b 44 24 34          	mov    0x34(%esp),%eax
    8f7d:	89 44 24 24          	mov    %eax,0x24(%esp)
    8f81:	e9 3d 04 00 00       	jmp    93c3 <vsprintf+0x44d>
		// 格式转换指示字符串均'%'开始,这里从fmt格式字符串中扫描'%',寻找格式转换字符串的开始.不是格式指示的一般字符均被依次存入str.
		if (*fmt != '%') {
    8f86:	8b 44 24 38          	mov    0x38(%esp),%eax
    8f8a:	0f b6 00             	movzbl (%eax),%eax
    8f8d:	3c 25                	cmp    $0x25,%al
    8f8f:	74 19                	je     8faa <vsprintf+0x34>
			*str++ = *fmt;
    8f91:	8b 54 24 38          	mov    0x38(%esp),%edx
    8f95:	8b 44 24 24          	mov    0x24(%esp),%eax
    8f99:	8d 48 01             	lea    0x1(%eax),%ecx
    8f9c:	89 4c 24 24          	mov    %ecx,0x24(%esp)
    8fa0:	0f b6 12             	movzbl (%edx),%edx
    8fa3:	88 10                	mov    %dl,(%eax)
			continue;
    8fa5:	e9 0e 04 00 00       	jmp    93b8 <vsprintf+0x442>
		}

		// 下面取得格式指示字符串中的标志域,并将标志常量放入flags变量中.
		/* process flags */
		flags = 0;
    8faa:	c7 44 24 1c 00 00 00 	movl   $0x0,0x1c(%esp)
    8fb1:	00 
		repeat:
			++fmt;		/* this also skips first '%' */
    8fb2:	8b 44 24 38          	mov    0x38(%esp),%eax
    8fb6:	83 c0 01             	add    $0x1,%eax
    8fb9:	89 44 24 38          	mov    %eax,0x38(%esp)
			switch (*fmt) {
    8fbd:	8b 44 24 38          	mov    0x38(%esp),%eax
    8fc1:	0f b6 00             	movzbl (%eax),%eax
    8fc4:	0f be c0             	movsbl %al,%eax
    8fc7:	83 e8 20             	sub    $0x20,%eax
    8fca:	83 f8 10             	cmp    $0x10,%eax
    8fcd:	77 2c                	ja     8ffb <vsprintf+0x85>
    8fcf:	8b 04 85 00 2f 02 00 	mov    0x22f00(,%eax,4),%eax
    8fd6:	ff e0                	jmp    *%eax
				case '-': flags |= LEFT; goto repeat;		// 左靠齐调整
    8fd8:	83 4c 24 1c 10       	orl    $0x10,0x1c(%esp)
    8fdd:	eb d3                	jmp    8fb2 <vsprintf+0x3c>
				case '+': flags |= PLUS; goto repeat;		// 放加号
    8fdf:	83 4c 24 1c 04       	orl    $0x4,0x1c(%esp)
    8fe4:	eb cc                	jmp    8fb2 <vsprintf+0x3c>
				case ' ': flags |= SPACE; goto repeat;		// 放空格
    8fe6:	83 4c 24 1c 08       	orl    $0x8,0x1c(%esp)
    8feb:	eb c5                	jmp    8fb2 <vsprintf+0x3c>
				case '#': flags |= SPECIAL; goto repeat;	// 是特殊转换
    8fed:	83 4c 24 1c 20       	orl    $0x20,0x1c(%esp)
    8ff2:	eb be                	jmp    8fb2 <vsprintf+0x3c>
				case '0': flags |= ZEROPAD; goto repeat;	// 要填零(即'0')
    8ff4:	83 4c 24 1c 01       	orl    $0x1,0x1c(%esp)
    8ff9:	eb b7                	jmp    8fb2 <vsprintf+0x3c>
				}

		// 取当前参数字段宽度域值,放入field_width变量中.如果宽度域中是数值则直接其为宽度值.如果宽度域中是字符'*',表示下一个参数指定宽度.因此
		// 调用va_arg取宽度值.若此时宽度值小于0,则该负数表示其带有标志域'-'标志(左靠齐),因此还需在标志变量中添入该标志,并将字段宽度值取为其绝对值.
		/* get field width */
		field_width = -1;
    8ffb:	c7 44 24 18 ff ff ff 	movl   $0xffffffff,0x18(%esp)
    9002:	ff 
		if (is_digit(*fmt))
    9003:	8b 44 24 38          	mov    0x38(%esp),%eax
    9007:	0f b6 00             	movzbl (%eax),%eax
    900a:	3c 2f                	cmp    $0x2f,%al
    900c:	7e 1e                	jle    902c <vsprintf+0xb6>
    900e:	8b 44 24 38          	mov    0x38(%esp),%eax
    9012:	0f b6 00             	movzbl (%eax),%eax
    9015:	3c 39                	cmp    $0x39,%al
    9017:	7f 13                	jg     902c <vsprintf+0xb6>
			field_width = skip_atoi(&fmt);
    9019:	8d 44 24 38          	lea    0x38(%esp),%eax
    901d:	50                   	push   %eax
    901e:	e8 7e fc ff ff       	call   8ca1 <skip_atoi>
    9023:	83 c4 04             	add    $0x4,%esp
    9026:	89 44 24 18          	mov    %eax,0x18(%esp)
    902a:	eb 36                	jmp    9062 <vsprintf+0xec>
		else if (*fmt == '*') {
    902c:	8b 44 24 38          	mov    0x38(%esp),%eax
    9030:	0f b6 00             	movzbl (%eax),%eax
    9033:	3c 2a                	cmp    $0x2a,%al
    9035:	75 2b                	jne    9062 <vsprintf+0xec>
			/* it's the next argument */
			++fmt;
    9037:	8b 44 24 38          	mov    0x38(%esp),%eax
    903b:	83 c0 01             	add    $0x1,%eax
    903e:	89 44 24 38          	mov    %eax,0x38(%esp)
			field_width = va_arg(args, int);
    9042:	83 44 24 3c 04       	addl   $0x4,0x3c(%esp)
    9047:	8b 44 24 3c          	mov    0x3c(%esp),%eax
    904b:	8b 40 fc             	mov    -0x4(%eax),%eax
    904e:	89 44 24 18          	mov    %eax,0x18(%esp)
			if (field_width < 0) {
    9052:	83 7c 24 18 00       	cmpl   $0x0,0x18(%esp)
    9057:	79 09                	jns    9062 <vsprintf+0xec>
				field_width = -field_width;
    9059:	f7 5c 24 18          	negl   0x18(%esp)
				flags |= LEFT;
    905d:	83 4c 24 1c 10       	orl    $0x10,0x1c(%esp)
		}

	// 下面这段代码,取格式转换串的精度域,并放入precision变量中.精度域开始的标志是'.'.其处理过程与上面宽度域的类似.如果精度域中是数值则直接取其为
	// 精度值.如果精度域中是字符'*',表示下一个参数指定精度.因此调用va_arg取精度值.若此时宽度值小于0,则将字段精度值取为0.
		/* get the precision */
		precision = -1;
    9062:	c7 44 24 14 ff ff ff 	movl   $0xffffffff,0x14(%esp)
    9069:	ff 
		if (*fmt == '.') {
    906a:	8b 44 24 38          	mov    0x38(%esp),%eax
    906e:	0f b6 00             	movzbl (%eax),%eax
    9071:	3c 2e                	cmp    $0x2e,%al
    9073:	75 69                	jne    90de <vsprintf+0x168>
			++fmt;
    9075:	8b 44 24 38          	mov    0x38(%esp),%eax
    9079:	83 c0 01             	add    $0x1,%eax
    907c:	89 44 24 38          	mov    %eax,0x38(%esp)
			if (is_digit(*fmt))
    9080:	8b 44 24 38          	mov    0x38(%esp),%eax
    9084:	0f b6 00             	movzbl (%eax),%eax
    9087:	3c 2f                	cmp    $0x2f,%al
    9089:	7e 1e                	jle    90a9 <vsprintf+0x133>
    908b:	8b 44 24 38          	mov    0x38(%esp),%eax
    908f:	0f b6 00             	movzbl (%eax),%eax
    9092:	3c 39                	cmp    $0x39,%al
    9094:	7f 13                	jg     90a9 <vsprintf+0x133>
				precision = skip_atoi(&fmt);
    9096:	8d 44 24 38          	lea    0x38(%esp),%eax
    909a:	50                   	push   %eax
    909b:	e8 01 fc ff ff       	call   8ca1 <skip_atoi>
    90a0:	83 c4 04             	add    $0x4,%esp
    90a3:	89 44 24 14          	mov    %eax,0x14(%esp)
    90a7:	eb 26                	jmp    90cf <vsprintf+0x159>
			else if (*fmt == '*') {
    90a9:	8b 44 24 38          	mov    0x38(%esp),%eax
    90ad:	0f b6 00             	movzbl (%eax),%eax
    90b0:	3c 2a                	cmp    $0x2a,%al
    90b2:	75 1b                	jne    90cf <vsprintf+0x159>
				/* it's the next argument */
                                ++fmt;
    90b4:	8b 44 24 38          	mov    0x38(%esp),%eax
    90b8:	83 c0 01             	add    $0x1,%eax
    90bb:	89 44 24 38          	mov    %eax,0x38(%esp)
				precision = va_arg(args, int);
    90bf:	83 44 24 3c 04       	addl   $0x4,0x3c(%esp)
    90c4:	8b 44 24 3c          	mov    0x3c(%esp),%eax
    90c8:	8b 40 fc             	mov    -0x4(%eax),%eax
    90cb:	89 44 24 14          	mov    %eax,0x14(%esp)
			}
			if (precision < 0)
    90cf:	83 7c 24 14 00       	cmpl   $0x0,0x14(%esp)
    90d4:	79 08                	jns    90de <vsprintf+0x168>
				precision = 0;
    90d6:	c7 44 24 14 00 00 00 	movl   $0x0,0x14(%esp)
    90dd:	00 
		}

		// 下面这段代码分析长度修饰符,并将其存入qualifer变量.
		/* get the conversion qualifier */
		qualifier = -1;
    90de:	c7 44 24 10 ff ff ff 	movl   $0xffffffff,0x10(%esp)
    90e5:	ff 
		if (*fmt == 'h' || *fmt == 'l' || *fmt == 'L') {
    90e6:	8b 44 24 38          	mov    0x38(%esp),%eax
    90ea:	0f b6 00             	movzbl (%eax),%eax
    90ed:	3c 68                	cmp    $0x68,%al
    90ef:	74 16                	je     9107 <vsprintf+0x191>
    90f1:	8b 44 24 38          	mov    0x38(%esp),%eax
    90f5:	0f b6 00             	movzbl (%eax),%eax
    90f8:	3c 6c                	cmp    $0x6c,%al
    90fa:	74 0b                	je     9107 <vsprintf+0x191>
    90fc:	8b 44 24 38          	mov    0x38(%esp),%eax
    9100:	0f b6 00             	movzbl (%eax),%eax
    9103:	3c 4c                	cmp    $0x4c,%al
    9105:	75 19                	jne    9120 <vsprintf+0x1aa>
			qualifier = *fmt;
    9107:	8b 44 24 38          	mov    0x38(%esp),%eax
    910b:	0f b6 00             	movzbl (%eax),%eax
    910e:	0f be c0             	movsbl %al,%eax
    9111:	89 44 24 10          	mov    %eax,0x10(%esp)
			++fmt;
    9115:	8b 44 24 38          	mov    0x38(%esp),%eax
    9119:	83 c0 01             	add    $0x1,%eax
    911c:	89 44 24 38          	mov    %eax,0x38(%esp)
		}

		// 下面分析转换指示符.
		switch (*fmt) {
    9120:	8b 44 24 38          	mov    0x38(%esp),%eax
    9124:	0f b6 00             	movzbl (%eax),%eax
    9127:	0f be c0             	movsbl %al,%eax
    912a:	83 e8 58             	sub    $0x58,%eax
    912d:	83 f8 20             	cmp    $0x20,%eax
    9130:	0f 87 3c 02 00 00    	ja     9372 <vsprintf+0x3fc>
    9136:	8b 04 85 44 2f 02 00 	mov    0x22f44(,%eax,4),%eax
    913d:	ff e0                	jmp    *%eax
		// 如果转换指示符是'c',则表示对应参数应是字符.此时如果标志域表明不是左靠齐,则该字段前面放入'宽度域值-1'个空格字符,然后再放入参数字符.如果
		// 宽度域还大于0,则表示左靠齐,则在参数字符后面添加'宽度值-1'个空格字符.
		case 'c':
			if (!(flags & LEFT))
    913f:	8b 44 24 1c          	mov    0x1c(%esp),%eax
    9143:	83 e0 10             	and    $0x10,%eax
    9146:	85 c0                	test   %eax,%eax
    9148:	75 1c                	jne    9166 <vsprintf+0x1f0>
				while (--field_width > 0)
    914a:	eb 0e                	jmp    915a <vsprintf+0x1e4>
					*str++ = ' ';
    914c:	8b 44 24 24          	mov    0x24(%esp),%eax
    9150:	8d 50 01             	lea    0x1(%eax),%edx
    9153:	89 54 24 24          	mov    %edx,0x24(%esp)
    9157:	c6 00 20             	movb   $0x20,(%eax)
				while (--field_width > 0)
    915a:	83 6c 24 18 01       	subl   $0x1,0x18(%esp)
    915f:	83 7c 24 18 00       	cmpl   $0x0,0x18(%esp)
    9164:	7f e6                	jg     914c <vsprintf+0x1d6>
			*str++ = (unsigned char) va_arg(args, int);
    9166:	83 44 24 3c 04       	addl   $0x4,0x3c(%esp)
    916b:	8b 44 24 3c          	mov    0x3c(%esp),%eax
    916f:	83 e8 04             	sub    $0x4,%eax
    9172:	8b 08                	mov    (%eax),%ecx
    9174:	8b 44 24 24          	mov    0x24(%esp),%eax
    9178:	8d 50 01             	lea    0x1(%eax),%edx
    917b:	89 54 24 24          	mov    %edx,0x24(%esp)
    917f:	89 ca                	mov    %ecx,%edx
    9181:	88 10                	mov    %dl,(%eax)
			while (--field_width > 0)
    9183:	eb 0e                	jmp    9193 <vsprintf+0x21d>
				*str++ = ' ';
    9185:	8b 44 24 24          	mov    0x24(%esp),%eax
    9189:	8d 50 01             	lea    0x1(%eax),%edx
    918c:	89 54 24 24          	mov    %edx,0x24(%esp)
    9190:	c6 00 20             	movb   $0x20,(%eax)
			while (--field_width > 0)
    9193:	83 6c 24 18 01       	subl   $0x1,0x18(%esp)
    9198:	83 7c 24 18 00       	cmpl   $0x0,0x18(%esp)
    919d:	7f e6                	jg     9185 <vsprintf+0x20f>
			break;
    919f:	e9 14 02 00 00       	jmp    93b8 <vsprintf+0x442>

		// 如果转换指示符是's',则表示对应参数是字符串.首先取参数字符串的长度,若其超过了精度域值,则扩展精度=字符串长度.此时如果标志域表明不是左靠齐,
		// 则该字段前放入'宽度值-字符串长度'个空格字符.然后再放入参数字符串.如果宽度域还大于0,则表示为左靠齐,则在参数字符串后面添加'宽度值-字符串长
		// 度'个空格字符.
		case 's':
			s = va_arg(args, char *);
    91a4:	83 44 24 3c 04       	addl   $0x4,0x3c(%esp)
    91a9:	8b 44 24 3c          	mov    0x3c(%esp),%eax
    91ad:	8b 40 fc             	mov    -0x4(%eax),%eax
    91b0:	89 44 24 20          	mov    %eax,0x20(%esp)
			len = strlen(s);
    91b4:	ff 74 24 20          	pushl  0x20(%esp)
    91b8:	e8 c9 fa ff ff       	call   8c86 <strlen>
    91bd:	83 c4 04             	add    $0x4,%esp
    91c0:	89 44 24 2c          	mov    %eax,0x2c(%esp)
			if (precision < 0)
    91c4:	83 7c 24 14 00       	cmpl   $0x0,0x14(%esp)
    91c9:	79 0a                	jns    91d5 <vsprintf+0x25f>
				precision = len;
    91cb:	8b 44 24 2c          	mov    0x2c(%esp),%eax
    91cf:	89 44 24 14          	mov    %eax,0x14(%esp)
    91d3:	eb 12                	jmp    91e7 <vsprintf+0x271>
			else if (len > precision)
    91d5:	8b 44 24 2c          	mov    0x2c(%esp),%eax
    91d9:	3b 44 24 14          	cmp    0x14(%esp),%eax
    91dd:	7e 08                	jle    91e7 <vsprintf+0x271>
				len = precision;
    91df:	8b 44 24 14          	mov    0x14(%esp),%eax
    91e3:	89 44 24 2c          	mov    %eax,0x2c(%esp)

			if (!(flags & LEFT))
    91e7:	8b 44 24 1c          	mov    0x1c(%esp),%eax
    91eb:	83 e0 10             	and    $0x10,%eax
    91ee:	85 c0                	test   %eax,%eax
    91f0:	75 21                	jne    9213 <vsprintf+0x29d>
				while (len < field_width--)
    91f2:	eb 0e                	jmp    9202 <vsprintf+0x28c>
					*str++ = ' ';
    91f4:	8b 44 24 24          	mov    0x24(%esp),%eax
    91f8:	8d 50 01             	lea    0x1(%eax),%edx
    91fb:	89 54 24 24          	mov    %edx,0x24(%esp)
    91ff:	c6 00 20             	movb   $0x20,(%eax)
				while (len < field_width--)
    9202:	8b 44 24 18          	mov    0x18(%esp),%eax
    9206:	8d 50 ff             	lea    -0x1(%eax),%edx
    9209:	89 54 24 18          	mov    %edx,0x18(%esp)
    920d:	39 44 24 2c          	cmp    %eax,0x2c(%esp)
    9211:	7c e1                	jl     91f4 <vsprintf+0x27e>
			for (i = 0; i < len; ++i)
    9213:	c7 44 24 28 00 00 00 	movl   $0x0,0x28(%esp)
    921a:	00 
    921b:	eb 20                	jmp    923d <vsprintf+0x2c7>
				*str++ = *s++;
    921d:	8b 54 24 20          	mov    0x20(%esp),%edx
    9221:	8d 42 01             	lea    0x1(%edx),%eax
    9224:	89 44 24 20          	mov    %eax,0x20(%esp)
    9228:	8b 44 24 24          	mov    0x24(%esp),%eax
    922c:	8d 48 01             	lea    0x1(%eax),%ecx
    922f:	89 4c 24 24          	mov    %ecx,0x24(%esp)
    9233:	0f b6 12             	movzbl (%edx),%edx
    9236:	88 10                	mov    %dl,(%eax)
			for (i = 0; i < len; ++i)
    9238:	83 44 24 28 01       	addl   $0x1,0x28(%esp)
    923d:	8b 44 24 28          	mov    0x28(%esp),%eax
    9241:	3b 44 24 2c          	cmp    0x2c(%esp),%eax
    9245:	7c d6                	jl     921d <vsprintf+0x2a7>
			while (len < field_width--)
    9247:	eb 0e                	jmp    9257 <vsprintf+0x2e1>
				*str++ = ' ';
    9249:	8b 44 24 24          	mov    0x24(%esp),%eax
    924d:	8d 50 01             	lea    0x1(%eax),%edx
    9250:	89 54 24 24          	mov    %edx,0x24(%esp)
    9254:	c6 00 20             	movb   $0x20,(%eax)
			while (len < field_width--)
    9257:	8b 44 24 18          	mov    0x18(%esp),%eax
    925b:	8d 50 ff             	lea    -0x1(%eax),%edx
    925e:	89 54 24 18          	mov    %edx,0x18(%esp)
    9262:	39 44 24 2c          	cmp    %eax,0x2c(%esp)
    9266:	7c e1                	jl     9249 <vsprintf+0x2d3>
			break;
    9268:	e9 4b 01 00 00       	jmp    93b8 <vsprintf+0x442>

		// 如果格式转换符是'o',表示需将对应的参数转换成八进制数的字符串.调用number()函数处理.
		case 'o':
			str = number(str, va_arg(args, unsigned long), 8,
    926d:	83 44 24 3c 04       	addl   $0x4,0x3c(%esp)
    9272:	8b 44 24 3c          	mov    0x3c(%esp),%eax
    9276:	83 e8 04             	sub    $0x4,%eax
    9279:	8b 00                	mov    (%eax),%eax
    927b:	ff 74 24 1c          	pushl  0x1c(%esp)
    927f:	ff 74 24 18          	pushl  0x18(%esp)
    9283:	ff 74 24 20          	pushl  0x20(%esp)
    9287:	6a 08                	push   $0x8
    9289:	50                   	push   %eax
    928a:	ff 74 24 38          	pushl  0x38(%esp)
    928e:	e8 6c fa ff ff       	call   8cff <number>
    9293:	83 c4 18             	add    $0x18,%esp
    9296:	89 44 24 24          	mov    %eax,0x24(%esp)
				field_width, precision, flags);
			break;
    929a:	e9 19 01 00 00       	jmp    93b8 <vsprintf+0x442>

		// 如果格式转换符是'p',表示对应参数是一个指针类型.此时若该参数没有设置宽度域,则默认宽度为8,并且需要添零.然后调用number()函数进行处理.
		case 'p':
			if (field_width == -1) {
    929f:	83 7c 24 18 ff       	cmpl   $0xffffffff,0x18(%esp)
    92a4:	75 0d                	jne    92b3 <vsprintf+0x33d>
				field_width = 8;
    92a6:	c7 44 24 18 08 00 00 	movl   $0x8,0x18(%esp)
    92ad:	00 
				flags |= ZEROPAD;
    92ae:	83 4c 24 1c 01       	orl    $0x1,0x1c(%esp)
			}
			str = number(str,
				(unsigned long) va_arg(args, void *), 16,
    92b3:	83 44 24 3c 04       	addl   $0x4,0x3c(%esp)
    92b8:	8b 44 24 3c          	mov    0x3c(%esp),%eax
    92bc:	83 e8 04             	sub    $0x4,%eax
    92bf:	8b 00                	mov    (%eax),%eax
			str = number(str,
    92c1:	ff 74 24 1c          	pushl  0x1c(%esp)
    92c5:	ff 74 24 18          	pushl  0x18(%esp)
    92c9:	ff 74 24 20          	pushl  0x20(%esp)
    92cd:	6a 10                	push   $0x10
    92cf:	50                   	push   %eax
    92d0:	ff 74 24 38          	pushl  0x38(%esp)
    92d4:	e8 26 fa ff ff       	call   8cff <number>
    92d9:	83 c4 18             	add    $0x18,%esp
    92dc:	89 44 24 24          	mov    %eax,0x24(%esp)
				field_width, precision, flags);
			break;
    92e0:	e9 d3 00 00 00       	jmp    93b8 <vsprintf+0x442>

		// 如果格式转换指示是'x'或'X',则表示对应参数需要打印成十六进制数输出.'x'表示用定字母表示.
		case 'x':
			flags |= SMALL;
    92e5:	83 4c 24 1c 40       	orl    $0x40,0x1c(%esp)
		case 'X':
			str = number(str, va_arg(args, unsigned long), 16,
    92ea:	83 44 24 3c 04       	addl   $0x4,0x3c(%esp)
    92ef:	8b 44 24 3c          	mov    0x3c(%esp),%eax
    92f3:	83 e8 04             	sub    $0x4,%eax
    92f6:	8b 00                	mov    (%eax),%eax
    92f8:	ff 74 24 1c          	pushl  0x1c(%esp)
    92fc:	ff 74 24 18          	pushl  0x18(%esp)
    9300:	ff 74 24 20          	pushl  0x20(%esp)
    9304:	6a 10                	push   $0x10
    9306:	50                   	push   %eax
    9307:	ff 74 24 38          	pushl  0x38(%esp)
    930b:	e8 ef f9 ff ff       	call   8cff <number>
    9310:	83 c4 18             	add    $0x18,%esp
    9313:	89 44 24 24          	mov    %eax,0x24(%esp)
				field_width, precision, flags);
			break;
    9317:	e9 9c 00 00 00       	jmp    93b8 <vsprintf+0x442>

		// 如果格式转换字符是'd','i'或'u',则表示对应参数是整数,'d','i'代表符号整数,因此需要加上带符号标志.'u'代表无符号整数.
		case 'd':
		case 'i':
			flags |= SIGN;
    931c:	83 4c 24 1c 02       	orl    $0x2,0x1c(%esp)
		case 'u':
			str = number(str, va_arg(args, unsigned long), 10,
    9321:	83 44 24 3c 04       	addl   $0x4,0x3c(%esp)
    9326:	8b 44 24 3c          	mov    0x3c(%esp),%eax
    932a:	83 e8 04             	sub    $0x4,%eax
    932d:	8b 00                	mov    (%eax),%eax
    932f:	ff 74 24 1c          	pushl  0x1c(%esp)
    9333:	ff 74 24 18          	pushl  0x18(%esp)
    9337:	ff 74 24 20          	pushl  0x20(%esp)
    933b:	6a 0a                	push   $0xa
    933d:	50                   	push   %eax
    933e:	ff 74 24 38          	pushl  0x38(%esp)
    9342:	e8 b8 f9 ff ff       	call   8cff <number>
    9347:	83 c4 18             	add    $0x18,%esp
    934a:	89 44 24 24          	mov    %eax,0x24(%esp)
				field_width, precision, flags);
			break;
    934e:	eb 68                	jmp    93b8 <vsprintf+0x442>

		// 若格式转换指示符是'n',则表示要把目前为止转换输出字符数保存到对应参数指针指定的位置中.首先利用va_arg()取得该参数指针,然后将已经转换好
		// 的字符数存入该指示的位置.
		case 'n':
			ip = va_arg(args, int *);
    9350:	83 44 24 3c 04       	addl   $0x4,0x3c(%esp)
    9355:	8b 44 24 3c          	mov    0x3c(%esp),%eax
    9359:	8b 40 fc             	mov    -0x4(%eax),%eax
    935c:	89 44 24 0c          	mov    %eax,0xc(%esp)
			*ip = (str - buf);
    9360:	8b 54 24 24          	mov    0x24(%esp),%edx
    9364:	8b 44 24 34          	mov    0x34(%esp),%eax
    9368:	29 c2                	sub    %eax,%edx
    936a:	8b 44 24 0c          	mov    0xc(%esp),%eax
    936e:	89 10                	mov    %edx,(%eax)
			break;
    9370:	eb 46                	jmp    93b8 <vsprintf+0x442>

		// 若格式转换符不是'%',则表示格式字符串有错,直接将一个'%'写入输出串中.
		// 如果格式转换符的位置处还有字符,则也直接将该字符写入输出串中,并返回前面继续处理格式字符串.否则表示已经处理到格式字符串的结尾处,则退出循环.
		default:
			if (*fmt != '%')
    9372:	8b 44 24 38          	mov    0x38(%esp),%eax
    9376:	0f b6 00             	movzbl (%eax),%eax
    9379:	3c 25                	cmp    $0x25,%al
    937b:	74 0e                	je     938b <vsprintf+0x415>
				*str++ = '%';
    937d:	8b 44 24 24          	mov    0x24(%esp),%eax
    9381:	8d 50 01             	lea    0x1(%eax),%edx
    9384:	89 54 24 24          	mov    %edx,0x24(%esp)
    9388:	c6 00 25             	movb   $0x25,(%eax)
			if (*fmt)
    938b:	8b 44 24 38          	mov    0x38(%esp),%eax
    938f:	0f b6 00             	movzbl (%eax),%eax
    9392:	84 c0                	test   %al,%al
    9394:	74 16                	je     93ac <vsprintf+0x436>
				*str++ = *fmt;
    9396:	8b 54 24 38          	mov    0x38(%esp),%edx
    939a:	8b 44 24 24          	mov    0x24(%esp),%eax
    939e:	8d 48 01             	lea    0x1(%eax),%ecx
    93a1:	89 4c 24 24          	mov    %ecx,0x24(%esp)
    93a5:	0f b6 12             	movzbl (%edx),%edx
    93a8:	88 10                	mov    %dl,(%eax)
			else
				--fmt;
			break;
    93aa:	eb 0b                	jmp    93b7 <vsprintf+0x441>
				--fmt;
    93ac:	8b 44 24 38          	mov    0x38(%esp),%eax
    93b0:	83 e8 01             	sub    $0x1,%eax
    93b3:	89 44 24 38          	mov    %eax,0x38(%esp)
			break;
    93b7:	90                   	nop
	for (str=buf ; *fmt ; ++fmt) {
    93b8:	8b 44 24 38          	mov    0x38(%esp),%eax
    93bc:	83 c0 01             	add    $0x1,%eax
    93bf:	89 44 24 38          	mov    %eax,0x38(%esp)
    93c3:	8b 44 24 38          	mov    0x38(%esp),%eax
    93c7:	0f b6 00             	movzbl (%eax),%eax
    93ca:	84 c0                	test   %al,%al
    93cc:	0f 85 b4 fb ff ff    	jne    8f86 <vsprintf+0x10>
		}
	}
	*str = '\0';										// 最后在转换好的字符串结尾处添上null.
    93d2:	8b 44 24 24          	mov    0x24(%esp),%eax
    93d6:	c6 00 00             	movb   $0x0,(%eax)
	return str - buf;									// 返回转换好的字符串长度值.
    93d9:	8b 54 24 24          	mov    0x24(%esp),%edx
    93dd:	8b 44 24 34          	mov    0x34(%esp),%eax
    93e1:	29 c2                	sub    %eax,%edx
    93e3:	89 d0                	mov    %edx,%eax
}
    93e5:	83 c4 30             	add    $0x30,%esp
    93e8:	c3                   	ret    

000093e9 <get_fs_byte>:
//// 读取fs段中指定地址处的字节.
// 参数:addr - 指定的内存地址.
// %0 - (返回的字节_v);%1 - (内存地址addr)
// 返回:返回内存fs[addr]处的字节.
static inline unsigned char get_fs_byte(const char * addr)
{
    93e9:	53                   	push   %ebx
	unsigned register char _v;

	__asm__ ("movb %%fs:%1,%0":"=q" (_v):"m" (*addr));
    93ea:	8b 44 24 08          	mov    0x8(%esp),%eax
    93ee:	64 8a 00             	mov    %fs:(%eax),%al
    93f1:	89 c3                	mov    %eax,%ebx
	return _v;
    93f3:	89 d8                	mov    %ebx,%eax
}
    93f5:	5b                   	pop    %ebx
    93f6:	c3                   	ret    

000093f7 <get_fs_word>:
//// 读取fs段中指定地址处的字.
// 参数:addr - 指定的内存地址.
// %0 - (返回的字_v);%1 - (内存地址addr)
// 返回:返回内存fs:[addr]处的字.
static inline unsigned short get_fs_word(const unsigned short *addr)
{
    93f7:	83 ec 10             	sub    $0x10,%esp
	unsigned short _v;

	__asm__ ("movw %%fs:%1,%0":"=q" (_v):"m" (*addr));
    93fa:	8b 44 24 14          	mov    0x14(%esp),%eax
    93fe:	64 66 8b 00          	mov    %fs:(%eax),%ax
    9402:	66 89 44 24 0e       	mov    %ax,0xe(%esp)
	return _v;
    9407:	0f b7 44 24 0e       	movzwl 0xe(%esp),%eax
}
    940c:	83 c4 10             	add    $0x10,%esp
    940f:	c3                   	ret    

00009410 <get_fs_long>:
//// 读取fs段中指定地址处的长字(4字节).
// 参数:addr - 指定的内存地址.
// %0 - (返回的长字_v);%1 - (内存地址addr)
// 返回:返回内存fs:[addr]处的长字.
static inline unsigned long get_fs_long(const unsigned long *addr)
{
    9410:	83 ec 10             	sub    $0x10,%esp
	unsigned long _v;

	__asm__ ("movl %%fs:%1,%0":"=q" (_v):"m" (*addr)); \
    9413:	8b 44 24 14          	mov    0x14(%esp),%eax
    9417:	64 8b 00             	mov    %fs:(%eax),%eax
    941a:	89 44 24 0c          	mov    %eax,0xc(%esp)
	return _v;
    941e:	8b 44 24 0c          	mov    0xc(%esp),%eax
}
    9422:	83 c4 10             	add    $0x10,%esp
    9425:	c3                   	ret    

00009426 <put_fs_byte>:

//// 将一字节存放在fs段中指定内存地址处.
// 参数:val - 字节值;addr - 内存地址.
// %0 - 寄存器(字节值val);%1 - (内存地址addr).
static inline void put_fs_byte(char val,char *addr)
{
    9426:	83 ec 04             	sub    $0x4,%esp
    9429:	8b 44 24 08          	mov    0x8(%esp),%eax
    942d:	88 04 24             	mov    %al,(%esp)
__asm__ ("movb %0,%%fs:%1"::"q" (val),"m" (*addr));
    9430:	0f b6 04 24          	movzbl (%esp),%eax
    9434:	8b 54 24 0c          	mov    0xc(%esp),%edx
    9438:	64 88 02             	mov    %al,%fs:(%edx)
}
    943b:	90                   	nop
    943c:	83 c4 04             	add    $0x4,%esp
    943f:	c3                   	ret    

00009440 <put_fs_word>:

//// 将一字存放在fs段中指定内存地址处.
// 参数:val - 字值;addr - 内存地址.
// %0 - 寄存器(字值val);%1 - (内存地址addr).
static inline void put_fs_word(short val,short * addr)
{
    9440:	83 ec 04             	sub    $0x4,%esp
    9443:	8b 44 24 08          	mov    0x8(%esp),%eax
    9447:	66 89 04 24          	mov    %ax,(%esp)
__asm__ ("movw %0,%%fs:%1"::"q" (val),"m" (*addr));
    944b:	0f b7 04 24          	movzwl (%esp),%eax
    944f:	8b 54 24 0c          	mov    0xc(%esp),%edx
    9453:	64 66 89 02          	mov    %ax,%fs:(%edx)
}
    9457:	90                   	nop
    9458:	83 c4 04             	add    $0x4,%esp
    945b:	c3                   	ret    

0000945c <put_fs_long>:
//// 将一长字存放在fs段中指定内存地址处.
// 参数:val - 长字值;addr - 内存地址.
// %0 - 寄存器(长字值val);%1 - (内存地址addr).
static inline void put_fs_long(unsigned long val,unsigned long * addr)
{
__asm__ ("movl %0,%%fs:%1"::"q" (val),"m" (*addr));
    945c:	8b 44 24 04          	mov    0x4(%esp),%eax
    9460:	8b 54 24 08          	mov    0x8(%esp),%edx
    9464:	64 89 02             	mov    %eax,%fs:(%edx)
}
    9467:	90                   	nop
    9468:	c3                   	ret    

00009469 <memset>:

// 用字符填写指定长度内存块.
// 用字符c填写s指向的内存区域,共填count字节.
// %0 - eax(字符c),%1 - edi(内存地址),%2 - ecx(字节数count).
static inline void * memset(void * s, char c, int count)
{
    9469:	57                   	push   %edi
    946a:	83 ec 04             	sub    $0x4,%esp
    946d:	8b 44 24 10          	mov    0x10(%esp),%eax
    9471:	88 04 24             	mov    %al,(%esp)
__asm__(
    9474:	0f b6 04 24          	movzbl (%esp),%eax
    9478:	8b 54 24 0c          	mov    0xc(%esp),%edx
    947c:	8b 4c 24 14          	mov    0x14(%esp),%ecx
    9480:	89 d7                	mov    %edx,%edi
    9482:	fc                   	cld    
    9483:	57                   	push   %edi
    9484:	f3 aa                	rep stos %al,%es:(%edi)
    9486:	5f                   	pop    %edi
		"rep\n\t"											// 重复ecx指定的次数,执行.
		"stosb\n\t"											// 将al中字符存入es:[edi]中,并且edi++.
		"popl %%edi"
		::"a" (c), "D" (s), "c" (count)
		:);
return s;
    9487:	8b 44 24 0c          	mov    0xc(%esp),%eax
}
    948b:	83 c4 04             	add    $0x4,%esp
    948e:	5f                   	pop    %edi
    948f:	c3                   	ret    

00009490 <sys_ftime>:

// 返回日期和时间（ftime - Fetch time）。
// 以下返回值是-ENOSYS的系统调用函数均表示在本版本内核中还未实现。
int sys_ftime()
{
	return -ENOSYS;
    9490:	b8 da ff ff ff       	mov    $0xffffffda,%eax
}
    9495:	c3                   	ret    

00009496 <sys_break>:

int sys_break()
{
	return -ENOSYS;
    9496:	b8 da ff ff ff       	mov    $0xffffffda,%eax
}
    949b:	c3                   	ret    

0000949c <sys_ptrace>:

// 用于当前进程对子进程进行高度（debugging）。
int sys_ptrace()
{
	return -ENOSYS;
    949c:	b8 da ff ff ff       	mov    $0xffffffda,%eax
}
    94a1:	c3                   	ret    

000094a2 <sys_stty>:

// 改变并打印终端行设置。
int sys_stty()
{
	return -ENOSYS;
    94a2:	b8 da ff ff ff       	mov    $0xffffffda,%eax
}
    94a7:	c3                   	ret    

000094a8 <sys_gtty>:

// 取终端行设置信息。
int sys_gtty()
{
	return -ENOSYS;
    94a8:	b8 da ff ff ff       	mov    $0xffffffda,%eax
}
    94ad:	c3                   	ret    

000094ae <sys_rename>:

// 修改文件名。
int sys_rename()
{
	return -ENOSYS;
    94ae:	b8 da ff ff ff       	mov    $0xffffffda,%eax
}
    94b3:	c3                   	ret    

000094b4 <sys_prof>:

int sys_prof()
{
	return -ENOSYS;
    94b4:	b8 da ff ff ff       	mov    $0xffffffda,%eax
}
    94b9:	c3                   	ret    

000094ba <sys_setregid>:
// 设置当前任务的实际以及/或者有效组ID（gid）。如果任务没有超级用户特权，那么只能互换其实际组ID和有效组ID。
// 如果任务具有超级用户特权，就能任意设置有效的和实际的组ID。保留的gid（saved gid）被设置成与有效gid。实际
// 组ID是指进程当前的gid。
int sys_setregid(int rgid, int egid)
{
	if (rgid > 0) {
    94ba:	83 7c 24 04 00       	cmpl   $0x0,0x4(%esp)
    94bf:	7e 3e                	jle    94ff <sys_setregid+0x45>
		if ((current->gid == rgid) ||
    94c1:	a1 a0 f1 02 00       	mov    0x2f1a0,%eax
    94c6:	0f b7 80 d2 02 00 00 	movzwl 0x2d2(%eax),%eax
    94cd:	0f b7 c0             	movzwl %ax,%eax
    94d0:	39 44 24 04          	cmp    %eax,0x4(%esp)
    94d4:	74 11                	je     94e7 <sys_setregid+0x2d>
		    suser())
    94d6:	a1 a0 f1 02 00       	mov    0x2f1a0,%eax
    94db:	0f b7 80 ce 02 00 00 	movzwl 0x2ce(%eax),%eax
		if ((current->gid == rgid) ||
    94e2:	66 85 c0             	test   %ax,%ax
    94e5:	75 12                	jne    94f9 <sys_setregid+0x3f>
			current->gid = rgid;
    94e7:	a1 a0 f1 02 00       	mov    0x2f1a0,%eax
    94ec:	8b 54 24 04          	mov    0x4(%esp),%edx
    94f0:	66 89 90 d2 02 00 00 	mov    %dx,0x2d2(%eax)
    94f7:	eb 06                	jmp    94ff <sys_setregid+0x45>
		else
			return(-EPERM);
    94f9:	b8 ff ff ff ff       	mov    $0xffffffff,%eax
    94fe:	c3                   	ret    
	}
	if (egid > 0) {
    94ff:	83 7c 24 08 00       	cmpl   $0x0,0x8(%esp)
    9504:	7e 63                	jle    9569 <sys_setregid+0xaf>
		if ((current->gid == egid) ||
    9506:	a1 a0 f1 02 00       	mov    0x2f1a0,%eax
    950b:	0f b7 80 d2 02 00 00 	movzwl 0x2d2(%eax),%eax
    9512:	0f b7 c0             	movzwl %ax,%eax
    9515:	39 44 24 08          	cmp    %eax,0x8(%esp)
    9519:	74 26                	je     9541 <sys_setregid+0x87>
		    (current->egid == egid) ||
    951b:	a1 a0 f1 02 00       	mov    0x2f1a0,%eax
    9520:	0f b7 80 d4 02 00 00 	movzwl 0x2d4(%eax),%eax
    9527:	0f b7 c0             	movzwl %ax,%eax
		if ((current->gid == egid) ||
    952a:	39 44 24 08          	cmp    %eax,0x8(%esp)
    952e:	74 11                	je     9541 <sys_setregid+0x87>
		    suser()) {
    9530:	a1 a0 f1 02 00       	mov    0x2f1a0,%eax
    9535:	0f b7 80 ce 02 00 00 	movzwl 0x2ce(%eax),%eax
		    (current->egid == egid) ||
    953c:	66 85 c0             	test   %ax,%ax
    953f:	75 22                	jne    9563 <sys_setregid+0xa9>
			current->egid = egid;
    9541:	a1 a0 f1 02 00       	mov    0x2f1a0,%eax
    9546:	8b 54 24 08          	mov    0x8(%esp),%edx
    954a:	66 89 90 d4 02 00 00 	mov    %dx,0x2d4(%eax)
			current->sgid = egid;
    9551:	a1 a0 f1 02 00       	mov    0x2f1a0,%eax
    9556:	8b 54 24 08          	mov    0x8(%esp),%edx
    955a:	66 89 90 d6 02 00 00 	mov    %dx,0x2d6(%eax)
    9561:	eb 06                	jmp    9569 <sys_setregid+0xaf>
		} else
			return(-EPERM);
    9563:	b8 ff ff ff ff       	mov    $0xffffffff,%eax
    9568:	c3                   	ret    
	}
	return 0;
    9569:	b8 00 00 00 00       	mov    $0x0,%eax
}
    956e:	c3                   	ret    

0000956f <sys_setgid>:
// 设置进程组号（gid）。如果任务没有超级用户特权，它可以使用setgid()将其有效gid（effective gid）设置为成其保留
// gid（saved git）或其实际git（real gid）。如果任务有超级用户特权，则实际gid、有效gid和保留gid都被设置成参数
// 指定的gid。
int sys_setgid(int gid)
{
	if (suser())
    956f:	a1 a0 f1 02 00       	mov    0x2f1a0,%eax
    9574:	0f b7 80 ce 02 00 00 	movzwl 0x2ce(%eax),%eax
    957b:	66 85 c0             	test   %ax,%ax
    957e:	75 3a                	jne    95ba <sys_setgid+0x4b>
		current->gid = current->egid = current->sgid = gid;
    9580:	8b 15 a0 f1 02 00    	mov    0x2f1a0,%edx
    9586:	8b 44 24 04          	mov    0x4(%esp),%eax
    958a:	66 89 82 d6 02 00 00 	mov    %ax,0x2d6(%edx)
    9591:	a1 a0 f1 02 00       	mov    0x2f1a0,%eax
    9596:	0f b7 92 d6 02 00 00 	movzwl 0x2d6(%edx),%edx
    959d:	66 89 90 d4 02 00 00 	mov    %dx,0x2d4(%eax)
    95a4:	8b 15 a0 f1 02 00    	mov    0x2f1a0,%edx
    95aa:	0f b7 80 d4 02 00 00 	movzwl 0x2d4(%eax),%eax
    95b1:	66 89 82 d2 02 00 00 	mov    %ax,0x2d2(%edx)
    95b8:	eb 42                	jmp    95fc <sys_setgid+0x8d>
	else if ((gid == current->gid) || (gid == current->sgid))
    95ba:	a1 a0 f1 02 00       	mov    0x2f1a0,%eax
    95bf:	0f b7 80 d2 02 00 00 	movzwl 0x2d2(%eax),%eax
    95c6:	0f b7 c0             	movzwl %ax,%eax
    95c9:	39 44 24 04          	cmp    %eax,0x4(%esp)
    95cd:	74 15                	je     95e4 <sys_setgid+0x75>
    95cf:	a1 a0 f1 02 00       	mov    0x2f1a0,%eax
    95d4:	0f b7 80 d6 02 00 00 	movzwl 0x2d6(%eax),%eax
    95db:	0f b7 c0             	movzwl %ax,%eax
    95de:	39 44 24 04          	cmp    %eax,0x4(%esp)
    95e2:	75 12                	jne    95f6 <sys_setgid+0x87>
		current->egid = gid;
    95e4:	a1 a0 f1 02 00       	mov    0x2f1a0,%eax
    95e9:	8b 54 24 04          	mov    0x4(%esp),%edx
    95ed:	66 89 90 d4 02 00 00 	mov    %dx,0x2d4(%eax)
    95f4:	eb 06                	jmp    95fc <sys_setgid+0x8d>
	else
		return -EPERM;
    95f6:	b8 ff ff ff ff       	mov    $0xffffffff,%eax
    95fb:	c3                   	ret    
	return 0;
    95fc:	b8 00 00 00 00       	mov    $0x0,%eax
}
    9601:	c3                   	ret    

00009602 <sys_acct>:

// 打开或关闭进程计账功能。
int sys_acct()
{
	return -ENOSYS;
    9602:	b8 da ff ff ff       	mov    $0xffffffda,%eax
}
    9607:	c3                   	ret    

00009608 <sys_phys>:

// 映射任意物理内在到进程的虚拟地址空间。
int sys_phys()
{
	return -ENOSYS;
    9608:	b8 da ff ff ff       	mov    $0xffffffda,%eax
}
    960d:	c3                   	ret    

0000960e <sys_lock>:

int sys_lock()
{
	return -ENOSYS;
    960e:	b8 da ff ff ff       	mov    $0xffffffda,%eax
}
    9613:	c3                   	ret    

00009614 <sys_mpx>:

int sys_mpx()
{
	return -ENOSYS;
    9614:	b8 da ff ff ff       	mov    $0xffffffda,%eax
}
    9619:	c3                   	ret    

0000961a <sys_ulimit>:

int sys_ulimit()
{
	return -ENOSYS;
    961a:	b8 da ff ff ff       	mov    $0xffffffda,%eax
}
    961f:	c3                   	ret    

00009620 <sys_time>:

// 返回从1970年1月1日00:00:00 GMT开始计时的时间值（秒）。如果tloc不为null，则时间值也存储在那里。
// 由于参数是一个指针，而其所指位置在用户空间，因此需要使用函数put_fs_long()来访问该值。在进入内核中运行时，段
// 寄存器fs默认地指向当前用户数据空间。因此该函数就可利用fs来访问用户空间中的值。
int sys_time(long * tloc)
{
    9620:	83 ec 1c             	sub    $0x1c,%esp
	int i;

	i = CURRENT_TIME;
    9623:	a1 00 fb 02 00       	mov    0x2fb00,%eax
    9628:	8b 15 08 fb 02 00    	mov    0x2fb08,%edx
    962e:	01 d0                	add    %edx,%eax
    9630:	ba 1f 85 eb 51       	mov    $0x51eb851f,%edx
    9635:	f7 e2                	mul    %edx
    9637:	c1 ea 05             	shr    $0x5,%edx
    963a:	a1 04 fb 02 00       	mov    0x2fb04,%eax
    963f:	01 d0                	add    %edx,%eax
    9641:	89 44 24 0c          	mov    %eax,0xc(%esp)
	if (tloc) {
    9645:	83 7c 24 20 00       	cmpl   $0x0,0x20(%esp)
    964a:	74 25                	je     9671 <sys_time+0x51>
		verify_area(tloc,4);            				// 验证内存容量是否够（这里是4字节）。
    964c:	83 ec 08             	sub    $0x8,%esp
    964f:	6a 04                	push   $0x4
    9651:	ff 74 24 2c          	pushl  0x2c(%esp)
    9655:	e8 45 ed ff ff       	call   839f <verify_area>
    965a:	83 c4 10             	add    $0x10,%esp
		put_fs_long(i,(unsigned long *)tloc);   		// 放入用户数据段tloc处。
    965d:	8b 44 24 0c          	mov    0xc(%esp),%eax
    9661:	83 ec 08             	sub    $0x8,%esp
    9664:	ff 74 24 28          	pushl  0x28(%esp)
    9668:	50                   	push   %eax
    9669:	e8 ee fd ff ff       	call   945c <put_fs_long>
    966e:	83 c4 10             	add    $0x10,%esp
	}
	return i;
    9671:	8b 44 24 0c          	mov    0xc(%esp),%eax
}
    9675:	83 c4 1c             	add    $0x1c,%esp
    9678:	c3                   	ret    

00009679 <sys_setreuid>:
 * 用setuid()和保存的gid的程序将会与POSIX 100%兼容。
 */
// 设置任务的实际以及/或者有效的用户ID（uid）。如果任务没有超级用户特权，那么只能互换其实际的uid和有效的uid。如果
// 任务具有超级用户特权，就能任意设置有效的和实际的用户ID。保存的uid（saved uid）被设置成与有效uid同值。
int sys_setreuid(int ruid, int euid)
{
    9679:	83 ec 10             	sub    $0x10,%esp
	int old_ruid = current->uid;
    967c:	a1 a0 f1 02 00       	mov    0x2f1a0,%eax
    9681:	0f b7 80 cc 02 00 00 	movzwl 0x2cc(%eax),%eax
    9688:	0f b7 c0             	movzwl %ax,%eax
    968b:	89 44 24 0c          	mov    %eax,0xc(%esp)

	if (ruid > 0) {
    968f:	83 7c 24 14 00       	cmpl   $0x0,0x14(%esp)
